
STM32_uartPrintf.elf:     file format elf32-littlearm

Sections:
Idx Name          Size      VMA       LMA       File off  Algn
  0 .isr_vector   000000c0  08000000  08000000  00001000  2**0
                  CONTENTS, ALLOC, LOAD, READONLY, DATA
  1 .text         00007ff4  080000c0  080000c0  000010c0  2**2
                  CONTENTS, ALLOC, LOAD, READONLY, CODE
  2 .rodata       0000050c  080080b8  080080b8  000090b8  2**3
                  CONTENTS, ALLOC, LOAD, READONLY, DATA
  3 .ARM.extab    00000000  080085c4  080085c4  0000a1d4  2**0
                  CONTENTS
  4 .ARM          00000000  080085c4  080085c4  0000a1d4  2**0
                  CONTENTS
  5 .preinit_array 00000000  080085c4  080085c4  0000a1d4  2**0
                  CONTENTS, ALLOC, LOAD, DATA
  6 .init_array   00000004  080085c4  080085c4  000095c4  2**2
                  CONTENTS, ALLOC, LOAD, DATA
  7 .fini_array   00000004  080085c8  080085c8  000095c8  2**2
                  CONTENTS, ALLOC, LOAD, DATA
  8 .data         000001d4  20000000  080085cc  0000a000  2**2
                  CONTENTS, ALLOC, LOAD, DATA
  9 .bss          00000258  200001d4  080087a0  0000a1d4  2**2
                  ALLOC
 10 ._user_heap_stack 00000604  2000042c  080087a0  0000a42c  2**0
                  ALLOC
 11 .ARM.attributes 00000028  00000000  00000000  0000a1d4  2**0
                  CONTENTS, READONLY
 12 .debug_info   0000be45  00000000  00000000  0000a1fc  2**0
                  CONTENTS, READONLY, DEBUGGING, OCTETS
 13 .debug_abbrev 00002929  00000000  00000000  00016041  2**0
                  CONTENTS, READONLY, DEBUGGING, OCTETS
 14 .debug_aranges 00000dc0  00000000  00000000  00018970  2**3
                  CONTENTS, READONLY, DEBUGGING, OCTETS
 15 .debug_rnglists 00000a48  00000000  00000000  00019730  2**0
                  CONTENTS, READONLY, DEBUGGING, OCTETS
 16 .debug_macro  000051f0  00000000  00000000  0001a178  2**0
                  CONTENTS, READONLY, DEBUGGING, OCTETS
 17 .debug_line   0001017e  00000000  00000000  0001f368  2**0
                  CONTENTS, READONLY, DEBUGGING, OCTETS
 18 .debug_str    0008f793  00000000  00000000  0002f4e6  2**0
                  CONTENTS, READONLY, DEBUGGING, OCTETS
 19 .comment      00000043  00000000  00000000  000bec79  2**0
                  CONTENTS, READONLY
 20 .debug_frame  00004124  00000000  00000000  000becbc  2**2
                  CONTENTS, READONLY, DEBUGGING, OCTETS
 21 .debug_line_str 00000080  00000000  00000000  000c2de0  2**0
                  CONTENTS, READONLY, DEBUGGING, OCTETS

Disassembly of section .text:

080000c0 <__do_global_dtors_aux>:
 80000c0:	b510      	push	{r4, lr}
 80000c2:	4c06      	ldr	r4, [pc, #24]	@ (80000dc <__do_global_dtors_aux+0x1c>)
 80000c4:	7823      	ldrb	r3, [r4, #0]
 80000c6:	2b00      	cmp	r3, #0
 80000c8:	d107      	bne.n	80000da <__do_global_dtors_aux+0x1a>
 80000ca:	4b05      	ldr	r3, [pc, #20]	@ (80000e0 <__do_global_dtors_aux+0x20>)
 80000cc:	2b00      	cmp	r3, #0
 80000ce:	d002      	beq.n	80000d6 <__do_global_dtors_aux+0x16>
 80000d0:	4804      	ldr	r0, [pc, #16]	@ (80000e4 <__do_global_dtors_aux+0x24>)
 80000d2:	e000      	b.n	80000d6 <__do_global_dtors_aux+0x16>
 80000d4:	bf00      	nop
 80000d6:	2301      	movs	r3, #1
 80000d8:	7023      	strb	r3, [r4, #0]
 80000da:	bd10      	pop	{r4, pc}
 80000dc:	200001d4 	.word	0x200001d4
 80000e0:	00000000 	.word	0x00000000
 80000e4:	0800809c 	.word	0x0800809c

080000e8 <frame_dummy>:
 80000e8:	4b04      	ldr	r3, [pc, #16]	@ (80000fc <frame_dummy+0x14>)
 80000ea:	b510      	push	{r4, lr}
 80000ec:	2b00      	cmp	r3, #0
 80000ee:	d003      	beq.n	80000f8 <frame_dummy+0x10>
 80000f0:	4903      	ldr	r1, [pc, #12]	@ (8000100 <frame_dummy+0x18>)
 80000f2:	4804      	ldr	r0, [pc, #16]	@ (8000104 <frame_dummy+0x1c>)
 80000f4:	e000      	b.n	80000f8 <frame_dummy+0x10>
 80000f6:	bf00      	nop
 80000f8:	bd10      	pop	{r4, pc}
 80000fa:	46c0      	nop			@ (mov r8, r8)
 80000fc:	00000000 	.word	0x00000000
 8000100:	200001d8 	.word	0x200001d8
 8000104:	0800809c 	.word	0x0800809c

08000108 <strlen>:
 8000108:	2300      	movs	r3, #0
 800010a:	5cc2      	ldrb	r2, [r0, r3]
 800010c:	3301      	adds	r3, #1
 800010e:	2a00      	cmp	r2, #0
 8000110:	d1fb      	bne.n	800010a <strlen+0x2>
 8000112:	1e58      	subs	r0, r3, #1
 8000114:	4770      	bx	lr
	...

08000118 <__gnu_thumb1_case_uqi>:
 8000118:	b402      	push	{r1}
 800011a:	4671      	mov	r1, lr
 800011c:	0849      	lsrs	r1, r1, #1
 800011e:	0049      	lsls	r1, r1, #1
 8000120:	5c09      	ldrb	r1, [r1, r0]
 8000122:	0049      	lsls	r1, r1, #1
 8000124:	448e      	add	lr, r1
 8000126:	bc02      	pop	{r1}
 8000128:	4770      	bx	lr
 800012a:	46c0      	nop			@ (mov r8, r8)

0800012c <__gnu_thumb1_case_shi>:
 800012c:	b403      	push	{r0, r1}
 800012e:	4671      	mov	r1, lr
 8000130:	0849      	lsrs	r1, r1, #1
 8000132:	0040      	lsls	r0, r0, #1
 8000134:	0049      	lsls	r1, r1, #1
 8000136:	5e09      	ldrsh	r1, [r1, r0]
 8000138:	0049      	lsls	r1, r1, #1
 800013a:	448e      	add	lr, r1
 800013c:	bc03      	pop	{r0, r1}
 800013e:	4770      	bx	lr

08000140 <__udivsi3>:
 8000140:	2200      	movs	r2, #0
 8000142:	0843      	lsrs	r3, r0, #1
 8000144:	428b      	cmp	r3, r1
 8000146:	d374      	bcc.n	8000232 <__udivsi3+0xf2>
 8000148:	0903      	lsrs	r3, r0, #4
 800014a:	428b      	cmp	r3, r1
 800014c:	d35f      	bcc.n	800020e <__udivsi3+0xce>
 800014e:	0a03      	lsrs	r3, r0, #8
 8000150:	428b      	cmp	r3, r1
 8000152:	d344      	bcc.n	80001de <__udivsi3+0x9e>
 8000154:	0b03      	lsrs	r3, r0, #12
 8000156:	428b      	cmp	r3, r1
 8000158:	d328      	bcc.n	80001ac <__udivsi3+0x6c>
 800015a:	0c03      	lsrs	r3, r0, #16
 800015c:	428b      	cmp	r3, r1
 800015e:	d30d      	bcc.n	800017c <__udivsi3+0x3c>
 8000160:	22ff      	movs	r2, #255	@ 0xff
 8000162:	0209      	lsls	r1, r1, #8
 8000164:	ba12      	rev	r2, r2
 8000166:	0c03      	lsrs	r3, r0, #16
 8000168:	428b      	cmp	r3, r1
 800016a:	d302      	bcc.n	8000172 <__udivsi3+0x32>
 800016c:	1212      	asrs	r2, r2, #8
 800016e:	0209      	lsls	r1, r1, #8
 8000170:	d065      	beq.n	800023e <__udivsi3+0xfe>
 8000172:	0b03      	lsrs	r3, r0, #12
 8000174:	428b      	cmp	r3, r1
 8000176:	d319      	bcc.n	80001ac <__udivsi3+0x6c>
 8000178:	e000      	b.n	800017c <__udivsi3+0x3c>
 800017a:	0a09      	lsrs	r1, r1, #8
 800017c:	0bc3      	lsrs	r3, r0, #15
 800017e:	428b      	cmp	r3, r1
 8000180:	d301      	bcc.n	8000186 <__udivsi3+0x46>
 8000182:	03cb      	lsls	r3, r1, #15
 8000184:	1ac0      	subs	r0, r0, r3
 8000186:	4152      	adcs	r2, r2
 8000188:	0b83      	lsrs	r3, r0, #14
 800018a:	428b      	cmp	r3, r1
 800018c:	d301      	bcc.n	8000192 <__udivsi3+0x52>
 800018e:	038b      	lsls	r3, r1, #14
 8000190:	1ac0      	subs	r0, r0, r3
 8000192:	4152      	adcs	r2, r2
 8000194:	0b43      	lsrs	r3, r0, #13
 8000196:	428b      	cmp	r3, r1
 8000198:	d301      	bcc.n	800019e <__udivsi3+0x5e>
 800019a:	034b      	lsls	r3, r1, #13
 800019c:	1ac0      	subs	r0, r0, r3
 800019e:	4152      	adcs	r2, r2
 80001a0:	0b03      	lsrs	r3, r0, #12
 80001a2:	428b      	cmp	r3, r1
 80001a4:	d301      	bcc.n	80001aa <__udivsi3+0x6a>
 80001a6:	030b      	lsls	r3, r1, #12
 80001a8:	1ac0      	subs	r0, r0, r3
 80001aa:	4152      	adcs	r2, r2
 80001ac:	0ac3      	lsrs	r3, r0, #11
 80001ae:	428b      	cmp	r3, r1
 80001b0:	d301      	bcc.n	80001b6 <__udivsi3+0x76>
 80001b2:	02cb      	lsls	r3, r1, #11
 80001b4:	1ac0      	subs	r0, r0, r3
 80001b6:	4152      	adcs	r2, r2
 80001b8:	0a83      	lsrs	r3, r0, #10
 80001ba:	428b      	cmp	r3, r1
 80001bc:	d301      	bcc.n	80001c2 <__udivsi3+0x82>
 80001be:	028b      	lsls	r3, r1, #10
 80001c0:	1ac0      	subs	r0, r0, r3
 80001c2:	4152      	adcs	r2, r2
 80001c4:	0a43      	lsrs	r3, r0, #9
 80001c6:	428b      	cmp	r3, r1
 80001c8:	d301      	bcc.n	80001ce <__udivsi3+0x8e>
 80001ca:	024b      	lsls	r3, r1, #9
 80001cc:	1ac0      	subs	r0, r0, r3
 80001ce:	4152      	adcs	r2, r2
 80001d0:	0a03      	lsrs	r3, r0, #8
 80001d2:	428b      	cmp	r3, r1
 80001d4:	d301      	bcc.n	80001da <__udivsi3+0x9a>
 80001d6:	020b      	lsls	r3, r1, #8
 80001d8:	1ac0      	subs	r0, r0, r3
 80001da:	4152      	adcs	r2, r2
 80001dc:	d2cd      	bcs.n	800017a <__udivsi3+0x3a>
 80001de:	09c3      	lsrs	r3, r0, #7
 80001e0:	428b      	cmp	r3, r1
 80001e2:	d301      	bcc.n	80001e8 <__udivsi3+0xa8>
 80001e4:	01cb      	lsls	r3, r1, #7
 80001e6:	1ac0      	subs	r0, r0, r3
 80001e8:	4152      	adcs	r2, r2
 80001ea:	0983      	lsrs	r3, r0, #6
 80001ec:	428b      	cmp	r3, r1
 80001ee:	d301      	bcc.n	80001f4 <__udivsi3+0xb4>
 80001f0:	018b      	lsls	r3, r1, #6
 80001f2:	1ac0      	subs	r0, r0, r3
 80001f4:	4152      	adcs	r2, r2
 80001f6:	0943      	lsrs	r3, r0, #5
 80001f8:	428b      	cmp	r3, r1
 80001fa:	d301      	bcc.n	8000200 <__udivsi3+0xc0>
 80001fc:	014b      	lsls	r3, r1, #5
 80001fe:	1ac0      	subs	r0, r0, r3
 8000200:	4152      	adcs	r2, r2
 8000202:	0903      	lsrs	r3, r0, #4
 8000204:	428b      	cmp	r3, r1
 8000206:	d301      	bcc.n	800020c <__udivsi3+0xcc>
 8000208:	010b      	lsls	r3, r1, #4
 800020a:	1ac0      	subs	r0, r0, r3
 800020c:	4152      	adcs	r2, r2
 800020e:	08c3      	lsrs	r3, r0, #3
 8000210:	428b      	cmp	r3, r1
 8000212:	d301      	bcc.n	8000218 <__udivsi3+0xd8>
 8000214:	00cb      	lsls	r3, r1, #3
 8000216:	1ac0      	subs	r0, r0, r3
 8000218:	4152      	adcs	r2, r2
 800021a:	0883      	lsrs	r3, r0, #2
 800021c:	428b      	cmp	r3, r1
 800021e:	d301      	bcc.n	8000224 <__udivsi3+0xe4>
 8000220:	008b      	lsls	r3, r1, #2
 8000222:	1ac0      	subs	r0, r0, r3
 8000224:	4152      	adcs	r2, r2
 8000226:	0843      	lsrs	r3, r0, #1
 8000228:	428b      	cmp	r3, r1
 800022a:	d301      	bcc.n	8000230 <__udivsi3+0xf0>
 800022c:	004b      	lsls	r3, r1, #1
 800022e:	1ac0      	subs	r0, r0, r3
 8000230:	4152      	adcs	r2, r2
 8000232:	1a41      	subs	r1, r0, r1
 8000234:	d200      	bcs.n	8000238 <__udivsi3+0xf8>
 8000236:	4601      	mov	r1, r0
 8000238:	4152      	adcs	r2, r2
 800023a:	4610      	mov	r0, r2
 800023c:	4770      	bx	lr
 800023e:	e7ff      	b.n	8000240 <__udivsi3+0x100>
 8000240:	b501      	push	{r0, lr}
 8000242:	2000      	movs	r0, #0
 8000244:	f000 f8f0 	bl	8000428 <__aeabi_idiv0>
 8000248:	bd02      	pop	{r1, pc}
 800024a:	46c0      	nop			@ (mov r8, r8)

0800024c <__aeabi_uidivmod>:
 800024c:	2900      	cmp	r1, #0
 800024e:	d0f7      	beq.n	8000240 <__udivsi3+0x100>
 8000250:	e776      	b.n	8000140 <__udivsi3>
 8000252:	4770      	bx	lr

08000254 <__divsi3>:
 8000254:	4603      	mov	r3, r0
 8000256:	430b      	orrs	r3, r1
 8000258:	d47f      	bmi.n	800035a <__divsi3+0x106>
 800025a:	2200      	movs	r2, #0
 800025c:	0843      	lsrs	r3, r0, #1
 800025e:	428b      	cmp	r3, r1
 8000260:	d374      	bcc.n	800034c <__divsi3+0xf8>
 8000262:	0903      	lsrs	r3, r0, #4
 8000264:	428b      	cmp	r3, r1
 8000266:	d35f      	bcc.n	8000328 <__divsi3+0xd4>
 8000268:	0a03      	lsrs	r3, r0, #8
 800026a:	428b      	cmp	r3, r1
 800026c:	d344      	bcc.n	80002f8 <__divsi3+0xa4>
 800026e:	0b03      	lsrs	r3, r0, #12
 8000270:	428b      	cmp	r3, r1
 8000272:	d328      	bcc.n	80002c6 <__divsi3+0x72>
 8000274:	0c03      	lsrs	r3, r0, #16
 8000276:	428b      	cmp	r3, r1
 8000278:	d30d      	bcc.n	8000296 <__divsi3+0x42>
 800027a:	22ff      	movs	r2, #255	@ 0xff
 800027c:	0209      	lsls	r1, r1, #8
 800027e:	ba12      	rev	r2, r2
 8000280:	0c03      	lsrs	r3, r0, #16
 8000282:	428b      	cmp	r3, r1
 8000284:	d302      	bcc.n	800028c <__divsi3+0x38>
 8000286:	1212      	asrs	r2, r2, #8
 8000288:	0209      	lsls	r1, r1, #8
 800028a:	d065      	beq.n	8000358 <__divsi3+0x104>
 800028c:	0b03      	lsrs	r3, r0, #12
 800028e:	428b      	cmp	r3, r1
 8000290:	d319      	bcc.n	80002c6 <__divsi3+0x72>
 8000292:	e000      	b.n	8000296 <__divsi3+0x42>
 8000294:	0a09      	lsrs	r1, r1, #8
 8000296:	0bc3      	lsrs	r3, r0, #15
 8000298:	428b      	cmp	r3, r1
 800029a:	d301      	bcc.n	80002a0 <__divsi3+0x4c>
 800029c:	03cb      	lsls	r3, r1, #15
 800029e:	1ac0      	subs	r0, r0, r3
 80002a0:	4152      	adcs	r2, r2
 80002a2:	0b83      	lsrs	r3, r0, #14
 80002a4:	428b      	cmp	r3, r1
 80002a6:	d301      	bcc.n	80002ac <__divsi3+0x58>
 80002a8:	038b      	lsls	r3, r1, #14
 80002aa:	1ac0      	subs	r0, r0, r3
 80002ac:	4152      	adcs	r2, r2
 80002ae:	0b43      	lsrs	r3, r0, #13
 80002b0:	428b      	cmp	r3, r1
 80002b2:	d301      	bcc.n	80002b8 <__divsi3+0x64>
 80002b4:	034b      	lsls	r3, r1, #13
 80002b6:	1ac0      	subs	r0, r0, r3
 80002b8:	4152      	adcs	r2, r2
 80002ba:	0b03      	lsrs	r3, r0, #12
 80002bc:	428b      	cmp	r3, r1
 80002be:	d301      	bcc.n	80002c4 <__divsi3+0x70>
 80002c0:	030b      	lsls	r3, r1, #12
 80002c2:	1ac0      	subs	r0, r0, r3
 80002c4:	4152      	adcs	r2, r2
 80002c6:	0ac3      	lsrs	r3, r0, #11
 80002c8:	428b      	cmp	r3, r1
 80002ca:	d301      	bcc.n	80002d0 <__divsi3+0x7c>
 80002cc:	02cb      	lsls	r3, r1, #11
 80002ce:	1ac0      	subs	r0, r0, r3
 80002d0:	4152      	adcs	r2, r2
 80002d2:	0a83      	lsrs	r3, r0, #10
 80002d4:	428b      	cmp	r3, r1
 80002d6:	d301      	bcc.n	80002dc <__divsi3+0x88>
 80002d8:	028b      	lsls	r3, r1, #10
 80002da:	1ac0      	subs	r0, r0, r3
 80002dc:	4152      	adcs	r2, r2
 80002de:	0a43      	lsrs	r3, r0, #9
 80002e0:	428b      	cmp	r3, r1
 80002e2:	d301      	bcc.n	80002e8 <__divsi3+0x94>
 80002e4:	024b      	lsls	r3, r1, #9
 80002e6:	1ac0      	subs	r0, r0, r3
 80002e8:	4152      	adcs	r2, r2
 80002ea:	0a03      	lsrs	r3, r0, #8
 80002ec:	428b      	cmp	r3, r1
 80002ee:	d301      	bcc.n	80002f4 <__divsi3+0xa0>
 80002f0:	020b      	lsls	r3, r1, #8
 80002f2:	1ac0      	subs	r0, r0, r3
 80002f4:	4152      	adcs	r2, r2
 80002f6:	d2cd      	bcs.n	8000294 <__divsi3+0x40>
 80002f8:	09c3      	lsrs	r3, r0, #7
 80002fa:	428b      	cmp	r3, r1
 80002fc:	d301      	bcc.n	8000302 <__divsi3+0xae>
 80002fe:	01cb      	lsls	r3, r1, #7
 8000300:	1ac0      	subs	r0, r0, r3
 8000302:	4152      	adcs	r2, r2
 8000304:	0983      	lsrs	r3, r0, #6
 8000306:	428b      	cmp	r3, r1
 8000308:	d301      	bcc.n	800030e <__divsi3+0xba>
 800030a:	018b      	lsls	r3, r1, #6
 800030c:	1ac0      	subs	r0, r0, r3
 800030e:	4152      	adcs	r2, r2
 8000310:	0943      	lsrs	r3, r0, #5
 8000312:	428b      	cmp	r3, r1
 8000314:	d301      	bcc.n	800031a <__divsi3+0xc6>
 8000316:	014b      	lsls	r3, r1, #5
 8000318:	1ac0      	subs	r0, r0, r3
 800031a:	4152      	adcs	r2, r2
 800031c:	0903      	lsrs	r3, r0, #4
 800031e:	428b      	cmp	r3, r1
 8000320:	d301      	bcc.n	8000326 <__divsi3+0xd2>
 8000322:	010b      	lsls	r3, r1, #4
 8000324:	1ac0      	subs	r0, r0, r3
 8000326:	4152      	adcs	r2, r2
 8000328:	08c3      	lsrs	r3, r0, #3
 800032a:	428b      	cmp	r3, r1
 800032c:	d301      	bcc.n	8000332 <__divsi3+0xde>
 800032e:	00cb      	lsls	r3, r1, #3
 8000330:	1ac0      	subs	r0, r0, r3
 8000332:	4152      	adcs	r2, r2
 8000334:	0883      	lsrs	r3, r0, #2
 8000336:	428b      	cmp	r3, r1
 8000338:	d301      	bcc.n	800033e <__divsi3+0xea>
 800033a:	008b      	lsls	r3, r1, #2
 800033c:	1ac0      	subs	r0, r0, r3
 800033e:	4152      	adcs	r2, r2
 8000340:	0843      	lsrs	r3, r0, #1
 8000342:	428b      	cmp	r3, r1
 8000344:	d301      	bcc.n	800034a <__divsi3+0xf6>
 8000346:	004b      	lsls	r3, r1, #1
 8000348:	1ac0      	subs	r0, r0, r3
 800034a:	4152      	adcs	r2, r2
 800034c:	1a41      	subs	r1, r0, r1
 800034e:	d200      	bcs.n	8000352 <__divsi3+0xfe>
 8000350:	4601      	mov	r1, r0
 8000352:	4152      	adcs	r2, r2
 8000354:	4610      	mov	r0, r2
 8000356:	4770      	bx	lr
 8000358:	e05d      	b.n	8000416 <__divsi3+0x1c2>
 800035a:	0fca      	lsrs	r2, r1, #31
 800035c:	d000      	beq.n	8000360 <__divsi3+0x10c>
 800035e:	4249      	negs	r1, r1
 8000360:	1003      	asrs	r3, r0, #32
 8000362:	d300      	bcc.n	8000366 <__divsi3+0x112>
 8000364:	4240      	negs	r0, r0
 8000366:	4053      	eors	r3, r2
 8000368:	2200      	movs	r2, #0
 800036a:	469c      	mov	ip, r3
 800036c:	0903      	lsrs	r3, r0, #4
 800036e:	428b      	cmp	r3, r1
 8000370:	d32d      	bcc.n	80003ce <__divsi3+0x17a>
 8000372:	0a03      	lsrs	r3, r0, #8
 8000374:	428b      	cmp	r3, r1
 8000376:	d312      	bcc.n	800039e <__divsi3+0x14a>
 8000378:	22fc      	movs	r2, #252	@ 0xfc
 800037a:	0189      	lsls	r1, r1, #6
 800037c:	ba12      	rev	r2, r2
 800037e:	0a03      	lsrs	r3, r0, #8
 8000380:	428b      	cmp	r3, r1
 8000382:	d30c      	bcc.n	800039e <__divsi3+0x14a>
 8000384:	0189      	lsls	r1, r1, #6
 8000386:	1192      	asrs	r2, r2, #6
 8000388:	428b      	cmp	r3, r1
 800038a:	d308      	bcc.n	800039e <__divsi3+0x14a>
 800038c:	0189      	lsls	r1, r1, #6
 800038e:	1192      	asrs	r2, r2, #6
 8000390:	428b      	cmp	r3, r1
 8000392:	d304      	bcc.n	800039e <__divsi3+0x14a>
 8000394:	0189      	lsls	r1, r1, #6
 8000396:	d03a      	beq.n	800040e <__divsi3+0x1ba>
 8000398:	1192      	asrs	r2, r2, #6
 800039a:	e000      	b.n	800039e <__divsi3+0x14a>
 800039c:	0989      	lsrs	r1, r1, #6
 800039e:	09c3      	lsrs	r3, r0, #7
 80003a0:	428b      	cmp	r3, r1
 80003a2:	d301      	bcc.n	80003a8 <__divsi3+0x154>
 80003a4:	01cb      	lsls	r3, r1, #7
 80003a6:	1ac0      	subs	r0, r0, r3
 80003a8:	4152      	adcs	r2, r2
 80003aa:	0983      	lsrs	r3, r0, #6
 80003ac:	428b      	cmp	r3, r1
 80003ae:	d301      	bcc.n	80003b4 <__divsi3+0x160>
 80003b0:	018b      	lsls	r3, r1, #6
 80003b2:	1ac0      	subs	r0, r0, r3
 80003b4:	4152      	adcs	r2, r2
 80003b6:	0943      	lsrs	r3, r0, #5
 80003b8:	428b      	cmp	r3, r1
 80003ba:	d301      	bcc.n	80003c0 <__divsi3+0x16c>
 80003bc:	014b      	lsls	r3, r1, #5
 80003be:	1ac0      	subs	r0, r0, r3
 80003c0:	4152      	adcs	r2, r2
 80003c2:	0903      	lsrs	r3, r0, #4
 80003c4:	428b      	cmp	r3, r1
 80003c6:	d301      	bcc.n	80003cc <__divsi3+0x178>
 80003c8:	010b      	lsls	r3, r1, #4
 80003ca:	1ac0      	subs	r0, r0, r3
 80003cc:	4152      	adcs	r2, r2
 80003ce:	08c3      	lsrs	r3, r0, #3
 80003d0:	428b      	cmp	r3, r1
 80003d2:	d301      	bcc.n	80003d8 <__divsi3+0x184>
 80003d4:	00cb      	lsls	r3, r1, #3
 80003d6:	1ac0      	subs	r0, r0, r3
 80003d8:	4152      	adcs	r2, r2
 80003da:	0883      	lsrs	r3, r0, #2
 80003dc:	428b      	cmp	r3, r1
 80003de:	d301      	bcc.n	80003e4 <__divsi3+0x190>
 80003e0:	008b      	lsls	r3, r1, #2
 80003e2:	1ac0      	subs	r0, r0, r3
 80003e4:	4152      	adcs	r2, r2
 80003e6:	d2d9      	bcs.n	800039c <__divsi3+0x148>
 80003e8:	0843      	lsrs	r3, r0, #1
 80003ea:	428b      	cmp	r3, r1
 80003ec:	d301      	bcc.n	80003f2 <__divsi3+0x19e>
 80003ee:	004b      	lsls	r3, r1, #1
 80003f0:	1ac0      	subs	r0, r0, r3
 80003f2:	4152      	adcs	r2, r2
 80003f4:	1a41      	subs	r1, r0, r1
 80003f6:	d200      	bcs.n	80003fa <__divsi3+0x1a6>
 80003f8:	4601      	mov	r1, r0
 80003fa:	4663      	mov	r3, ip
 80003fc:	4152      	adcs	r2, r2
 80003fe:	105b      	asrs	r3, r3, #1
 8000400:	4610      	mov	r0, r2
 8000402:	d301      	bcc.n	8000408 <__divsi3+0x1b4>
 8000404:	4240      	negs	r0, r0
 8000406:	2b00      	cmp	r3, #0
 8000408:	d500      	bpl.n	800040c <__divsi3+0x1b8>
 800040a:	4249      	negs	r1, r1
 800040c:	4770      	bx	lr
 800040e:	4663      	mov	r3, ip
 8000410:	105b      	asrs	r3, r3, #1
 8000412:	d300      	bcc.n	8000416 <__divsi3+0x1c2>
 8000414:	4240      	negs	r0, r0
 8000416:	b501      	push	{r0, lr}
 8000418:	2000      	movs	r0, #0
 800041a:	f000 f805 	bl	8000428 <__aeabi_idiv0>
 800041e:	bd02      	pop	{r1, pc}

08000420 <__aeabi_idivmod>:
 8000420:	2900      	cmp	r1, #0
 8000422:	d0f8      	beq.n	8000416 <__divsi3+0x1c2>
 8000424:	e716      	b.n	8000254 <__divsi3>
 8000426:	4770      	bx	lr

08000428 <__aeabi_idiv0>:
 8000428:	4770      	bx	lr
 800042a:	46c0      	nop			@ (mov r8, r8)

0800042c <__aeabi_cdrcmple>:
 800042c:	4684      	mov	ip, r0
 800042e:	0010      	movs	r0, r2
 8000430:	4662      	mov	r2, ip
 8000432:	468c      	mov	ip, r1
 8000434:	0019      	movs	r1, r3
 8000436:	4663      	mov	r3, ip
 8000438:	e000      	b.n	800043c <__aeabi_cdcmpeq>
 800043a:	46c0      	nop			@ (mov r8, r8)

0800043c <__aeabi_cdcmpeq>:
 800043c:	b51f      	push	{r0, r1, r2, r3, r4, lr}
 800043e:	f001 fa7b 	bl	8001938 <__ledf2>
 8000442:	2800      	cmp	r0, #0
 8000444:	d401      	bmi.n	800044a <__aeabi_cdcmpeq+0xe>
 8000446:	2100      	movs	r1, #0
 8000448:	42c8      	cmn	r0, r1
 800044a:	bd1f      	pop	{r0, r1, r2, r3, r4, pc}

0800044c <__aeabi_dcmpeq>:
 800044c:	b510      	push	{r4, lr}
 800044e:	f001 f9bf 	bl	80017d0 <__eqdf2>
 8000452:	4240      	negs	r0, r0
 8000454:	3001      	adds	r0, #1
 8000456:	bd10      	pop	{r4, pc}

08000458 <__aeabi_dcmplt>:
 8000458:	b510      	push	{r4, lr}
 800045a:	f001 fa6d 	bl	8001938 <__ledf2>
 800045e:	2800      	cmp	r0, #0
 8000460:	db01      	blt.n	8000466 <__aeabi_dcmplt+0xe>
 8000462:	2000      	movs	r0, #0
 8000464:	bd10      	pop	{r4, pc}
 8000466:	2001      	movs	r0, #1
 8000468:	bd10      	pop	{r4, pc}
 800046a:	46c0      	nop			@ (mov r8, r8)

0800046c <__aeabi_dcmple>:
 800046c:	b510      	push	{r4, lr}
 800046e:	f001 fa63 	bl	8001938 <__ledf2>
 8000472:	2800      	cmp	r0, #0
 8000474:	dd01      	ble.n	800047a <__aeabi_dcmple+0xe>
 8000476:	2000      	movs	r0, #0
 8000478:	bd10      	pop	{r4, pc}
 800047a:	2001      	movs	r0, #1
 800047c:	bd10      	pop	{r4, pc}
 800047e:	46c0      	nop			@ (mov r8, r8)

08000480 <__aeabi_dcmpgt>:
 8000480:	b510      	push	{r4, lr}
 8000482:	f001 f9e9 	bl	8001858 <__gedf2>
 8000486:	2800      	cmp	r0, #0
 8000488:	dc01      	bgt.n	800048e <__aeabi_dcmpgt+0xe>
 800048a:	2000      	movs	r0, #0
 800048c:	bd10      	pop	{r4, pc}
 800048e:	2001      	movs	r0, #1
 8000490:	bd10      	pop	{r4, pc}
 8000492:	46c0      	nop			@ (mov r8, r8)

08000494 <__aeabi_dcmpge>:
 8000494:	b510      	push	{r4, lr}
 8000496:	f001 f9df 	bl	8001858 <__gedf2>
 800049a:	2800      	cmp	r0, #0
 800049c:	da01      	bge.n	80004a2 <__aeabi_dcmpge+0xe>
 800049e:	2000      	movs	r0, #0
 80004a0:	bd10      	pop	{r4, pc}
 80004a2:	2001      	movs	r0, #1
 80004a4:	bd10      	pop	{r4, pc}
 80004a6:	46c0      	nop			@ (mov r8, r8)

080004a8 <__aeabi_fdiv>:
 80004a8:	b5f0      	push	{r4, r5, r6, r7, lr}
 80004aa:	4646      	mov	r6, r8
 80004ac:	464f      	mov	r7, r9
 80004ae:	46d6      	mov	lr, sl
 80004b0:	0245      	lsls	r5, r0, #9
 80004b2:	b5c0      	push	{r6, r7, lr}
 80004b4:	0fc3      	lsrs	r3, r0, #31
 80004b6:	0047      	lsls	r7, r0, #1
 80004b8:	4698      	mov	r8, r3
 80004ba:	1c0e      	adds	r6, r1, #0
 80004bc:	0a6d      	lsrs	r5, r5, #9
 80004be:	0e3f      	lsrs	r7, r7, #24
 80004c0:	d05b      	beq.n	800057a <__aeabi_fdiv+0xd2>
 80004c2:	2fff      	cmp	r7, #255	@ 0xff
 80004c4:	d021      	beq.n	800050a <__aeabi_fdiv+0x62>
 80004c6:	2380      	movs	r3, #128	@ 0x80
 80004c8:	00ed      	lsls	r5, r5, #3
 80004ca:	04db      	lsls	r3, r3, #19
 80004cc:	431d      	orrs	r5, r3
 80004ce:	2300      	movs	r3, #0
 80004d0:	4699      	mov	r9, r3
 80004d2:	469a      	mov	sl, r3
 80004d4:	3f7f      	subs	r7, #127	@ 0x7f
 80004d6:	0274      	lsls	r4, r6, #9
 80004d8:	0073      	lsls	r3, r6, #1
 80004da:	0a64      	lsrs	r4, r4, #9
 80004dc:	0e1b      	lsrs	r3, r3, #24
 80004de:	0ff6      	lsrs	r6, r6, #31
 80004e0:	2b00      	cmp	r3, #0
 80004e2:	d020      	beq.n	8000526 <__aeabi_fdiv+0x7e>
 80004e4:	2bff      	cmp	r3, #255	@ 0xff
 80004e6:	d043      	beq.n	8000570 <__aeabi_fdiv+0xc8>
 80004e8:	2280      	movs	r2, #128	@ 0x80
 80004ea:	2000      	movs	r0, #0
 80004ec:	00e4      	lsls	r4, r4, #3
 80004ee:	04d2      	lsls	r2, r2, #19
 80004f0:	4314      	orrs	r4, r2
 80004f2:	3b7f      	subs	r3, #127	@ 0x7f
 80004f4:	4642      	mov	r2, r8
 80004f6:	1aff      	subs	r7, r7, r3
 80004f8:	464b      	mov	r3, r9
 80004fa:	4072      	eors	r2, r6
 80004fc:	2b0f      	cmp	r3, #15
 80004fe:	d900      	bls.n	8000502 <__aeabi_fdiv+0x5a>
 8000500:	e09d      	b.n	800063e <__aeabi_fdiv+0x196>
 8000502:	4971      	ldr	r1, [pc, #452]	@ (80006c8 <__aeabi_fdiv+0x220>)
 8000504:	009b      	lsls	r3, r3, #2
 8000506:	58cb      	ldr	r3, [r1, r3]
 8000508:	469f      	mov	pc, r3
 800050a:	2d00      	cmp	r5, #0
 800050c:	d15a      	bne.n	80005c4 <__aeabi_fdiv+0x11c>
 800050e:	2308      	movs	r3, #8
 8000510:	4699      	mov	r9, r3
 8000512:	3b06      	subs	r3, #6
 8000514:	0274      	lsls	r4, r6, #9
 8000516:	469a      	mov	sl, r3
 8000518:	0073      	lsls	r3, r6, #1
 800051a:	27ff      	movs	r7, #255	@ 0xff
 800051c:	0a64      	lsrs	r4, r4, #9
 800051e:	0e1b      	lsrs	r3, r3, #24
 8000520:	0ff6      	lsrs	r6, r6, #31
 8000522:	2b00      	cmp	r3, #0
 8000524:	d1de      	bne.n	80004e4 <__aeabi_fdiv+0x3c>
 8000526:	2c00      	cmp	r4, #0
 8000528:	d13b      	bne.n	80005a2 <__aeabi_fdiv+0xfa>
 800052a:	2301      	movs	r3, #1
 800052c:	4642      	mov	r2, r8
 800052e:	4649      	mov	r1, r9
 8000530:	4072      	eors	r2, r6
 8000532:	4319      	orrs	r1, r3
 8000534:	290e      	cmp	r1, #14
 8000536:	d818      	bhi.n	800056a <__aeabi_fdiv+0xc2>
 8000538:	4864      	ldr	r0, [pc, #400]	@ (80006cc <__aeabi_fdiv+0x224>)
 800053a:	0089      	lsls	r1, r1, #2
 800053c:	5841      	ldr	r1, [r0, r1]
 800053e:	468f      	mov	pc, r1
 8000540:	4653      	mov	r3, sl
 8000542:	2b02      	cmp	r3, #2
 8000544:	d100      	bne.n	8000548 <__aeabi_fdiv+0xa0>
 8000546:	e0b8      	b.n	80006ba <__aeabi_fdiv+0x212>
 8000548:	2b03      	cmp	r3, #3
 800054a:	d06e      	beq.n	800062a <__aeabi_fdiv+0x182>
 800054c:	4642      	mov	r2, r8
 800054e:	002c      	movs	r4, r5
 8000550:	2b01      	cmp	r3, #1
 8000552:	d140      	bne.n	80005d6 <__aeabi_fdiv+0x12e>
 8000554:	2000      	movs	r0, #0
 8000556:	2400      	movs	r4, #0
 8000558:	05c0      	lsls	r0, r0, #23
 800055a:	4320      	orrs	r0, r4
 800055c:	07d2      	lsls	r2, r2, #31
 800055e:	4310      	orrs	r0, r2
 8000560:	bce0      	pop	{r5, r6, r7}
 8000562:	46ba      	mov	sl, r7
 8000564:	46b1      	mov	r9, r6
 8000566:	46a8      	mov	r8, r5
 8000568:	bdf0      	pop	{r4, r5, r6, r7, pc}
 800056a:	20ff      	movs	r0, #255	@ 0xff
 800056c:	2400      	movs	r4, #0
 800056e:	e7f3      	b.n	8000558 <__aeabi_fdiv+0xb0>
 8000570:	2c00      	cmp	r4, #0
 8000572:	d120      	bne.n	80005b6 <__aeabi_fdiv+0x10e>
 8000574:	2302      	movs	r3, #2
 8000576:	3fff      	subs	r7, #255	@ 0xff
 8000578:	e7d8      	b.n	800052c <__aeabi_fdiv+0x84>
 800057a:	2d00      	cmp	r5, #0
 800057c:	d105      	bne.n	800058a <__aeabi_fdiv+0xe2>
 800057e:	2304      	movs	r3, #4
 8000580:	4699      	mov	r9, r3
 8000582:	3b03      	subs	r3, #3
 8000584:	2700      	movs	r7, #0
 8000586:	469a      	mov	sl, r3
 8000588:	e7a5      	b.n	80004d6 <__aeabi_fdiv+0x2e>
 800058a:	0028      	movs	r0, r5
 800058c:	f002 fa2a 	bl	80029e4 <__clzsi2>
 8000590:	2776      	movs	r7, #118	@ 0x76
 8000592:	1f43      	subs	r3, r0, #5
 8000594:	409d      	lsls	r5, r3
 8000596:	2300      	movs	r3, #0
 8000598:	427f      	negs	r7, r7
 800059a:	4699      	mov	r9, r3
 800059c:	469a      	mov	sl, r3
 800059e:	1a3f      	subs	r7, r7, r0
 80005a0:	e799      	b.n	80004d6 <__aeabi_fdiv+0x2e>
 80005a2:	0020      	movs	r0, r4
 80005a4:	f002 fa1e 	bl	80029e4 <__clzsi2>
 80005a8:	1f43      	subs	r3, r0, #5
 80005aa:	409c      	lsls	r4, r3
 80005ac:	2376      	movs	r3, #118	@ 0x76
 80005ae:	425b      	negs	r3, r3
 80005b0:	1a1b      	subs	r3, r3, r0
 80005b2:	2000      	movs	r0, #0
 80005b4:	e79e      	b.n	80004f4 <__aeabi_fdiv+0x4c>
 80005b6:	2303      	movs	r3, #3
 80005b8:	464a      	mov	r2, r9
 80005ba:	431a      	orrs	r2, r3
 80005bc:	4691      	mov	r9, r2
 80005be:	2003      	movs	r0, #3
 80005c0:	33fc      	adds	r3, #252	@ 0xfc
 80005c2:	e797      	b.n	80004f4 <__aeabi_fdiv+0x4c>
 80005c4:	230c      	movs	r3, #12
 80005c6:	4699      	mov	r9, r3
 80005c8:	3b09      	subs	r3, #9
 80005ca:	27ff      	movs	r7, #255	@ 0xff
 80005cc:	469a      	mov	sl, r3
 80005ce:	e782      	b.n	80004d6 <__aeabi_fdiv+0x2e>
 80005d0:	2803      	cmp	r0, #3
 80005d2:	d02c      	beq.n	800062e <__aeabi_fdiv+0x186>
 80005d4:	0032      	movs	r2, r6
 80005d6:	0038      	movs	r0, r7
 80005d8:	307f      	adds	r0, #127	@ 0x7f
 80005da:	2800      	cmp	r0, #0
 80005dc:	dd47      	ble.n	800066e <__aeabi_fdiv+0x1c6>
 80005de:	0763      	lsls	r3, r4, #29
 80005e0:	d004      	beq.n	80005ec <__aeabi_fdiv+0x144>
 80005e2:	230f      	movs	r3, #15
 80005e4:	4023      	ands	r3, r4
 80005e6:	2b04      	cmp	r3, #4
 80005e8:	d000      	beq.n	80005ec <__aeabi_fdiv+0x144>
 80005ea:	3404      	adds	r4, #4
 80005ec:	0123      	lsls	r3, r4, #4
 80005ee:	d503      	bpl.n	80005f8 <__aeabi_fdiv+0x150>
 80005f0:	0038      	movs	r0, r7
 80005f2:	4b37      	ldr	r3, [pc, #220]	@ (80006d0 <__aeabi_fdiv+0x228>)
 80005f4:	3080      	adds	r0, #128	@ 0x80
 80005f6:	401c      	ands	r4, r3
 80005f8:	28fe      	cmp	r0, #254	@ 0xfe
 80005fa:	dcb6      	bgt.n	800056a <__aeabi_fdiv+0xc2>
 80005fc:	01a4      	lsls	r4, r4, #6
 80005fe:	0a64      	lsrs	r4, r4, #9
 8000600:	b2c0      	uxtb	r0, r0
 8000602:	e7a9      	b.n	8000558 <__aeabi_fdiv+0xb0>
 8000604:	2480      	movs	r4, #128	@ 0x80
 8000606:	2200      	movs	r2, #0
 8000608:	20ff      	movs	r0, #255	@ 0xff
 800060a:	03e4      	lsls	r4, r4, #15
 800060c:	e7a4      	b.n	8000558 <__aeabi_fdiv+0xb0>
 800060e:	2380      	movs	r3, #128	@ 0x80
 8000610:	03db      	lsls	r3, r3, #15
 8000612:	421d      	tst	r5, r3
 8000614:	d001      	beq.n	800061a <__aeabi_fdiv+0x172>
 8000616:	421c      	tst	r4, r3
 8000618:	d00b      	beq.n	8000632 <__aeabi_fdiv+0x18a>
 800061a:	2480      	movs	r4, #128	@ 0x80
 800061c:	03e4      	lsls	r4, r4, #15
 800061e:	432c      	orrs	r4, r5
 8000620:	0264      	lsls	r4, r4, #9
 8000622:	4642      	mov	r2, r8
 8000624:	20ff      	movs	r0, #255	@ 0xff
 8000626:	0a64      	lsrs	r4, r4, #9
 8000628:	e796      	b.n	8000558 <__aeabi_fdiv+0xb0>
 800062a:	4646      	mov	r6, r8
 800062c:	002c      	movs	r4, r5
 800062e:	2380      	movs	r3, #128	@ 0x80
 8000630:	03db      	lsls	r3, r3, #15
 8000632:	431c      	orrs	r4, r3
 8000634:	0264      	lsls	r4, r4, #9
 8000636:	0032      	movs	r2, r6
 8000638:	20ff      	movs	r0, #255	@ 0xff
 800063a:	0a64      	lsrs	r4, r4, #9
 800063c:	e78c      	b.n	8000558 <__aeabi_fdiv+0xb0>
 800063e:	016d      	lsls	r5, r5, #5
 8000640:	0160      	lsls	r0, r4, #5
 8000642:	4285      	cmp	r5, r0
 8000644:	d22d      	bcs.n	80006a2 <__aeabi_fdiv+0x1fa>
 8000646:	231b      	movs	r3, #27
 8000648:	2400      	movs	r4, #0
 800064a:	3f01      	subs	r7, #1
 800064c:	2601      	movs	r6, #1
 800064e:	0029      	movs	r1, r5
 8000650:	0064      	lsls	r4, r4, #1
 8000652:	006d      	lsls	r5, r5, #1
 8000654:	2900      	cmp	r1, #0
 8000656:	db01      	blt.n	800065c <__aeabi_fdiv+0x1b4>
 8000658:	4285      	cmp	r5, r0
 800065a:	d301      	bcc.n	8000660 <__aeabi_fdiv+0x1b8>
 800065c:	1a2d      	subs	r5, r5, r0
 800065e:	4334      	orrs	r4, r6
 8000660:	3b01      	subs	r3, #1
 8000662:	2b00      	cmp	r3, #0
 8000664:	d1f3      	bne.n	800064e <__aeabi_fdiv+0x1a6>
 8000666:	1e6b      	subs	r3, r5, #1
 8000668:	419d      	sbcs	r5, r3
 800066a:	432c      	orrs	r4, r5
 800066c:	e7b3      	b.n	80005d6 <__aeabi_fdiv+0x12e>
 800066e:	2301      	movs	r3, #1
 8000670:	1a1b      	subs	r3, r3, r0
 8000672:	2b1b      	cmp	r3, #27
 8000674:	dd00      	ble.n	8000678 <__aeabi_fdiv+0x1d0>
 8000676:	e76d      	b.n	8000554 <__aeabi_fdiv+0xac>
 8000678:	0021      	movs	r1, r4
 800067a:	379e      	adds	r7, #158	@ 0x9e
 800067c:	40d9      	lsrs	r1, r3
 800067e:	40bc      	lsls	r4, r7
 8000680:	000b      	movs	r3, r1
 8000682:	1e61      	subs	r1, r4, #1
 8000684:	418c      	sbcs	r4, r1
 8000686:	4323      	orrs	r3, r4
 8000688:	0759      	lsls	r1, r3, #29
 800068a:	d004      	beq.n	8000696 <__aeabi_fdiv+0x1ee>
 800068c:	210f      	movs	r1, #15
 800068e:	4019      	ands	r1, r3
 8000690:	2904      	cmp	r1, #4
 8000692:	d000      	beq.n	8000696 <__aeabi_fdiv+0x1ee>
 8000694:	3304      	adds	r3, #4
 8000696:	0159      	lsls	r1, r3, #5
 8000698:	d413      	bmi.n	80006c2 <__aeabi_fdiv+0x21a>
 800069a:	019b      	lsls	r3, r3, #6
 800069c:	2000      	movs	r0, #0
 800069e:	0a5c      	lsrs	r4, r3, #9
 80006a0:	e75a      	b.n	8000558 <__aeabi_fdiv+0xb0>
 80006a2:	231a      	movs	r3, #26
 80006a4:	2401      	movs	r4, #1
 80006a6:	1a2d      	subs	r5, r5, r0
 80006a8:	e7d0      	b.n	800064c <__aeabi_fdiv+0x1a4>
 80006aa:	1e98      	subs	r0, r3, #2
 80006ac:	4243      	negs	r3, r0
 80006ae:	4158      	adcs	r0, r3
 80006b0:	4240      	negs	r0, r0
 80006b2:	0032      	movs	r2, r6
 80006b4:	2400      	movs	r4, #0
 80006b6:	b2c0      	uxtb	r0, r0
 80006b8:	e74e      	b.n	8000558 <__aeabi_fdiv+0xb0>
 80006ba:	4642      	mov	r2, r8
 80006bc:	20ff      	movs	r0, #255	@ 0xff
 80006be:	2400      	movs	r4, #0
 80006c0:	e74a      	b.n	8000558 <__aeabi_fdiv+0xb0>
 80006c2:	2001      	movs	r0, #1
 80006c4:	2400      	movs	r4, #0
 80006c6:	e747      	b.n	8000558 <__aeabi_fdiv+0xb0>
 80006c8:	08008170 	.word	0x08008170
 80006cc:	080081b0 	.word	0x080081b0
 80006d0:	f7ffffff 	.word	0xf7ffffff

080006d4 <__aeabi_fmul>:
 80006d4:	b5f0      	push	{r4, r5, r6, r7, lr}
 80006d6:	464f      	mov	r7, r9
 80006d8:	4646      	mov	r6, r8
 80006da:	46d6      	mov	lr, sl
 80006dc:	0044      	lsls	r4, r0, #1
 80006de:	b5c0      	push	{r6, r7, lr}
 80006e0:	0246      	lsls	r6, r0, #9
 80006e2:	1c0f      	adds	r7, r1, #0
 80006e4:	0a76      	lsrs	r6, r6, #9
 80006e6:	0e24      	lsrs	r4, r4, #24
 80006e8:	0fc5      	lsrs	r5, r0, #31
 80006ea:	2c00      	cmp	r4, #0
 80006ec:	d100      	bne.n	80006f0 <__aeabi_fmul+0x1c>
 80006ee:	e0da      	b.n	80008a6 <__aeabi_fmul+0x1d2>
 80006f0:	2cff      	cmp	r4, #255	@ 0xff
 80006f2:	d074      	beq.n	80007de <__aeabi_fmul+0x10a>
 80006f4:	2380      	movs	r3, #128	@ 0x80
 80006f6:	00f6      	lsls	r6, r6, #3
 80006f8:	04db      	lsls	r3, r3, #19
 80006fa:	431e      	orrs	r6, r3
 80006fc:	2300      	movs	r3, #0
 80006fe:	4699      	mov	r9, r3
 8000700:	469a      	mov	sl, r3
 8000702:	3c7f      	subs	r4, #127	@ 0x7f
 8000704:	027b      	lsls	r3, r7, #9
 8000706:	0a5b      	lsrs	r3, r3, #9
 8000708:	4698      	mov	r8, r3
 800070a:	007b      	lsls	r3, r7, #1
 800070c:	0e1b      	lsrs	r3, r3, #24
 800070e:	0fff      	lsrs	r7, r7, #31
 8000710:	2b00      	cmp	r3, #0
 8000712:	d074      	beq.n	80007fe <__aeabi_fmul+0x12a>
 8000714:	2bff      	cmp	r3, #255	@ 0xff
 8000716:	d100      	bne.n	800071a <__aeabi_fmul+0x46>
 8000718:	e08e      	b.n	8000838 <__aeabi_fmul+0x164>
 800071a:	4642      	mov	r2, r8
 800071c:	2180      	movs	r1, #128	@ 0x80
 800071e:	00d2      	lsls	r2, r2, #3
 8000720:	04c9      	lsls	r1, r1, #19
 8000722:	4311      	orrs	r1, r2
 8000724:	3b7f      	subs	r3, #127	@ 0x7f
 8000726:	002a      	movs	r2, r5
 8000728:	18e4      	adds	r4, r4, r3
 800072a:	464b      	mov	r3, r9
 800072c:	407a      	eors	r2, r7
 800072e:	4688      	mov	r8, r1
 8000730:	b2d2      	uxtb	r2, r2
 8000732:	2b0a      	cmp	r3, #10
 8000734:	dc75      	bgt.n	8000822 <__aeabi_fmul+0x14e>
 8000736:	464b      	mov	r3, r9
 8000738:	2000      	movs	r0, #0
 800073a:	2b02      	cmp	r3, #2
 800073c:	dd0f      	ble.n	800075e <__aeabi_fmul+0x8a>
 800073e:	4649      	mov	r1, r9
 8000740:	2301      	movs	r3, #1
 8000742:	408b      	lsls	r3, r1
 8000744:	21a6      	movs	r1, #166	@ 0xa6
 8000746:	00c9      	lsls	r1, r1, #3
 8000748:	420b      	tst	r3, r1
 800074a:	d169      	bne.n	8000820 <__aeabi_fmul+0x14c>
 800074c:	2190      	movs	r1, #144	@ 0x90
 800074e:	0089      	lsls	r1, r1, #2
 8000750:	420b      	tst	r3, r1
 8000752:	d000      	beq.n	8000756 <__aeabi_fmul+0x82>
 8000754:	e100      	b.n	8000958 <__aeabi_fmul+0x284>
 8000756:	2188      	movs	r1, #136	@ 0x88
 8000758:	4219      	tst	r1, r3
 800075a:	d000      	beq.n	800075e <__aeabi_fmul+0x8a>
 800075c:	e0f5      	b.n	800094a <__aeabi_fmul+0x276>
 800075e:	4641      	mov	r1, r8
 8000760:	0409      	lsls	r1, r1, #16
 8000762:	0c09      	lsrs	r1, r1, #16
 8000764:	4643      	mov	r3, r8
 8000766:	0008      	movs	r0, r1
 8000768:	0c35      	lsrs	r5, r6, #16
 800076a:	0436      	lsls	r6, r6, #16
 800076c:	0c1b      	lsrs	r3, r3, #16
 800076e:	0c36      	lsrs	r6, r6, #16
 8000770:	4370      	muls	r0, r6
 8000772:	4369      	muls	r1, r5
 8000774:	435e      	muls	r6, r3
 8000776:	435d      	muls	r5, r3
 8000778:	1876      	adds	r6, r6, r1
 800077a:	0c03      	lsrs	r3, r0, #16
 800077c:	199b      	adds	r3, r3, r6
 800077e:	4299      	cmp	r1, r3
 8000780:	d903      	bls.n	800078a <__aeabi_fmul+0xb6>
 8000782:	2180      	movs	r1, #128	@ 0x80
 8000784:	0249      	lsls	r1, r1, #9
 8000786:	468c      	mov	ip, r1
 8000788:	4465      	add	r5, ip
 800078a:	0400      	lsls	r0, r0, #16
 800078c:	0419      	lsls	r1, r3, #16
 800078e:	0c00      	lsrs	r0, r0, #16
 8000790:	1809      	adds	r1, r1, r0
 8000792:	018e      	lsls	r6, r1, #6
 8000794:	1e70      	subs	r0, r6, #1
 8000796:	4186      	sbcs	r6, r0
 8000798:	0c1b      	lsrs	r3, r3, #16
 800079a:	0e89      	lsrs	r1, r1, #26
 800079c:	195b      	adds	r3, r3, r5
 800079e:	430e      	orrs	r6, r1
 80007a0:	019b      	lsls	r3, r3, #6
 80007a2:	431e      	orrs	r6, r3
 80007a4:	011b      	lsls	r3, r3, #4
 80007a6:	d46c      	bmi.n	8000882 <__aeabi_fmul+0x1ae>
 80007a8:	0023      	movs	r3, r4
 80007aa:	337f      	adds	r3, #127	@ 0x7f
 80007ac:	2b00      	cmp	r3, #0
 80007ae:	dc00      	bgt.n	80007b2 <__aeabi_fmul+0xde>
 80007b0:	e0b1      	b.n	8000916 <__aeabi_fmul+0x242>
 80007b2:	0015      	movs	r5, r2
 80007b4:	0771      	lsls	r1, r6, #29
 80007b6:	d00b      	beq.n	80007d0 <__aeabi_fmul+0xfc>
 80007b8:	200f      	movs	r0, #15
 80007ba:	0021      	movs	r1, r4
 80007bc:	4030      	ands	r0, r6
 80007be:	2804      	cmp	r0, #4
 80007c0:	d006      	beq.n	80007d0 <__aeabi_fmul+0xfc>
 80007c2:	3604      	adds	r6, #4
 80007c4:	0132      	lsls	r2, r6, #4
 80007c6:	d503      	bpl.n	80007d0 <__aeabi_fmul+0xfc>
 80007c8:	4b6e      	ldr	r3, [pc, #440]	@ (8000984 <__aeabi_fmul+0x2b0>)
 80007ca:	401e      	ands	r6, r3
 80007cc:	000b      	movs	r3, r1
 80007ce:	3380      	adds	r3, #128	@ 0x80
 80007d0:	2bfe      	cmp	r3, #254	@ 0xfe
 80007d2:	dd00      	ble.n	80007d6 <__aeabi_fmul+0x102>
 80007d4:	e0bd      	b.n	8000952 <__aeabi_fmul+0x27e>
 80007d6:	01b2      	lsls	r2, r6, #6
 80007d8:	0a52      	lsrs	r2, r2, #9
 80007da:	b2db      	uxtb	r3, r3
 80007dc:	e048      	b.n	8000870 <__aeabi_fmul+0x19c>
 80007de:	2e00      	cmp	r6, #0
 80007e0:	d000      	beq.n	80007e4 <__aeabi_fmul+0x110>
 80007e2:	e092      	b.n	800090a <__aeabi_fmul+0x236>
 80007e4:	2308      	movs	r3, #8
 80007e6:	4699      	mov	r9, r3
 80007e8:	3b06      	subs	r3, #6
 80007ea:	469a      	mov	sl, r3
 80007ec:	027b      	lsls	r3, r7, #9
 80007ee:	0a5b      	lsrs	r3, r3, #9
 80007f0:	4698      	mov	r8, r3
 80007f2:	007b      	lsls	r3, r7, #1
 80007f4:	24ff      	movs	r4, #255	@ 0xff
 80007f6:	0e1b      	lsrs	r3, r3, #24
 80007f8:	0fff      	lsrs	r7, r7, #31
 80007fa:	2b00      	cmp	r3, #0
 80007fc:	d18a      	bne.n	8000714 <__aeabi_fmul+0x40>
 80007fe:	4642      	mov	r2, r8
 8000800:	2a00      	cmp	r2, #0
 8000802:	d164      	bne.n	80008ce <__aeabi_fmul+0x1fa>
 8000804:	4649      	mov	r1, r9
 8000806:	3201      	adds	r2, #1
 8000808:	4311      	orrs	r1, r2
 800080a:	4689      	mov	r9, r1
 800080c:	290a      	cmp	r1, #10
 800080e:	dc08      	bgt.n	8000822 <__aeabi_fmul+0x14e>
 8000810:	407d      	eors	r5, r7
 8000812:	2001      	movs	r0, #1
 8000814:	b2ea      	uxtb	r2, r5
 8000816:	2902      	cmp	r1, #2
 8000818:	dc91      	bgt.n	800073e <__aeabi_fmul+0x6a>
 800081a:	0015      	movs	r5, r2
 800081c:	2200      	movs	r2, #0
 800081e:	e027      	b.n	8000870 <__aeabi_fmul+0x19c>
 8000820:	0015      	movs	r5, r2
 8000822:	4653      	mov	r3, sl
 8000824:	2b02      	cmp	r3, #2
 8000826:	d100      	bne.n	800082a <__aeabi_fmul+0x156>
 8000828:	e093      	b.n	8000952 <__aeabi_fmul+0x27e>
 800082a:	2b03      	cmp	r3, #3
 800082c:	d01a      	beq.n	8000864 <__aeabi_fmul+0x190>
 800082e:	2b01      	cmp	r3, #1
 8000830:	d12c      	bne.n	800088c <__aeabi_fmul+0x1b8>
 8000832:	2300      	movs	r3, #0
 8000834:	2200      	movs	r2, #0
 8000836:	e01b      	b.n	8000870 <__aeabi_fmul+0x19c>
 8000838:	4643      	mov	r3, r8
 800083a:	34ff      	adds	r4, #255	@ 0xff
 800083c:	2b00      	cmp	r3, #0
 800083e:	d055      	beq.n	80008ec <__aeabi_fmul+0x218>
 8000840:	2103      	movs	r1, #3
 8000842:	464b      	mov	r3, r9
 8000844:	430b      	orrs	r3, r1
 8000846:	0019      	movs	r1, r3
 8000848:	2b0a      	cmp	r3, #10
 800084a:	dc00      	bgt.n	800084e <__aeabi_fmul+0x17a>
 800084c:	e092      	b.n	8000974 <__aeabi_fmul+0x2a0>
 800084e:	2b0f      	cmp	r3, #15
 8000850:	d000      	beq.n	8000854 <__aeabi_fmul+0x180>
 8000852:	e08c      	b.n	800096e <__aeabi_fmul+0x29a>
 8000854:	2280      	movs	r2, #128	@ 0x80
 8000856:	03d2      	lsls	r2, r2, #15
 8000858:	4216      	tst	r6, r2
 800085a:	d003      	beq.n	8000864 <__aeabi_fmul+0x190>
 800085c:	4643      	mov	r3, r8
 800085e:	4213      	tst	r3, r2
 8000860:	d100      	bne.n	8000864 <__aeabi_fmul+0x190>
 8000862:	e07d      	b.n	8000960 <__aeabi_fmul+0x28c>
 8000864:	2280      	movs	r2, #128	@ 0x80
 8000866:	03d2      	lsls	r2, r2, #15
 8000868:	4332      	orrs	r2, r6
 800086a:	0252      	lsls	r2, r2, #9
 800086c:	0a52      	lsrs	r2, r2, #9
 800086e:	23ff      	movs	r3, #255	@ 0xff
 8000870:	05d8      	lsls	r0, r3, #23
 8000872:	07ed      	lsls	r5, r5, #31
 8000874:	4310      	orrs	r0, r2
 8000876:	4328      	orrs	r0, r5
 8000878:	bce0      	pop	{r5, r6, r7}
 800087a:	46ba      	mov	sl, r7
 800087c:	46b1      	mov	r9, r6
 800087e:	46a8      	mov	r8, r5
 8000880:	bdf0      	pop	{r4, r5, r6, r7, pc}
 8000882:	2301      	movs	r3, #1
 8000884:	0015      	movs	r5, r2
 8000886:	0871      	lsrs	r1, r6, #1
 8000888:	401e      	ands	r6, r3
 800088a:	430e      	orrs	r6, r1
 800088c:	0023      	movs	r3, r4
 800088e:	3380      	adds	r3, #128	@ 0x80
 8000890:	1c61      	adds	r1, r4, #1
 8000892:	2b00      	cmp	r3, #0
 8000894:	dd41      	ble.n	800091a <__aeabi_fmul+0x246>
 8000896:	0772      	lsls	r2, r6, #29
 8000898:	d094      	beq.n	80007c4 <__aeabi_fmul+0xf0>
 800089a:	220f      	movs	r2, #15
 800089c:	4032      	ands	r2, r6
 800089e:	2a04      	cmp	r2, #4
 80008a0:	d000      	beq.n	80008a4 <__aeabi_fmul+0x1d0>
 80008a2:	e78e      	b.n	80007c2 <__aeabi_fmul+0xee>
 80008a4:	e78e      	b.n	80007c4 <__aeabi_fmul+0xf0>
 80008a6:	2e00      	cmp	r6, #0
 80008a8:	d105      	bne.n	80008b6 <__aeabi_fmul+0x1e2>
 80008aa:	2304      	movs	r3, #4
 80008ac:	4699      	mov	r9, r3
 80008ae:	3b03      	subs	r3, #3
 80008b0:	2400      	movs	r4, #0
 80008b2:	469a      	mov	sl, r3
 80008b4:	e726      	b.n	8000704 <__aeabi_fmul+0x30>
 80008b6:	0030      	movs	r0, r6
 80008b8:	f002 f894 	bl	80029e4 <__clzsi2>
 80008bc:	2476      	movs	r4, #118	@ 0x76
 80008be:	1f43      	subs	r3, r0, #5
 80008c0:	409e      	lsls	r6, r3
 80008c2:	2300      	movs	r3, #0
 80008c4:	4264      	negs	r4, r4
 80008c6:	4699      	mov	r9, r3
 80008c8:	469a      	mov	sl, r3
 80008ca:	1a24      	subs	r4, r4, r0
 80008cc:	e71a      	b.n	8000704 <__aeabi_fmul+0x30>
 80008ce:	4640      	mov	r0, r8
 80008d0:	f002 f888 	bl	80029e4 <__clzsi2>
 80008d4:	464b      	mov	r3, r9
 80008d6:	1a24      	subs	r4, r4, r0
 80008d8:	3c76      	subs	r4, #118	@ 0x76
 80008da:	2b0a      	cmp	r3, #10
 80008dc:	dca1      	bgt.n	8000822 <__aeabi_fmul+0x14e>
 80008de:	4643      	mov	r3, r8
 80008e0:	3805      	subs	r0, #5
 80008e2:	4083      	lsls	r3, r0
 80008e4:	407d      	eors	r5, r7
 80008e6:	4698      	mov	r8, r3
 80008e8:	b2ea      	uxtb	r2, r5
 80008ea:	e724      	b.n	8000736 <__aeabi_fmul+0x62>
 80008ec:	464a      	mov	r2, r9
 80008ee:	3302      	adds	r3, #2
 80008f0:	4313      	orrs	r3, r2
 80008f2:	002a      	movs	r2, r5
 80008f4:	407a      	eors	r2, r7
 80008f6:	b2d2      	uxtb	r2, r2
 80008f8:	2b0a      	cmp	r3, #10
 80008fa:	dc92      	bgt.n	8000822 <__aeabi_fmul+0x14e>
 80008fc:	4649      	mov	r1, r9
 80008fe:	0015      	movs	r5, r2
 8000900:	2900      	cmp	r1, #0
 8000902:	d026      	beq.n	8000952 <__aeabi_fmul+0x27e>
 8000904:	4699      	mov	r9, r3
 8000906:	2002      	movs	r0, #2
 8000908:	e719      	b.n	800073e <__aeabi_fmul+0x6a>
 800090a:	230c      	movs	r3, #12
 800090c:	4699      	mov	r9, r3
 800090e:	3b09      	subs	r3, #9
 8000910:	24ff      	movs	r4, #255	@ 0xff
 8000912:	469a      	mov	sl, r3
 8000914:	e6f6      	b.n	8000704 <__aeabi_fmul+0x30>
 8000916:	0015      	movs	r5, r2
 8000918:	0021      	movs	r1, r4
 800091a:	2201      	movs	r2, #1
 800091c:	1ad3      	subs	r3, r2, r3
 800091e:	2b1b      	cmp	r3, #27
 8000920:	dd00      	ble.n	8000924 <__aeabi_fmul+0x250>
 8000922:	e786      	b.n	8000832 <__aeabi_fmul+0x15e>
 8000924:	319e      	adds	r1, #158	@ 0x9e
 8000926:	0032      	movs	r2, r6
 8000928:	408e      	lsls	r6, r1
 800092a:	40da      	lsrs	r2, r3
 800092c:	1e73      	subs	r3, r6, #1
 800092e:	419e      	sbcs	r6, r3
 8000930:	4332      	orrs	r2, r6
 8000932:	0753      	lsls	r3, r2, #29
 8000934:	d004      	beq.n	8000940 <__aeabi_fmul+0x26c>
 8000936:	230f      	movs	r3, #15
 8000938:	4013      	ands	r3, r2
 800093a:	2b04      	cmp	r3, #4
 800093c:	d000      	beq.n	8000940 <__aeabi_fmul+0x26c>
 800093e:	3204      	adds	r2, #4
 8000940:	0153      	lsls	r3, r2, #5
 8000942:	d510      	bpl.n	8000966 <__aeabi_fmul+0x292>
 8000944:	2301      	movs	r3, #1
 8000946:	2200      	movs	r2, #0
 8000948:	e792      	b.n	8000870 <__aeabi_fmul+0x19c>
 800094a:	003d      	movs	r5, r7
 800094c:	4646      	mov	r6, r8
 800094e:	4682      	mov	sl, r0
 8000950:	e767      	b.n	8000822 <__aeabi_fmul+0x14e>
 8000952:	23ff      	movs	r3, #255	@ 0xff
 8000954:	2200      	movs	r2, #0
 8000956:	e78b      	b.n	8000870 <__aeabi_fmul+0x19c>
 8000958:	2280      	movs	r2, #128	@ 0x80
 800095a:	2500      	movs	r5, #0
 800095c:	03d2      	lsls	r2, r2, #15
 800095e:	e786      	b.n	800086e <__aeabi_fmul+0x19a>
 8000960:	003d      	movs	r5, r7
 8000962:	431a      	orrs	r2, r3
 8000964:	e783      	b.n	800086e <__aeabi_fmul+0x19a>
 8000966:	0192      	lsls	r2, r2, #6
 8000968:	2300      	movs	r3, #0
 800096a:	0a52      	lsrs	r2, r2, #9
 800096c:	e780      	b.n	8000870 <__aeabi_fmul+0x19c>
 800096e:	003d      	movs	r5, r7
 8000970:	4646      	mov	r6, r8
 8000972:	e777      	b.n	8000864 <__aeabi_fmul+0x190>
 8000974:	002a      	movs	r2, r5
 8000976:	2301      	movs	r3, #1
 8000978:	407a      	eors	r2, r7
 800097a:	408b      	lsls	r3, r1
 800097c:	2003      	movs	r0, #3
 800097e:	b2d2      	uxtb	r2, r2
 8000980:	e6e9      	b.n	8000756 <__aeabi_fmul+0x82>
 8000982:	46c0      	nop			@ (mov r8, r8)
 8000984:	f7ffffff 	.word	0xf7ffffff

08000988 <__aeabi_ui2f>:
 8000988:	b510      	push	{r4, lr}
 800098a:	1e04      	subs	r4, r0, #0
 800098c:	d00d      	beq.n	80009aa <__aeabi_ui2f+0x22>
 800098e:	f002 f829 	bl	80029e4 <__clzsi2>
 8000992:	239e      	movs	r3, #158	@ 0x9e
 8000994:	1a1b      	subs	r3, r3, r0
 8000996:	2b96      	cmp	r3, #150	@ 0x96
 8000998:	dc0c      	bgt.n	80009b4 <__aeabi_ui2f+0x2c>
 800099a:	2808      	cmp	r0, #8
 800099c:	d034      	beq.n	8000a08 <__aeabi_ui2f+0x80>
 800099e:	3808      	subs	r0, #8
 80009a0:	4084      	lsls	r4, r0
 80009a2:	0264      	lsls	r4, r4, #9
 80009a4:	0a64      	lsrs	r4, r4, #9
 80009a6:	b2d8      	uxtb	r0, r3
 80009a8:	e001      	b.n	80009ae <__aeabi_ui2f+0x26>
 80009aa:	2000      	movs	r0, #0
 80009ac:	2400      	movs	r4, #0
 80009ae:	05c0      	lsls	r0, r0, #23
 80009b0:	4320      	orrs	r0, r4
 80009b2:	bd10      	pop	{r4, pc}
 80009b4:	2b99      	cmp	r3, #153	@ 0x99
 80009b6:	dc13      	bgt.n	80009e0 <__aeabi_ui2f+0x58>
 80009b8:	1f42      	subs	r2, r0, #5
 80009ba:	4094      	lsls	r4, r2
 80009bc:	4a14      	ldr	r2, [pc, #80]	@ (8000a10 <__aeabi_ui2f+0x88>)
 80009be:	4022      	ands	r2, r4
 80009c0:	0761      	lsls	r1, r4, #29
 80009c2:	d01c      	beq.n	80009fe <__aeabi_ui2f+0x76>
 80009c4:	210f      	movs	r1, #15
 80009c6:	4021      	ands	r1, r4
 80009c8:	2904      	cmp	r1, #4
 80009ca:	d018      	beq.n	80009fe <__aeabi_ui2f+0x76>
 80009cc:	3204      	adds	r2, #4
 80009ce:	08d4      	lsrs	r4, r2, #3
 80009d0:	0152      	lsls	r2, r2, #5
 80009d2:	d515      	bpl.n	8000a00 <__aeabi_ui2f+0x78>
 80009d4:	239f      	movs	r3, #159	@ 0x9f
 80009d6:	0264      	lsls	r4, r4, #9
 80009d8:	1a18      	subs	r0, r3, r0
 80009da:	0a64      	lsrs	r4, r4, #9
 80009dc:	b2c0      	uxtb	r0, r0
 80009de:	e7e6      	b.n	80009ae <__aeabi_ui2f+0x26>
 80009e0:	0002      	movs	r2, r0
 80009e2:	0021      	movs	r1, r4
 80009e4:	321b      	adds	r2, #27
 80009e6:	4091      	lsls	r1, r2
 80009e8:	000a      	movs	r2, r1
 80009ea:	1e51      	subs	r1, r2, #1
 80009ec:	418a      	sbcs	r2, r1
 80009ee:	2105      	movs	r1, #5
 80009f0:	1a09      	subs	r1, r1, r0
 80009f2:	40cc      	lsrs	r4, r1
 80009f4:	4314      	orrs	r4, r2
 80009f6:	4a06      	ldr	r2, [pc, #24]	@ (8000a10 <__aeabi_ui2f+0x88>)
 80009f8:	4022      	ands	r2, r4
 80009fa:	0761      	lsls	r1, r4, #29
 80009fc:	d1e2      	bne.n	80009c4 <__aeabi_ui2f+0x3c>
 80009fe:	08d4      	lsrs	r4, r2, #3
 8000a00:	0264      	lsls	r4, r4, #9
 8000a02:	0a64      	lsrs	r4, r4, #9
 8000a04:	b2d8      	uxtb	r0, r3
 8000a06:	e7d2      	b.n	80009ae <__aeabi_ui2f+0x26>
 8000a08:	0264      	lsls	r4, r4, #9
 8000a0a:	0a64      	lsrs	r4, r4, #9
 8000a0c:	308e      	adds	r0, #142	@ 0x8e
 8000a0e:	e7ce      	b.n	80009ae <__aeabi_ui2f+0x26>
 8000a10:	fbffffff 	.word	0xfbffffff

08000a14 <__aeabi_dadd>:
 8000a14:	b5f0      	push	{r4, r5, r6, r7, lr}
 8000a16:	464f      	mov	r7, r9
 8000a18:	4646      	mov	r6, r8
 8000a1a:	46d6      	mov	lr, sl
 8000a1c:	b5c0      	push	{r6, r7, lr}
 8000a1e:	b082      	sub	sp, #8
 8000a20:	9000      	str	r0, [sp, #0]
 8000a22:	9101      	str	r1, [sp, #4]
 8000a24:	030e      	lsls	r6, r1, #12
 8000a26:	004c      	lsls	r4, r1, #1
 8000a28:	0fcd      	lsrs	r5, r1, #31
 8000a2a:	0a71      	lsrs	r1, r6, #9
 8000a2c:	9e00      	ldr	r6, [sp, #0]
 8000a2e:	005f      	lsls	r7, r3, #1
 8000a30:	0f76      	lsrs	r6, r6, #29
 8000a32:	430e      	orrs	r6, r1
 8000a34:	9900      	ldr	r1, [sp, #0]
 8000a36:	9200      	str	r2, [sp, #0]
 8000a38:	9301      	str	r3, [sp, #4]
 8000a3a:	00c9      	lsls	r1, r1, #3
 8000a3c:	4689      	mov	r9, r1
 8000a3e:	0319      	lsls	r1, r3, #12
 8000a40:	0d7b      	lsrs	r3, r7, #21
 8000a42:	4698      	mov	r8, r3
 8000a44:	9b01      	ldr	r3, [sp, #4]
 8000a46:	0a49      	lsrs	r1, r1, #9
 8000a48:	0fdb      	lsrs	r3, r3, #31
 8000a4a:	469c      	mov	ip, r3
 8000a4c:	9b00      	ldr	r3, [sp, #0]
 8000a4e:	9a00      	ldr	r2, [sp, #0]
 8000a50:	0f5b      	lsrs	r3, r3, #29
 8000a52:	430b      	orrs	r3, r1
 8000a54:	4641      	mov	r1, r8
 8000a56:	0d64      	lsrs	r4, r4, #21
 8000a58:	00d2      	lsls	r2, r2, #3
 8000a5a:	1a61      	subs	r1, r4, r1
 8000a5c:	4565      	cmp	r5, ip
 8000a5e:	d100      	bne.n	8000a62 <__aeabi_dadd+0x4e>
 8000a60:	e0a6      	b.n	8000bb0 <__aeabi_dadd+0x19c>
 8000a62:	2900      	cmp	r1, #0
 8000a64:	dd72      	ble.n	8000b4c <__aeabi_dadd+0x138>
 8000a66:	4647      	mov	r7, r8
 8000a68:	2f00      	cmp	r7, #0
 8000a6a:	d100      	bne.n	8000a6e <__aeabi_dadd+0x5a>
 8000a6c:	e0dd      	b.n	8000c2a <__aeabi_dadd+0x216>
 8000a6e:	4fcc      	ldr	r7, [pc, #816]	@ (8000da0 <__aeabi_dadd+0x38c>)
 8000a70:	42bc      	cmp	r4, r7
 8000a72:	d100      	bne.n	8000a76 <__aeabi_dadd+0x62>
 8000a74:	e19a      	b.n	8000dac <__aeabi_dadd+0x398>
 8000a76:	2701      	movs	r7, #1
 8000a78:	2938      	cmp	r1, #56	@ 0x38
 8000a7a:	dc17      	bgt.n	8000aac <__aeabi_dadd+0x98>
 8000a7c:	2780      	movs	r7, #128	@ 0x80
 8000a7e:	043f      	lsls	r7, r7, #16
 8000a80:	433b      	orrs	r3, r7
 8000a82:	291f      	cmp	r1, #31
 8000a84:	dd00      	ble.n	8000a88 <__aeabi_dadd+0x74>
 8000a86:	e1dd      	b.n	8000e44 <__aeabi_dadd+0x430>
 8000a88:	2720      	movs	r7, #32
 8000a8a:	1a78      	subs	r0, r7, r1
 8000a8c:	001f      	movs	r7, r3
 8000a8e:	4087      	lsls	r7, r0
 8000a90:	46ba      	mov	sl, r7
 8000a92:	0017      	movs	r7, r2
 8000a94:	40cf      	lsrs	r7, r1
 8000a96:	4684      	mov	ip, r0
 8000a98:	0038      	movs	r0, r7
 8000a9a:	4657      	mov	r7, sl
 8000a9c:	4307      	orrs	r7, r0
 8000a9e:	4660      	mov	r0, ip
 8000aa0:	4082      	lsls	r2, r0
 8000aa2:	40cb      	lsrs	r3, r1
 8000aa4:	1e50      	subs	r0, r2, #1
 8000aa6:	4182      	sbcs	r2, r0
 8000aa8:	1af6      	subs	r6, r6, r3
 8000aaa:	4317      	orrs	r7, r2
 8000aac:	464b      	mov	r3, r9
 8000aae:	1bdf      	subs	r7, r3, r7
 8000ab0:	45b9      	cmp	r9, r7
 8000ab2:	4180      	sbcs	r0, r0
 8000ab4:	4240      	negs	r0, r0
 8000ab6:	1a36      	subs	r6, r6, r0
 8000ab8:	0233      	lsls	r3, r6, #8
 8000aba:	d400      	bmi.n	8000abe <__aeabi_dadd+0xaa>
 8000abc:	e0ff      	b.n	8000cbe <__aeabi_dadd+0x2aa>
 8000abe:	0276      	lsls	r6, r6, #9
 8000ac0:	0a76      	lsrs	r6, r6, #9
 8000ac2:	2e00      	cmp	r6, #0
 8000ac4:	d100      	bne.n	8000ac8 <__aeabi_dadd+0xb4>
 8000ac6:	e13c      	b.n	8000d42 <__aeabi_dadd+0x32e>
 8000ac8:	0030      	movs	r0, r6
 8000aca:	f001 ff8b 	bl	80029e4 <__clzsi2>
 8000ace:	0003      	movs	r3, r0
 8000ad0:	3b08      	subs	r3, #8
 8000ad2:	2120      	movs	r1, #32
 8000ad4:	0038      	movs	r0, r7
 8000ad6:	1aca      	subs	r2, r1, r3
 8000ad8:	40d0      	lsrs	r0, r2
 8000ada:	409e      	lsls	r6, r3
 8000adc:	0002      	movs	r2, r0
 8000ade:	409f      	lsls	r7, r3
 8000ae0:	4332      	orrs	r2, r6
 8000ae2:	429c      	cmp	r4, r3
 8000ae4:	dd00      	ble.n	8000ae8 <__aeabi_dadd+0xd4>
 8000ae6:	e1a6      	b.n	8000e36 <__aeabi_dadd+0x422>
 8000ae8:	1b18      	subs	r0, r3, r4
 8000aea:	3001      	adds	r0, #1
 8000aec:	1a09      	subs	r1, r1, r0
 8000aee:	003e      	movs	r6, r7
 8000af0:	408f      	lsls	r7, r1
 8000af2:	40c6      	lsrs	r6, r0
 8000af4:	1e7b      	subs	r3, r7, #1
 8000af6:	419f      	sbcs	r7, r3
 8000af8:	0013      	movs	r3, r2
 8000afa:	408b      	lsls	r3, r1
 8000afc:	4337      	orrs	r7, r6
 8000afe:	431f      	orrs	r7, r3
 8000b00:	40c2      	lsrs	r2, r0
 8000b02:	003b      	movs	r3, r7
 8000b04:	0016      	movs	r6, r2
 8000b06:	2400      	movs	r4, #0
 8000b08:	4313      	orrs	r3, r2
 8000b0a:	d100      	bne.n	8000b0e <__aeabi_dadd+0xfa>
 8000b0c:	e1df      	b.n	8000ece <__aeabi_dadd+0x4ba>
 8000b0e:	077b      	lsls	r3, r7, #29
 8000b10:	d100      	bne.n	8000b14 <__aeabi_dadd+0x100>
 8000b12:	e332      	b.n	800117a <__aeabi_dadd+0x766>
 8000b14:	230f      	movs	r3, #15
 8000b16:	003a      	movs	r2, r7
 8000b18:	403b      	ands	r3, r7
 8000b1a:	2b04      	cmp	r3, #4
 8000b1c:	d004      	beq.n	8000b28 <__aeabi_dadd+0x114>
 8000b1e:	1d3a      	adds	r2, r7, #4
 8000b20:	42ba      	cmp	r2, r7
 8000b22:	41bf      	sbcs	r7, r7
 8000b24:	427f      	negs	r7, r7
 8000b26:	19f6      	adds	r6, r6, r7
 8000b28:	0233      	lsls	r3, r6, #8
 8000b2a:	d400      	bmi.n	8000b2e <__aeabi_dadd+0x11a>
 8000b2c:	e323      	b.n	8001176 <__aeabi_dadd+0x762>
 8000b2e:	4b9c      	ldr	r3, [pc, #624]	@ (8000da0 <__aeabi_dadd+0x38c>)
 8000b30:	3401      	adds	r4, #1
 8000b32:	429c      	cmp	r4, r3
 8000b34:	d100      	bne.n	8000b38 <__aeabi_dadd+0x124>
 8000b36:	e0b4      	b.n	8000ca2 <__aeabi_dadd+0x28e>
 8000b38:	4b9a      	ldr	r3, [pc, #616]	@ (8000da4 <__aeabi_dadd+0x390>)
 8000b3a:	0564      	lsls	r4, r4, #21
 8000b3c:	401e      	ands	r6, r3
 8000b3e:	0d64      	lsrs	r4, r4, #21
 8000b40:	0777      	lsls	r7, r6, #29
 8000b42:	08d2      	lsrs	r2, r2, #3
 8000b44:	0276      	lsls	r6, r6, #9
 8000b46:	4317      	orrs	r7, r2
 8000b48:	0b36      	lsrs	r6, r6, #12
 8000b4a:	e0ac      	b.n	8000ca6 <__aeabi_dadd+0x292>
 8000b4c:	2900      	cmp	r1, #0
 8000b4e:	d100      	bne.n	8000b52 <__aeabi_dadd+0x13e>
 8000b50:	e07e      	b.n	8000c50 <__aeabi_dadd+0x23c>
 8000b52:	4641      	mov	r1, r8
 8000b54:	1b09      	subs	r1, r1, r4
 8000b56:	2c00      	cmp	r4, #0
 8000b58:	d000      	beq.n	8000b5c <__aeabi_dadd+0x148>
 8000b5a:	e160      	b.n	8000e1e <__aeabi_dadd+0x40a>
 8000b5c:	0034      	movs	r4, r6
 8000b5e:	4648      	mov	r0, r9
 8000b60:	4304      	orrs	r4, r0
 8000b62:	d100      	bne.n	8000b66 <__aeabi_dadd+0x152>
 8000b64:	e1c9      	b.n	8000efa <__aeabi_dadd+0x4e6>
 8000b66:	1e4c      	subs	r4, r1, #1
 8000b68:	2901      	cmp	r1, #1
 8000b6a:	d100      	bne.n	8000b6e <__aeabi_dadd+0x15a>
 8000b6c:	e22e      	b.n	8000fcc <__aeabi_dadd+0x5b8>
 8000b6e:	4d8c      	ldr	r5, [pc, #560]	@ (8000da0 <__aeabi_dadd+0x38c>)
 8000b70:	42a9      	cmp	r1, r5
 8000b72:	d100      	bne.n	8000b76 <__aeabi_dadd+0x162>
 8000b74:	e224      	b.n	8000fc0 <__aeabi_dadd+0x5ac>
 8000b76:	2701      	movs	r7, #1
 8000b78:	2c38      	cmp	r4, #56	@ 0x38
 8000b7a:	dc11      	bgt.n	8000ba0 <__aeabi_dadd+0x18c>
 8000b7c:	0021      	movs	r1, r4
 8000b7e:	291f      	cmp	r1, #31
 8000b80:	dd00      	ble.n	8000b84 <__aeabi_dadd+0x170>
 8000b82:	e20b      	b.n	8000f9c <__aeabi_dadd+0x588>
 8000b84:	2420      	movs	r4, #32
 8000b86:	0037      	movs	r7, r6
 8000b88:	4648      	mov	r0, r9
 8000b8a:	1a64      	subs	r4, r4, r1
 8000b8c:	40a7      	lsls	r7, r4
 8000b8e:	40c8      	lsrs	r0, r1
 8000b90:	4307      	orrs	r7, r0
 8000b92:	4648      	mov	r0, r9
 8000b94:	40a0      	lsls	r0, r4
 8000b96:	40ce      	lsrs	r6, r1
 8000b98:	1e44      	subs	r4, r0, #1
 8000b9a:	41a0      	sbcs	r0, r4
 8000b9c:	1b9b      	subs	r3, r3, r6
 8000b9e:	4307      	orrs	r7, r0
 8000ba0:	1bd7      	subs	r7, r2, r7
 8000ba2:	42ba      	cmp	r2, r7
 8000ba4:	4192      	sbcs	r2, r2
 8000ba6:	4252      	negs	r2, r2
 8000ba8:	4665      	mov	r5, ip
 8000baa:	4644      	mov	r4, r8
 8000bac:	1a9e      	subs	r6, r3, r2
 8000bae:	e783      	b.n	8000ab8 <__aeabi_dadd+0xa4>
 8000bb0:	2900      	cmp	r1, #0
 8000bb2:	dc00      	bgt.n	8000bb6 <__aeabi_dadd+0x1a2>
 8000bb4:	e09c      	b.n	8000cf0 <__aeabi_dadd+0x2dc>
 8000bb6:	4647      	mov	r7, r8
 8000bb8:	2f00      	cmp	r7, #0
 8000bba:	d167      	bne.n	8000c8c <__aeabi_dadd+0x278>
 8000bbc:	001f      	movs	r7, r3
 8000bbe:	4317      	orrs	r7, r2
 8000bc0:	d100      	bne.n	8000bc4 <__aeabi_dadd+0x1b0>
 8000bc2:	e0e4      	b.n	8000d8e <__aeabi_dadd+0x37a>
 8000bc4:	1e48      	subs	r0, r1, #1
 8000bc6:	2901      	cmp	r1, #1
 8000bc8:	d100      	bne.n	8000bcc <__aeabi_dadd+0x1b8>
 8000bca:	e19b      	b.n	8000f04 <__aeabi_dadd+0x4f0>
 8000bcc:	4f74      	ldr	r7, [pc, #464]	@ (8000da0 <__aeabi_dadd+0x38c>)
 8000bce:	42b9      	cmp	r1, r7
 8000bd0:	d100      	bne.n	8000bd4 <__aeabi_dadd+0x1c0>
 8000bd2:	e0eb      	b.n	8000dac <__aeabi_dadd+0x398>
 8000bd4:	2701      	movs	r7, #1
 8000bd6:	0001      	movs	r1, r0
 8000bd8:	2838      	cmp	r0, #56	@ 0x38
 8000bda:	dc11      	bgt.n	8000c00 <__aeabi_dadd+0x1ec>
 8000bdc:	291f      	cmp	r1, #31
 8000bde:	dd00      	ble.n	8000be2 <__aeabi_dadd+0x1ce>
 8000be0:	e1c7      	b.n	8000f72 <__aeabi_dadd+0x55e>
 8000be2:	2720      	movs	r7, #32
 8000be4:	1a78      	subs	r0, r7, r1
 8000be6:	001f      	movs	r7, r3
 8000be8:	4684      	mov	ip, r0
 8000bea:	4087      	lsls	r7, r0
 8000bec:	0010      	movs	r0, r2
 8000bee:	40c8      	lsrs	r0, r1
 8000bf0:	4307      	orrs	r7, r0
 8000bf2:	4660      	mov	r0, ip
 8000bf4:	4082      	lsls	r2, r0
 8000bf6:	40cb      	lsrs	r3, r1
 8000bf8:	1e50      	subs	r0, r2, #1
 8000bfa:	4182      	sbcs	r2, r0
 8000bfc:	18f6      	adds	r6, r6, r3
 8000bfe:	4317      	orrs	r7, r2
 8000c00:	444f      	add	r7, r9
 8000c02:	454f      	cmp	r7, r9
 8000c04:	4180      	sbcs	r0, r0
 8000c06:	4240      	negs	r0, r0
 8000c08:	1836      	adds	r6, r6, r0
 8000c0a:	0233      	lsls	r3, r6, #8
 8000c0c:	d557      	bpl.n	8000cbe <__aeabi_dadd+0x2aa>
 8000c0e:	4b64      	ldr	r3, [pc, #400]	@ (8000da0 <__aeabi_dadd+0x38c>)
 8000c10:	3401      	adds	r4, #1
 8000c12:	429c      	cmp	r4, r3
 8000c14:	d045      	beq.n	8000ca2 <__aeabi_dadd+0x28e>
 8000c16:	2101      	movs	r1, #1
 8000c18:	4b62      	ldr	r3, [pc, #392]	@ (8000da4 <__aeabi_dadd+0x390>)
 8000c1a:	087a      	lsrs	r2, r7, #1
 8000c1c:	401e      	ands	r6, r3
 8000c1e:	4039      	ands	r1, r7
 8000c20:	430a      	orrs	r2, r1
 8000c22:	07f7      	lsls	r7, r6, #31
 8000c24:	4317      	orrs	r7, r2
 8000c26:	0876      	lsrs	r6, r6, #1
 8000c28:	e771      	b.n	8000b0e <__aeabi_dadd+0xfa>
 8000c2a:	001f      	movs	r7, r3
 8000c2c:	4317      	orrs	r7, r2
 8000c2e:	d100      	bne.n	8000c32 <__aeabi_dadd+0x21e>
 8000c30:	e0ad      	b.n	8000d8e <__aeabi_dadd+0x37a>
 8000c32:	1e4f      	subs	r7, r1, #1
 8000c34:	46bc      	mov	ip, r7
 8000c36:	2901      	cmp	r1, #1
 8000c38:	d100      	bne.n	8000c3c <__aeabi_dadd+0x228>
 8000c3a:	e182      	b.n	8000f42 <__aeabi_dadd+0x52e>
 8000c3c:	4f58      	ldr	r7, [pc, #352]	@ (8000da0 <__aeabi_dadd+0x38c>)
 8000c3e:	42b9      	cmp	r1, r7
 8000c40:	d100      	bne.n	8000c44 <__aeabi_dadd+0x230>
 8000c42:	e190      	b.n	8000f66 <__aeabi_dadd+0x552>
 8000c44:	4661      	mov	r1, ip
 8000c46:	2701      	movs	r7, #1
 8000c48:	2938      	cmp	r1, #56	@ 0x38
 8000c4a:	dd00      	ble.n	8000c4e <__aeabi_dadd+0x23a>
 8000c4c:	e72e      	b.n	8000aac <__aeabi_dadd+0x98>
 8000c4e:	e718      	b.n	8000a82 <__aeabi_dadd+0x6e>
 8000c50:	4f55      	ldr	r7, [pc, #340]	@ (8000da8 <__aeabi_dadd+0x394>)
 8000c52:	1c61      	adds	r1, r4, #1
 8000c54:	4239      	tst	r1, r7
 8000c56:	d000      	beq.n	8000c5a <__aeabi_dadd+0x246>
 8000c58:	e0d0      	b.n	8000dfc <__aeabi_dadd+0x3e8>
 8000c5a:	0031      	movs	r1, r6
 8000c5c:	4648      	mov	r0, r9
 8000c5e:	001f      	movs	r7, r3
 8000c60:	4301      	orrs	r1, r0
 8000c62:	4317      	orrs	r7, r2
 8000c64:	2c00      	cmp	r4, #0
 8000c66:	d000      	beq.n	8000c6a <__aeabi_dadd+0x256>
 8000c68:	e13d      	b.n	8000ee6 <__aeabi_dadd+0x4d2>
 8000c6a:	2900      	cmp	r1, #0
 8000c6c:	d100      	bne.n	8000c70 <__aeabi_dadd+0x25c>
 8000c6e:	e1bc      	b.n	8000fea <__aeabi_dadd+0x5d6>
 8000c70:	2f00      	cmp	r7, #0
 8000c72:	d000      	beq.n	8000c76 <__aeabi_dadd+0x262>
 8000c74:	e1bf      	b.n	8000ff6 <__aeabi_dadd+0x5e2>
 8000c76:	464b      	mov	r3, r9
 8000c78:	2100      	movs	r1, #0
 8000c7a:	08d8      	lsrs	r0, r3, #3
 8000c7c:	0777      	lsls	r7, r6, #29
 8000c7e:	4307      	orrs	r7, r0
 8000c80:	08f0      	lsrs	r0, r6, #3
 8000c82:	0306      	lsls	r6, r0, #12
 8000c84:	054c      	lsls	r4, r1, #21
 8000c86:	0b36      	lsrs	r6, r6, #12
 8000c88:	0d64      	lsrs	r4, r4, #21
 8000c8a:	e00c      	b.n	8000ca6 <__aeabi_dadd+0x292>
 8000c8c:	4f44      	ldr	r7, [pc, #272]	@ (8000da0 <__aeabi_dadd+0x38c>)
 8000c8e:	42bc      	cmp	r4, r7
 8000c90:	d100      	bne.n	8000c94 <__aeabi_dadd+0x280>
 8000c92:	e08b      	b.n	8000dac <__aeabi_dadd+0x398>
 8000c94:	2701      	movs	r7, #1
 8000c96:	2938      	cmp	r1, #56	@ 0x38
 8000c98:	dcb2      	bgt.n	8000c00 <__aeabi_dadd+0x1ec>
 8000c9a:	2780      	movs	r7, #128	@ 0x80
 8000c9c:	043f      	lsls	r7, r7, #16
 8000c9e:	433b      	orrs	r3, r7
 8000ca0:	e79c      	b.n	8000bdc <__aeabi_dadd+0x1c8>
 8000ca2:	2600      	movs	r6, #0
 8000ca4:	2700      	movs	r7, #0
 8000ca6:	0524      	lsls	r4, r4, #20
 8000ca8:	4334      	orrs	r4, r6
 8000caa:	07ed      	lsls	r5, r5, #31
 8000cac:	432c      	orrs	r4, r5
 8000cae:	0038      	movs	r0, r7
 8000cb0:	0021      	movs	r1, r4
 8000cb2:	b002      	add	sp, #8
 8000cb4:	bce0      	pop	{r5, r6, r7}
 8000cb6:	46ba      	mov	sl, r7
 8000cb8:	46b1      	mov	r9, r6
 8000cba:	46a8      	mov	r8, r5
 8000cbc:	bdf0      	pop	{r4, r5, r6, r7, pc}
 8000cbe:	077b      	lsls	r3, r7, #29
 8000cc0:	d004      	beq.n	8000ccc <__aeabi_dadd+0x2b8>
 8000cc2:	230f      	movs	r3, #15
 8000cc4:	403b      	ands	r3, r7
 8000cc6:	2b04      	cmp	r3, #4
 8000cc8:	d000      	beq.n	8000ccc <__aeabi_dadd+0x2b8>
 8000cca:	e728      	b.n	8000b1e <__aeabi_dadd+0x10a>
 8000ccc:	08f8      	lsrs	r0, r7, #3
 8000cce:	4b34      	ldr	r3, [pc, #208]	@ (8000da0 <__aeabi_dadd+0x38c>)
 8000cd0:	0777      	lsls	r7, r6, #29
 8000cd2:	4307      	orrs	r7, r0
 8000cd4:	08f0      	lsrs	r0, r6, #3
 8000cd6:	429c      	cmp	r4, r3
 8000cd8:	d000      	beq.n	8000cdc <__aeabi_dadd+0x2c8>
 8000cda:	e24a      	b.n	8001172 <__aeabi_dadd+0x75e>
 8000cdc:	003b      	movs	r3, r7
 8000cde:	4303      	orrs	r3, r0
 8000ce0:	d059      	beq.n	8000d96 <__aeabi_dadd+0x382>
 8000ce2:	2680      	movs	r6, #128	@ 0x80
 8000ce4:	0336      	lsls	r6, r6, #12
 8000ce6:	4306      	orrs	r6, r0
 8000ce8:	0336      	lsls	r6, r6, #12
 8000cea:	4c2d      	ldr	r4, [pc, #180]	@ (8000da0 <__aeabi_dadd+0x38c>)
 8000cec:	0b36      	lsrs	r6, r6, #12
 8000cee:	e7da      	b.n	8000ca6 <__aeabi_dadd+0x292>
 8000cf0:	2900      	cmp	r1, #0
 8000cf2:	d061      	beq.n	8000db8 <__aeabi_dadd+0x3a4>
 8000cf4:	4641      	mov	r1, r8
 8000cf6:	1b09      	subs	r1, r1, r4
 8000cf8:	2c00      	cmp	r4, #0
 8000cfa:	d100      	bne.n	8000cfe <__aeabi_dadd+0x2ea>
 8000cfc:	e0b9      	b.n	8000e72 <__aeabi_dadd+0x45e>
 8000cfe:	4c28      	ldr	r4, [pc, #160]	@ (8000da0 <__aeabi_dadd+0x38c>)
 8000d00:	45a0      	cmp	r8, r4
 8000d02:	d100      	bne.n	8000d06 <__aeabi_dadd+0x2f2>
 8000d04:	e1a5      	b.n	8001052 <__aeabi_dadd+0x63e>
 8000d06:	2701      	movs	r7, #1
 8000d08:	2938      	cmp	r1, #56	@ 0x38
 8000d0a:	dc13      	bgt.n	8000d34 <__aeabi_dadd+0x320>
 8000d0c:	2480      	movs	r4, #128	@ 0x80
 8000d0e:	0424      	lsls	r4, r4, #16
 8000d10:	4326      	orrs	r6, r4
 8000d12:	291f      	cmp	r1, #31
 8000d14:	dd00      	ble.n	8000d18 <__aeabi_dadd+0x304>
 8000d16:	e1c8      	b.n	80010aa <__aeabi_dadd+0x696>
 8000d18:	2420      	movs	r4, #32
 8000d1a:	0037      	movs	r7, r6
 8000d1c:	4648      	mov	r0, r9
 8000d1e:	1a64      	subs	r4, r4, r1
 8000d20:	40a7      	lsls	r7, r4
 8000d22:	40c8      	lsrs	r0, r1
 8000d24:	4307      	orrs	r7, r0
 8000d26:	4648      	mov	r0, r9
 8000d28:	40a0      	lsls	r0, r4
 8000d2a:	40ce      	lsrs	r6, r1
 8000d2c:	1e44      	subs	r4, r0, #1
 8000d2e:	41a0      	sbcs	r0, r4
 8000d30:	199b      	adds	r3, r3, r6
 8000d32:	4307      	orrs	r7, r0
 8000d34:	18bf      	adds	r7, r7, r2
 8000d36:	4297      	cmp	r7, r2
 8000d38:	4192      	sbcs	r2, r2
 8000d3a:	4252      	negs	r2, r2
 8000d3c:	4644      	mov	r4, r8
 8000d3e:	18d6      	adds	r6, r2, r3
 8000d40:	e763      	b.n	8000c0a <__aeabi_dadd+0x1f6>
 8000d42:	0038      	movs	r0, r7
 8000d44:	f001 fe4e 	bl	80029e4 <__clzsi2>
 8000d48:	0003      	movs	r3, r0
 8000d4a:	3318      	adds	r3, #24
 8000d4c:	2b1f      	cmp	r3, #31
 8000d4e:	dc00      	bgt.n	8000d52 <__aeabi_dadd+0x33e>
 8000d50:	e6bf      	b.n	8000ad2 <__aeabi_dadd+0xbe>
 8000d52:	003a      	movs	r2, r7
 8000d54:	3808      	subs	r0, #8
 8000d56:	4082      	lsls	r2, r0
 8000d58:	429c      	cmp	r4, r3
 8000d5a:	dd00      	ble.n	8000d5e <__aeabi_dadd+0x34a>
 8000d5c:	e083      	b.n	8000e66 <__aeabi_dadd+0x452>
 8000d5e:	1b1b      	subs	r3, r3, r4
 8000d60:	1c58      	adds	r0, r3, #1
 8000d62:	281f      	cmp	r0, #31
 8000d64:	dc00      	bgt.n	8000d68 <__aeabi_dadd+0x354>
 8000d66:	e1b4      	b.n	80010d2 <__aeabi_dadd+0x6be>
 8000d68:	0017      	movs	r7, r2
 8000d6a:	3b1f      	subs	r3, #31
 8000d6c:	40df      	lsrs	r7, r3
 8000d6e:	2820      	cmp	r0, #32
 8000d70:	d005      	beq.n	8000d7e <__aeabi_dadd+0x36a>
 8000d72:	2340      	movs	r3, #64	@ 0x40
 8000d74:	1a1b      	subs	r3, r3, r0
 8000d76:	409a      	lsls	r2, r3
 8000d78:	1e53      	subs	r3, r2, #1
 8000d7a:	419a      	sbcs	r2, r3
 8000d7c:	4317      	orrs	r7, r2
 8000d7e:	2400      	movs	r4, #0
 8000d80:	2f00      	cmp	r7, #0
 8000d82:	d00a      	beq.n	8000d9a <__aeabi_dadd+0x386>
 8000d84:	077b      	lsls	r3, r7, #29
 8000d86:	d000      	beq.n	8000d8a <__aeabi_dadd+0x376>
 8000d88:	e6c4      	b.n	8000b14 <__aeabi_dadd+0x100>
 8000d8a:	0026      	movs	r6, r4
 8000d8c:	e79e      	b.n	8000ccc <__aeabi_dadd+0x2b8>
 8000d8e:	464b      	mov	r3, r9
 8000d90:	000c      	movs	r4, r1
 8000d92:	08d8      	lsrs	r0, r3, #3
 8000d94:	e79b      	b.n	8000cce <__aeabi_dadd+0x2ba>
 8000d96:	2700      	movs	r7, #0
 8000d98:	4c01      	ldr	r4, [pc, #4]	@ (8000da0 <__aeabi_dadd+0x38c>)
 8000d9a:	2600      	movs	r6, #0
 8000d9c:	e783      	b.n	8000ca6 <__aeabi_dadd+0x292>
 8000d9e:	46c0      	nop			@ (mov r8, r8)
 8000da0:	000007ff 	.word	0x000007ff
 8000da4:	ff7fffff 	.word	0xff7fffff
 8000da8:	000007fe 	.word	0x000007fe
 8000dac:	464b      	mov	r3, r9
 8000dae:	0777      	lsls	r7, r6, #29
 8000db0:	08d8      	lsrs	r0, r3, #3
 8000db2:	4307      	orrs	r7, r0
 8000db4:	08f0      	lsrs	r0, r6, #3
 8000db6:	e791      	b.n	8000cdc <__aeabi_dadd+0x2c8>
 8000db8:	4fcd      	ldr	r7, [pc, #820]	@ (80010f0 <__aeabi_dadd+0x6dc>)
 8000dba:	1c61      	adds	r1, r4, #1
 8000dbc:	4239      	tst	r1, r7
 8000dbe:	d16b      	bne.n	8000e98 <__aeabi_dadd+0x484>
 8000dc0:	0031      	movs	r1, r6
 8000dc2:	4648      	mov	r0, r9
 8000dc4:	4301      	orrs	r1, r0
 8000dc6:	2c00      	cmp	r4, #0
 8000dc8:	d000      	beq.n	8000dcc <__aeabi_dadd+0x3b8>
 8000dca:	e14b      	b.n	8001064 <__aeabi_dadd+0x650>
 8000dcc:	001f      	movs	r7, r3
 8000dce:	4317      	orrs	r7, r2
 8000dd0:	2900      	cmp	r1, #0
 8000dd2:	d100      	bne.n	8000dd6 <__aeabi_dadd+0x3c2>
 8000dd4:	e181      	b.n	80010da <__aeabi_dadd+0x6c6>
 8000dd6:	2f00      	cmp	r7, #0
 8000dd8:	d100      	bne.n	8000ddc <__aeabi_dadd+0x3c8>
 8000dda:	e74c      	b.n	8000c76 <__aeabi_dadd+0x262>
 8000ddc:	444a      	add	r2, r9
 8000dde:	454a      	cmp	r2, r9
 8000de0:	4180      	sbcs	r0, r0
 8000de2:	18f6      	adds	r6, r6, r3
 8000de4:	4240      	negs	r0, r0
 8000de6:	1836      	adds	r6, r6, r0
 8000de8:	0233      	lsls	r3, r6, #8
 8000dea:	d500      	bpl.n	8000dee <__aeabi_dadd+0x3da>
 8000dec:	e1b0      	b.n	8001150 <__aeabi_dadd+0x73c>
 8000dee:	0017      	movs	r7, r2
 8000df0:	4691      	mov	r9, r2
 8000df2:	4337      	orrs	r7, r6
 8000df4:	d000      	beq.n	8000df8 <__aeabi_dadd+0x3e4>
 8000df6:	e73e      	b.n	8000c76 <__aeabi_dadd+0x262>
 8000df8:	2600      	movs	r6, #0
 8000dfa:	e754      	b.n	8000ca6 <__aeabi_dadd+0x292>
 8000dfc:	4649      	mov	r1, r9
 8000dfe:	1a89      	subs	r1, r1, r2
 8000e00:	4688      	mov	r8, r1
 8000e02:	45c1      	cmp	r9, r8
 8000e04:	41bf      	sbcs	r7, r7
 8000e06:	1af1      	subs	r1, r6, r3
 8000e08:	427f      	negs	r7, r7
 8000e0a:	1bc9      	subs	r1, r1, r7
 8000e0c:	020f      	lsls	r7, r1, #8
 8000e0e:	d461      	bmi.n	8000ed4 <__aeabi_dadd+0x4c0>
 8000e10:	4647      	mov	r7, r8
 8000e12:	430f      	orrs	r7, r1
 8000e14:	d100      	bne.n	8000e18 <__aeabi_dadd+0x404>
 8000e16:	e0bd      	b.n	8000f94 <__aeabi_dadd+0x580>
 8000e18:	000e      	movs	r6, r1
 8000e1a:	4647      	mov	r7, r8
 8000e1c:	e651      	b.n	8000ac2 <__aeabi_dadd+0xae>
 8000e1e:	4cb5      	ldr	r4, [pc, #724]	@ (80010f4 <__aeabi_dadd+0x6e0>)
 8000e20:	45a0      	cmp	r8, r4
 8000e22:	d100      	bne.n	8000e26 <__aeabi_dadd+0x412>
 8000e24:	e100      	b.n	8001028 <__aeabi_dadd+0x614>
 8000e26:	2701      	movs	r7, #1
 8000e28:	2938      	cmp	r1, #56	@ 0x38
 8000e2a:	dd00      	ble.n	8000e2e <__aeabi_dadd+0x41a>
 8000e2c:	e6b8      	b.n	8000ba0 <__aeabi_dadd+0x18c>
 8000e2e:	2480      	movs	r4, #128	@ 0x80
 8000e30:	0424      	lsls	r4, r4, #16
 8000e32:	4326      	orrs	r6, r4
 8000e34:	e6a3      	b.n	8000b7e <__aeabi_dadd+0x16a>
 8000e36:	4eb0      	ldr	r6, [pc, #704]	@ (80010f8 <__aeabi_dadd+0x6e4>)
 8000e38:	1ae4      	subs	r4, r4, r3
 8000e3a:	4016      	ands	r6, r2
 8000e3c:	077b      	lsls	r3, r7, #29
 8000e3e:	d000      	beq.n	8000e42 <__aeabi_dadd+0x42e>
 8000e40:	e73f      	b.n	8000cc2 <__aeabi_dadd+0x2ae>
 8000e42:	e743      	b.n	8000ccc <__aeabi_dadd+0x2b8>
 8000e44:	000f      	movs	r7, r1
 8000e46:	0018      	movs	r0, r3
 8000e48:	3f20      	subs	r7, #32
 8000e4a:	40f8      	lsrs	r0, r7
 8000e4c:	4684      	mov	ip, r0
 8000e4e:	2920      	cmp	r1, #32
 8000e50:	d003      	beq.n	8000e5a <__aeabi_dadd+0x446>
 8000e52:	2740      	movs	r7, #64	@ 0x40
 8000e54:	1a79      	subs	r1, r7, r1
 8000e56:	408b      	lsls	r3, r1
 8000e58:	431a      	orrs	r2, r3
 8000e5a:	1e53      	subs	r3, r2, #1
 8000e5c:	419a      	sbcs	r2, r3
 8000e5e:	4663      	mov	r3, ip
 8000e60:	0017      	movs	r7, r2
 8000e62:	431f      	orrs	r7, r3
 8000e64:	e622      	b.n	8000aac <__aeabi_dadd+0x98>
 8000e66:	48a4      	ldr	r0, [pc, #656]	@ (80010f8 <__aeabi_dadd+0x6e4>)
 8000e68:	1ae1      	subs	r1, r4, r3
 8000e6a:	4010      	ands	r0, r2
 8000e6c:	0747      	lsls	r7, r0, #29
 8000e6e:	08c0      	lsrs	r0, r0, #3
 8000e70:	e707      	b.n	8000c82 <__aeabi_dadd+0x26e>
 8000e72:	0034      	movs	r4, r6
 8000e74:	4648      	mov	r0, r9
 8000e76:	4304      	orrs	r4, r0
 8000e78:	d100      	bne.n	8000e7c <__aeabi_dadd+0x468>
 8000e7a:	e0fa      	b.n	8001072 <__aeabi_dadd+0x65e>
 8000e7c:	1e4c      	subs	r4, r1, #1
 8000e7e:	2901      	cmp	r1, #1
 8000e80:	d100      	bne.n	8000e84 <__aeabi_dadd+0x470>
 8000e82:	e0d7      	b.n	8001034 <__aeabi_dadd+0x620>
 8000e84:	4f9b      	ldr	r7, [pc, #620]	@ (80010f4 <__aeabi_dadd+0x6e0>)
 8000e86:	42b9      	cmp	r1, r7
 8000e88:	d100      	bne.n	8000e8c <__aeabi_dadd+0x478>
 8000e8a:	e0e2      	b.n	8001052 <__aeabi_dadd+0x63e>
 8000e8c:	2701      	movs	r7, #1
 8000e8e:	2c38      	cmp	r4, #56	@ 0x38
 8000e90:	dd00      	ble.n	8000e94 <__aeabi_dadd+0x480>
 8000e92:	e74f      	b.n	8000d34 <__aeabi_dadd+0x320>
 8000e94:	0021      	movs	r1, r4
 8000e96:	e73c      	b.n	8000d12 <__aeabi_dadd+0x2fe>
 8000e98:	4c96      	ldr	r4, [pc, #600]	@ (80010f4 <__aeabi_dadd+0x6e0>)
 8000e9a:	42a1      	cmp	r1, r4
 8000e9c:	d100      	bne.n	8000ea0 <__aeabi_dadd+0x48c>
 8000e9e:	e0dd      	b.n	800105c <__aeabi_dadd+0x648>
 8000ea0:	444a      	add	r2, r9
 8000ea2:	454a      	cmp	r2, r9
 8000ea4:	4180      	sbcs	r0, r0
 8000ea6:	18f3      	adds	r3, r6, r3
 8000ea8:	4240      	negs	r0, r0
 8000eaa:	1818      	adds	r0, r3, r0
 8000eac:	07c7      	lsls	r7, r0, #31
 8000eae:	0852      	lsrs	r2, r2, #1
 8000eb0:	4317      	orrs	r7, r2
 8000eb2:	0846      	lsrs	r6, r0, #1
 8000eb4:	0752      	lsls	r2, r2, #29
 8000eb6:	d005      	beq.n	8000ec4 <__aeabi_dadd+0x4b0>
 8000eb8:	220f      	movs	r2, #15
 8000eba:	000c      	movs	r4, r1
 8000ebc:	403a      	ands	r2, r7
 8000ebe:	2a04      	cmp	r2, #4
 8000ec0:	d000      	beq.n	8000ec4 <__aeabi_dadd+0x4b0>
 8000ec2:	e62c      	b.n	8000b1e <__aeabi_dadd+0x10a>
 8000ec4:	0776      	lsls	r6, r6, #29
 8000ec6:	08ff      	lsrs	r7, r7, #3
 8000ec8:	4337      	orrs	r7, r6
 8000eca:	0900      	lsrs	r0, r0, #4
 8000ecc:	e6d9      	b.n	8000c82 <__aeabi_dadd+0x26e>
 8000ece:	2700      	movs	r7, #0
 8000ed0:	2600      	movs	r6, #0
 8000ed2:	e6e8      	b.n	8000ca6 <__aeabi_dadd+0x292>
 8000ed4:	4649      	mov	r1, r9
 8000ed6:	1a57      	subs	r7, r2, r1
 8000ed8:	42ba      	cmp	r2, r7
 8000eda:	4192      	sbcs	r2, r2
 8000edc:	1b9e      	subs	r6, r3, r6
 8000ede:	4252      	negs	r2, r2
 8000ee0:	4665      	mov	r5, ip
 8000ee2:	1ab6      	subs	r6, r6, r2
 8000ee4:	e5ed      	b.n	8000ac2 <__aeabi_dadd+0xae>
 8000ee6:	2900      	cmp	r1, #0
 8000ee8:	d000      	beq.n	8000eec <__aeabi_dadd+0x4d8>
 8000eea:	e0c6      	b.n	800107a <__aeabi_dadd+0x666>
 8000eec:	2f00      	cmp	r7, #0
 8000eee:	d167      	bne.n	8000fc0 <__aeabi_dadd+0x5ac>
 8000ef0:	2680      	movs	r6, #128	@ 0x80
 8000ef2:	2500      	movs	r5, #0
 8000ef4:	4c7f      	ldr	r4, [pc, #508]	@ (80010f4 <__aeabi_dadd+0x6e0>)
 8000ef6:	0336      	lsls	r6, r6, #12
 8000ef8:	e6d5      	b.n	8000ca6 <__aeabi_dadd+0x292>
 8000efa:	4665      	mov	r5, ip
 8000efc:	000c      	movs	r4, r1
 8000efe:	001e      	movs	r6, r3
 8000f00:	08d0      	lsrs	r0, r2, #3
 8000f02:	e6e4      	b.n	8000cce <__aeabi_dadd+0x2ba>
 8000f04:	444a      	add	r2, r9
 8000f06:	454a      	cmp	r2, r9
 8000f08:	4180      	sbcs	r0, r0
 8000f0a:	18f3      	adds	r3, r6, r3
 8000f0c:	4240      	negs	r0, r0
 8000f0e:	1818      	adds	r0, r3, r0
 8000f10:	0011      	movs	r1, r2
 8000f12:	0203      	lsls	r3, r0, #8
 8000f14:	d400      	bmi.n	8000f18 <__aeabi_dadd+0x504>
 8000f16:	e096      	b.n	8001046 <__aeabi_dadd+0x632>
 8000f18:	4b77      	ldr	r3, [pc, #476]	@ (80010f8 <__aeabi_dadd+0x6e4>)
 8000f1a:	0849      	lsrs	r1, r1, #1
 8000f1c:	4018      	ands	r0, r3
 8000f1e:	07c3      	lsls	r3, r0, #31
 8000f20:	430b      	orrs	r3, r1
 8000f22:	0844      	lsrs	r4, r0, #1
 8000f24:	0749      	lsls	r1, r1, #29
 8000f26:	d100      	bne.n	8000f2a <__aeabi_dadd+0x516>
 8000f28:	e129      	b.n	800117e <__aeabi_dadd+0x76a>
 8000f2a:	220f      	movs	r2, #15
 8000f2c:	401a      	ands	r2, r3
 8000f2e:	2a04      	cmp	r2, #4
 8000f30:	d100      	bne.n	8000f34 <__aeabi_dadd+0x520>
 8000f32:	e0ea      	b.n	800110a <__aeabi_dadd+0x6f6>
 8000f34:	1d1f      	adds	r7, r3, #4
 8000f36:	429f      	cmp	r7, r3
 8000f38:	41b6      	sbcs	r6, r6
 8000f3a:	4276      	negs	r6, r6
 8000f3c:	1936      	adds	r6, r6, r4
 8000f3e:	2402      	movs	r4, #2
 8000f40:	e6c4      	b.n	8000ccc <__aeabi_dadd+0x2b8>
 8000f42:	4649      	mov	r1, r9
 8000f44:	1a8f      	subs	r7, r1, r2
 8000f46:	45b9      	cmp	r9, r7
 8000f48:	4180      	sbcs	r0, r0
 8000f4a:	1af6      	subs	r6, r6, r3
 8000f4c:	4240      	negs	r0, r0
 8000f4e:	1a36      	subs	r6, r6, r0
 8000f50:	0233      	lsls	r3, r6, #8
 8000f52:	d406      	bmi.n	8000f62 <__aeabi_dadd+0x54e>
 8000f54:	0773      	lsls	r3, r6, #29
 8000f56:	08ff      	lsrs	r7, r7, #3
 8000f58:	2101      	movs	r1, #1
 8000f5a:	431f      	orrs	r7, r3
 8000f5c:	08f0      	lsrs	r0, r6, #3
 8000f5e:	e690      	b.n	8000c82 <__aeabi_dadd+0x26e>
 8000f60:	4665      	mov	r5, ip
 8000f62:	2401      	movs	r4, #1
 8000f64:	e5ab      	b.n	8000abe <__aeabi_dadd+0xaa>
 8000f66:	464b      	mov	r3, r9
 8000f68:	0777      	lsls	r7, r6, #29
 8000f6a:	08d8      	lsrs	r0, r3, #3
 8000f6c:	4307      	orrs	r7, r0
 8000f6e:	08f0      	lsrs	r0, r6, #3
 8000f70:	e6b4      	b.n	8000cdc <__aeabi_dadd+0x2c8>
 8000f72:	000f      	movs	r7, r1
 8000f74:	0018      	movs	r0, r3
 8000f76:	3f20      	subs	r7, #32
 8000f78:	40f8      	lsrs	r0, r7
 8000f7a:	4684      	mov	ip, r0
 8000f7c:	2920      	cmp	r1, #32
 8000f7e:	d003      	beq.n	8000f88 <__aeabi_dadd+0x574>
 8000f80:	2740      	movs	r7, #64	@ 0x40
 8000f82:	1a79      	subs	r1, r7, r1
 8000f84:	408b      	lsls	r3, r1
 8000f86:	431a      	orrs	r2, r3
 8000f88:	1e53      	subs	r3, r2, #1
 8000f8a:	419a      	sbcs	r2, r3
 8000f8c:	4663      	mov	r3, ip
 8000f8e:	0017      	movs	r7, r2
 8000f90:	431f      	orrs	r7, r3
 8000f92:	e635      	b.n	8000c00 <__aeabi_dadd+0x1ec>
 8000f94:	2500      	movs	r5, #0
 8000f96:	2400      	movs	r4, #0
 8000f98:	2600      	movs	r6, #0
 8000f9a:	e684      	b.n	8000ca6 <__aeabi_dadd+0x292>
 8000f9c:	000c      	movs	r4, r1
 8000f9e:	0035      	movs	r5, r6
 8000fa0:	3c20      	subs	r4, #32
 8000fa2:	40e5      	lsrs	r5, r4
 8000fa4:	2920      	cmp	r1, #32
 8000fa6:	d005      	beq.n	8000fb4 <__aeabi_dadd+0x5a0>
 8000fa8:	2440      	movs	r4, #64	@ 0x40
 8000faa:	1a61      	subs	r1, r4, r1
 8000fac:	408e      	lsls	r6, r1
 8000fae:	4649      	mov	r1, r9
 8000fb0:	4331      	orrs	r1, r6
 8000fb2:	4689      	mov	r9, r1
 8000fb4:	4648      	mov	r0, r9
 8000fb6:	1e41      	subs	r1, r0, #1
 8000fb8:	4188      	sbcs	r0, r1
 8000fba:	0007      	movs	r7, r0
 8000fbc:	432f      	orrs	r7, r5
 8000fbe:	e5ef      	b.n	8000ba0 <__aeabi_dadd+0x18c>
 8000fc0:	08d2      	lsrs	r2, r2, #3
 8000fc2:	075f      	lsls	r7, r3, #29
 8000fc4:	4665      	mov	r5, ip
 8000fc6:	4317      	orrs	r7, r2
 8000fc8:	08d8      	lsrs	r0, r3, #3
 8000fca:	e687      	b.n	8000cdc <__aeabi_dadd+0x2c8>
 8000fcc:	1a17      	subs	r7, r2, r0
 8000fce:	42ba      	cmp	r2, r7
 8000fd0:	4192      	sbcs	r2, r2
 8000fd2:	1b9e      	subs	r6, r3, r6
 8000fd4:	4252      	negs	r2, r2
 8000fd6:	1ab6      	subs	r6, r6, r2
 8000fd8:	0233      	lsls	r3, r6, #8
 8000fda:	d4c1      	bmi.n	8000f60 <__aeabi_dadd+0x54c>
 8000fdc:	0773      	lsls	r3, r6, #29
 8000fde:	08ff      	lsrs	r7, r7, #3
 8000fe0:	4665      	mov	r5, ip
 8000fe2:	2101      	movs	r1, #1
 8000fe4:	431f      	orrs	r7, r3
 8000fe6:	08f0      	lsrs	r0, r6, #3
 8000fe8:	e64b      	b.n	8000c82 <__aeabi_dadd+0x26e>
 8000fea:	2f00      	cmp	r7, #0
 8000fec:	d07b      	beq.n	80010e6 <__aeabi_dadd+0x6d2>
 8000fee:	4665      	mov	r5, ip
 8000ff0:	001e      	movs	r6, r3
 8000ff2:	4691      	mov	r9, r2
 8000ff4:	e63f      	b.n	8000c76 <__aeabi_dadd+0x262>
 8000ff6:	1a81      	subs	r1, r0, r2
 8000ff8:	4688      	mov	r8, r1
 8000ffa:	45c1      	cmp	r9, r8
 8000ffc:	41a4      	sbcs	r4, r4
 8000ffe:	1af1      	subs	r1, r6, r3
 8001000:	4264      	negs	r4, r4
 8001002:	1b09      	subs	r1, r1, r4
 8001004:	2480      	movs	r4, #128	@ 0x80
 8001006:	0424      	lsls	r4, r4, #16
 8001008:	4221      	tst	r1, r4
 800100a:	d077      	beq.n	80010fc <__aeabi_dadd+0x6e8>
 800100c:	1a10      	subs	r0, r2, r0
 800100e:	4282      	cmp	r2, r0
 8001010:	4192      	sbcs	r2, r2
 8001012:	0007      	movs	r7, r0
 8001014:	1b9e      	subs	r6, r3, r6
 8001016:	4252      	negs	r2, r2
 8001018:	1ab6      	subs	r6, r6, r2
 800101a:	4337      	orrs	r7, r6
 800101c:	d000      	beq.n	8001020 <__aeabi_dadd+0x60c>
 800101e:	e0a0      	b.n	8001162 <__aeabi_dadd+0x74e>
 8001020:	4665      	mov	r5, ip
 8001022:	2400      	movs	r4, #0
 8001024:	2600      	movs	r6, #0
 8001026:	e63e      	b.n	8000ca6 <__aeabi_dadd+0x292>
 8001028:	075f      	lsls	r7, r3, #29
 800102a:	08d2      	lsrs	r2, r2, #3
 800102c:	4665      	mov	r5, ip
 800102e:	4317      	orrs	r7, r2
 8001030:	08d8      	lsrs	r0, r3, #3
 8001032:	e653      	b.n	8000cdc <__aeabi_dadd+0x2c8>
 8001034:	1881      	adds	r1, r0, r2
 8001036:	4291      	cmp	r1, r2
 8001038:	4192      	sbcs	r2, r2
 800103a:	18f0      	adds	r0, r6, r3
 800103c:	4252      	negs	r2, r2
 800103e:	1880      	adds	r0, r0, r2
 8001040:	0203      	lsls	r3, r0, #8
 8001042:	d500      	bpl.n	8001046 <__aeabi_dadd+0x632>
 8001044:	e768      	b.n	8000f18 <__aeabi_dadd+0x504>
 8001046:	0747      	lsls	r7, r0, #29
 8001048:	08c9      	lsrs	r1, r1, #3
 800104a:	430f      	orrs	r7, r1
 800104c:	08c0      	lsrs	r0, r0, #3
 800104e:	2101      	movs	r1, #1
 8001050:	e617      	b.n	8000c82 <__aeabi_dadd+0x26e>
 8001052:	08d2      	lsrs	r2, r2, #3
 8001054:	075f      	lsls	r7, r3, #29
 8001056:	4317      	orrs	r7, r2
 8001058:	08d8      	lsrs	r0, r3, #3
 800105a:	e63f      	b.n	8000cdc <__aeabi_dadd+0x2c8>
 800105c:	000c      	movs	r4, r1
 800105e:	2600      	movs	r6, #0
 8001060:	2700      	movs	r7, #0
 8001062:	e620      	b.n	8000ca6 <__aeabi_dadd+0x292>
 8001064:	2900      	cmp	r1, #0
 8001066:	d156      	bne.n	8001116 <__aeabi_dadd+0x702>
 8001068:	075f      	lsls	r7, r3, #29
 800106a:	08d2      	lsrs	r2, r2, #3
 800106c:	4317      	orrs	r7, r2
 800106e:	08d8      	lsrs	r0, r3, #3
 8001070:	e634      	b.n	8000cdc <__aeabi_dadd+0x2c8>
 8001072:	000c      	movs	r4, r1
 8001074:	001e      	movs	r6, r3
 8001076:	08d0      	lsrs	r0, r2, #3
 8001078:	e629      	b.n	8000cce <__aeabi_dadd+0x2ba>
 800107a:	08c1      	lsrs	r1, r0, #3
 800107c:	0770      	lsls	r0, r6, #29
 800107e:	4301      	orrs	r1, r0
 8001080:	08f0      	lsrs	r0, r6, #3
 8001082:	2f00      	cmp	r7, #0
 8001084:	d062      	beq.n	800114c <__aeabi_dadd+0x738>
 8001086:	2480      	movs	r4, #128	@ 0x80
 8001088:	0324      	lsls	r4, r4, #12
 800108a:	4220      	tst	r0, r4
 800108c:	d007      	beq.n	800109e <__aeabi_dadd+0x68a>
 800108e:	08de      	lsrs	r6, r3, #3
 8001090:	4226      	tst	r6, r4
 8001092:	d104      	bne.n	800109e <__aeabi_dadd+0x68a>
 8001094:	4665      	mov	r5, ip
 8001096:	0030      	movs	r0, r6
 8001098:	08d1      	lsrs	r1, r2, #3
 800109a:	075b      	lsls	r3, r3, #29
 800109c:	4319      	orrs	r1, r3
 800109e:	0f4f      	lsrs	r7, r1, #29
 80010a0:	00c9      	lsls	r1, r1, #3
 80010a2:	08c9      	lsrs	r1, r1, #3
 80010a4:	077f      	lsls	r7, r7, #29
 80010a6:	430f      	orrs	r7, r1
 80010a8:	e618      	b.n	8000cdc <__aeabi_dadd+0x2c8>
 80010aa:	000c      	movs	r4, r1
 80010ac:	0030      	movs	r0, r6
 80010ae:	3c20      	subs	r4, #32
 80010b0:	40e0      	lsrs	r0, r4
 80010b2:	4684      	mov	ip, r0
 80010b4:	2920      	cmp	r1, #32
 80010b6:	d005      	beq.n	80010c4 <__aeabi_dadd+0x6b0>
 80010b8:	2440      	movs	r4, #64	@ 0x40
 80010ba:	1a61      	subs	r1, r4, r1
 80010bc:	408e      	lsls	r6, r1
 80010be:	4649      	mov	r1, r9
 80010c0:	4331      	orrs	r1, r6
 80010c2:	4689      	mov	r9, r1
 80010c4:	4648      	mov	r0, r9
 80010c6:	1e41      	subs	r1, r0, #1
 80010c8:	4188      	sbcs	r0, r1
 80010ca:	4661      	mov	r1, ip
 80010cc:	0007      	movs	r7, r0
 80010ce:	430f      	orrs	r7, r1
 80010d0:	e630      	b.n	8000d34 <__aeabi_dadd+0x320>
 80010d2:	2120      	movs	r1, #32
 80010d4:	2700      	movs	r7, #0
 80010d6:	1a09      	subs	r1, r1, r0
 80010d8:	e50e      	b.n	8000af8 <__aeabi_dadd+0xe4>
 80010da:	001e      	movs	r6, r3
 80010dc:	2f00      	cmp	r7, #0
 80010de:	d000      	beq.n	80010e2 <__aeabi_dadd+0x6ce>
 80010e0:	e522      	b.n	8000b28 <__aeabi_dadd+0x114>
 80010e2:	2400      	movs	r4, #0
 80010e4:	e758      	b.n	8000f98 <__aeabi_dadd+0x584>
 80010e6:	2500      	movs	r5, #0
 80010e8:	2400      	movs	r4, #0
 80010ea:	2600      	movs	r6, #0
 80010ec:	e5db      	b.n	8000ca6 <__aeabi_dadd+0x292>
 80010ee:	46c0      	nop			@ (mov r8, r8)
 80010f0:	000007fe 	.word	0x000007fe
 80010f4:	000007ff 	.word	0x000007ff
 80010f8:	ff7fffff 	.word	0xff7fffff
 80010fc:	4647      	mov	r7, r8
 80010fe:	430f      	orrs	r7, r1
 8001100:	d100      	bne.n	8001104 <__aeabi_dadd+0x6f0>
 8001102:	e747      	b.n	8000f94 <__aeabi_dadd+0x580>
 8001104:	000e      	movs	r6, r1
 8001106:	46c1      	mov	r9, r8
 8001108:	e5b5      	b.n	8000c76 <__aeabi_dadd+0x262>
 800110a:	08df      	lsrs	r7, r3, #3
 800110c:	0764      	lsls	r4, r4, #29
 800110e:	2102      	movs	r1, #2
 8001110:	4327      	orrs	r7, r4
 8001112:	0900      	lsrs	r0, r0, #4
 8001114:	e5b5      	b.n	8000c82 <__aeabi_dadd+0x26e>
 8001116:	0019      	movs	r1, r3
 8001118:	08c0      	lsrs	r0, r0, #3
 800111a:	0777      	lsls	r7, r6, #29
 800111c:	4307      	orrs	r7, r0
 800111e:	4311      	orrs	r1, r2
 8001120:	08f0      	lsrs	r0, r6, #3
 8001122:	2900      	cmp	r1, #0
 8001124:	d100      	bne.n	8001128 <__aeabi_dadd+0x714>
 8001126:	e5d9      	b.n	8000cdc <__aeabi_dadd+0x2c8>
 8001128:	2180      	movs	r1, #128	@ 0x80
 800112a:	0309      	lsls	r1, r1, #12
 800112c:	4208      	tst	r0, r1
 800112e:	d007      	beq.n	8001140 <__aeabi_dadd+0x72c>
 8001130:	08dc      	lsrs	r4, r3, #3
 8001132:	420c      	tst	r4, r1
 8001134:	d104      	bne.n	8001140 <__aeabi_dadd+0x72c>
 8001136:	08d2      	lsrs	r2, r2, #3
 8001138:	075b      	lsls	r3, r3, #29
 800113a:	431a      	orrs	r2, r3
 800113c:	0017      	movs	r7, r2
 800113e:	0020      	movs	r0, r4
 8001140:	0f7b      	lsrs	r3, r7, #29
 8001142:	00ff      	lsls	r7, r7, #3
 8001144:	08ff      	lsrs	r7, r7, #3
 8001146:	075b      	lsls	r3, r3, #29
 8001148:	431f      	orrs	r7, r3
 800114a:	e5c7      	b.n	8000cdc <__aeabi_dadd+0x2c8>
 800114c:	000f      	movs	r7, r1
 800114e:	e5c5      	b.n	8000cdc <__aeabi_dadd+0x2c8>
 8001150:	4b12      	ldr	r3, [pc, #72]	@ (800119c <__aeabi_dadd+0x788>)
 8001152:	08d2      	lsrs	r2, r2, #3
 8001154:	4033      	ands	r3, r6
 8001156:	075f      	lsls	r7, r3, #29
 8001158:	025b      	lsls	r3, r3, #9
 800115a:	2401      	movs	r4, #1
 800115c:	4317      	orrs	r7, r2
 800115e:	0b1e      	lsrs	r6, r3, #12
 8001160:	e5a1      	b.n	8000ca6 <__aeabi_dadd+0x292>
 8001162:	4226      	tst	r6, r4
 8001164:	d012      	beq.n	800118c <__aeabi_dadd+0x778>
 8001166:	4b0d      	ldr	r3, [pc, #52]	@ (800119c <__aeabi_dadd+0x788>)
 8001168:	4665      	mov	r5, ip
 800116a:	0002      	movs	r2, r0
 800116c:	2401      	movs	r4, #1
 800116e:	401e      	ands	r6, r3
 8001170:	e4e6      	b.n	8000b40 <__aeabi_dadd+0x12c>
 8001172:	0021      	movs	r1, r4
 8001174:	e585      	b.n	8000c82 <__aeabi_dadd+0x26e>
 8001176:	0017      	movs	r7, r2
 8001178:	e5a8      	b.n	8000ccc <__aeabi_dadd+0x2b8>
 800117a:	003a      	movs	r2, r7
 800117c:	e4d4      	b.n	8000b28 <__aeabi_dadd+0x114>
 800117e:	08db      	lsrs	r3, r3, #3
 8001180:	0764      	lsls	r4, r4, #29
 8001182:	431c      	orrs	r4, r3
 8001184:	0027      	movs	r7, r4
 8001186:	2102      	movs	r1, #2
 8001188:	0900      	lsrs	r0, r0, #4
 800118a:	e57a      	b.n	8000c82 <__aeabi_dadd+0x26e>
 800118c:	08c0      	lsrs	r0, r0, #3
 800118e:	0777      	lsls	r7, r6, #29
 8001190:	4307      	orrs	r7, r0
 8001192:	4665      	mov	r5, ip
 8001194:	2100      	movs	r1, #0
 8001196:	08f0      	lsrs	r0, r6, #3
 8001198:	e573      	b.n	8000c82 <__aeabi_dadd+0x26e>
 800119a:	46c0      	nop			@ (mov r8, r8)
 800119c:	ff7fffff 	.word	0xff7fffff

080011a0 <__aeabi_ddiv>:
 80011a0:	b5f0      	push	{r4, r5, r6, r7, lr}
 80011a2:	46de      	mov	lr, fp
 80011a4:	4645      	mov	r5, r8
 80011a6:	4657      	mov	r7, sl
 80011a8:	464e      	mov	r6, r9
 80011aa:	b5e0      	push	{r5, r6, r7, lr}
 80011ac:	b087      	sub	sp, #28
 80011ae:	9200      	str	r2, [sp, #0]
 80011b0:	9301      	str	r3, [sp, #4]
 80011b2:	030b      	lsls	r3, r1, #12
 80011b4:	0b1b      	lsrs	r3, r3, #12
 80011b6:	469b      	mov	fp, r3
 80011b8:	0fca      	lsrs	r2, r1, #31
 80011ba:	004b      	lsls	r3, r1, #1
 80011bc:	0004      	movs	r4, r0
 80011be:	4680      	mov	r8, r0
 80011c0:	0d5b      	lsrs	r3, r3, #21
 80011c2:	9202      	str	r2, [sp, #8]
 80011c4:	d100      	bne.n	80011c8 <__aeabi_ddiv+0x28>
 80011c6:	e098      	b.n	80012fa <__aeabi_ddiv+0x15a>
 80011c8:	4a7c      	ldr	r2, [pc, #496]	@ (80013bc <__aeabi_ddiv+0x21c>)
 80011ca:	4293      	cmp	r3, r2
 80011cc:	d037      	beq.n	800123e <__aeabi_ddiv+0x9e>
 80011ce:	4659      	mov	r1, fp
 80011d0:	0f42      	lsrs	r2, r0, #29
 80011d2:	00c9      	lsls	r1, r1, #3
 80011d4:	430a      	orrs	r2, r1
 80011d6:	2180      	movs	r1, #128	@ 0x80
 80011d8:	0409      	lsls	r1, r1, #16
 80011da:	4311      	orrs	r1, r2
 80011dc:	00c2      	lsls	r2, r0, #3
 80011de:	4690      	mov	r8, r2
 80011e0:	4a77      	ldr	r2, [pc, #476]	@ (80013c0 <__aeabi_ddiv+0x220>)
 80011e2:	4689      	mov	r9, r1
 80011e4:	4692      	mov	sl, r2
 80011e6:	449a      	add	sl, r3
 80011e8:	2300      	movs	r3, #0
 80011ea:	2400      	movs	r4, #0
 80011ec:	9303      	str	r3, [sp, #12]
 80011ee:	9e00      	ldr	r6, [sp, #0]
 80011f0:	9f01      	ldr	r7, [sp, #4]
 80011f2:	033b      	lsls	r3, r7, #12
 80011f4:	0b1b      	lsrs	r3, r3, #12
 80011f6:	469b      	mov	fp, r3
 80011f8:	007b      	lsls	r3, r7, #1
 80011fa:	0030      	movs	r0, r6
 80011fc:	0d5b      	lsrs	r3, r3, #21
 80011fe:	0ffd      	lsrs	r5, r7, #31
 8001200:	2b00      	cmp	r3, #0
 8001202:	d059      	beq.n	80012b8 <__aeabi_ddiv+0x118>
 8001204:	4a6d      	ldr	r2, [pc, #436]	@ (80013bc <__aeabi_ddiv+0x21c>)
 8001206:	4293      	cmp	r3, r2
 8001208:	d048      	beq.n	800129c <__aeabi_ddiv+0xfc>
 800120a:	4659      	mov	r1, fp
 800120c:	0f72      	lsrs	r2, r6, #29
 800120e:	00c9      	lsls	r1, r1, #3
 8001210:	430a      	orrs	r2, r1
 8001212:	2180      	movs	r1, #128	@ 0x80
 8001214:	0409      	lsls	r1, r1, #16
 8001216:	4311      	orrs	r1, r2
 8001218:	468b      	mov	fp, r1
 800121a:	4969      	ldr	r1, [pc, #420]	@ (80013c0 <__aeabi_ddiv+0x220>)
 800121c:	00f2      	lsls	r2, r6, #3
 800121e:	468c      	mov	ip, r1
 8001220:	4651      	mov	r1, sl
 8001222:	4463      	add	r3, ip
 8001224:	1acb      	subs	r3, r1, r3
 8001226:	469a      	mov	sl, r3
 8001228:	2100      	movs	r1, #0
 800122a:	9e02      	ldr	r6, [sp, #8]
 800122c:	406e      	eors	r6, r5
 800122e:	b2f6      	uxtb	r6, r6
 8001230:	2c0f      	cmp	r4, #15
 8001232:	d900      	bls.n	8001236 <__aeabi_ddiv+0x96>
 8001234:	e0ce      	b.n	80013d4 <__aeabi_ddiv+0x234>
 8001236:	4b63      	ldr	r3, [pc, #396]	@ (80013c4 <__aeabi_ddiv+0x224>)
 8001238:	00a4      	lsls	r4, r4, #2
 800123a:	591b      	ldr	r3, [r3, r4]
 800123c:	469f      	mov	pc, r3
 800123e:	465a      	mov	r2, fp
 8001240:	4302      	orrs	r2, r0
 8001242:	4691      	mov	r9, r2
 8001244:	d000      	beq.n	8001248 <__aeabi_ddiv+0xa8>
 8001246:	e090      	b.n	800136a <__aeabi_ddiv+0x1ca>
 8001248:	469a      	mov	sl, r3
 800124a:	2302      	movs	r3, #2
 800124c:	4690      	mov	r8, r2
 800124e:	2408      	movs	r4, #8
 8001250:	9303      	str	r3, [sp, #12]
 8001252:	e7cc      	b.n	80011ee <__aeabi_ddiv+0x4e>
 8001254:	46cb      	mov	fp, r9
 8001256:	4642      	mov	r2, r8
 8001258:	9d02      	ldr	r5, [sp, #8]
 800125a:	9903      	ldr	r1, [sp, #12]
 800125c:	2902      	cmp	r1, #2
 800125e:	d100      	bne.n	8001262 <__aeabi_ddiv+0xc2>
 8001260:	e1de      	b.n	8001620 <__aeabi_ddiv+0x480>
 8001262:	2903      	cmp	r1, #3
 8001264:	d100      	bne.n	8001268 <__aeabi_ddiv+0xc8>
 8001266:	e08d      	b.n	8001384 <__aeabi_ddiv+0x1e4>
 8001268:	2901      	cmp	r1, #1
 800126a:	d000      	beq.n	800126e <__aeabi_ddiv+0xce>
 800126c:	e179      	b.n	8001562 <__aeabi_ddiv+0x3c2>
 800126e:	002e      	movs	r6, r5
 8001270:	2200      	movs	r2, #0
 8001272:	2300      	movs	r3, #0
 8001274:	2400      	movs	r4, #0
 8001276:	4690      	mov	r8, r2
 8001278:	051b      	lsls	r3, r3, #20
 800127a:	4323      	orrs	r3, r4
 800127c:	07f6      	lsls	r6, r6, #31
 800127e:	4333      	orrs	r3, r6
 8001280:	4640      	mov	r0, r8
 8001282:	0019      	movs	r1, r3
 8001284:	b007      	add	sp, #28
 8001286:	bcf0      	pop	{r4, r5, r6, r7}
 8001288:	46bb      	mov	fp, r7
 800128a:	46b2      	mov	sl, r6
 800128c:	46a9      	mov	r9, r5
 800128e:	46a0      	mov	r8, r4
 8001290:	bdf0      	pop	{r4, r5, r6, r7, pc}
 8001292:	2200      	movs	r2, #0
 8001294:	2400      	movs	r4, #0
 8001296:	4690      	mov	r8, r2
 8001298:	4b48      	ldr	r3, [pc, #288]	@ (80013bc <__aeabi_ddiv+0x21c>)
 800129a:	e7ed      	b.n	8001278 <__aeabi_ddiv+0xd8>
 800129c:	465a      	mov	r2, fp
 800129e:	9b00      	ldr	r3, [sp, #0]
 80012a0:	431a      	orrs	r2, r3
 80012a2:	4b49      	ldr	r3, [pc, #292]	@ (80013c8 <__aeabi_ddiv+0x228>)
 80012a4:	469c      	mov	ip, r3
 80012a6:	44e2      	add	sl, ip
 80012a8:	2a00      	cmp	r2, #0
 80012aa:	d159      	bne.n	8001360 <__aeabi_ddiv+0x1c0>
 80012ac:	2302      	movs	r3, #2
 80012ae:	431c      	orrs	r4, r3
 80012b0:	2300      	movs	r3, #0
 80012b2:	2102      	movs	r1, #2
 80012b4:	469b      	mov	fp, r3
 80012b6:	e7b8      	b.n	800122a <__aeabi_ddiv+0x8a>
 80012b8:	465a      	mov	r2, fp
 80012ba:	9b00      	ldr	r3, [sp, #0]
 80012bc:	431a      	orrs	r2, r3
 80012be:	d049      	beq.n	8001354 <__aeabi_ddiv+0x1b4>
 80012c0:	465b      	mov	r3, fp
 80012c2:	2b00      	cmp	r3, #0
 80012c4:	d100      	bne.n	80012c8 <__aeabi_ddiv+0x128>
 80012c6:	e19c      	b.n	8001602 <__aeabi_ddiv+0x462>
 80012c8:	4658      	mov	r0, fp
 80012ca:	f001 fb8b 	bl	80029e4 <__clzsi2>
 80012ce:	0002      	movs	r2, r0
 80012d0:	0003      	movs	r3, r0
 80012d2:	3a0b      	subs	r2, #11
 80012d4:	271d      	movs	r7, #29
 80012d6:	9e00      	ldr	r6, [sp, #0]
 80012d8:	1aba      	subs	r2, r7, r2
 80012da:	0019      	movs	r1, r3
 80012dc:	4658      	mov	r0, fp
 80012de:	40d6      	lsrs	r6, r2
 80012e0:	3908      	subs	r1, #8
 80012e2:	4088      	lsls	r0, r1
 80012e4:	0032      	movs	r2, r6
 80012e6:	4302      	orrs	r2, r0
 80012e8:	4693      	mov	fp, r2
 80012ea:	9a00      	ldr	r2, [sp, #0]
 80012ec:	408a      	lsls	r2, r1
 80012ee:	4937      	ldr	r1, [pc, #220]	@ (80013cc <__aeabi_ddiv+0x22c>)
 80012f0:	4453      	add	r3, sl
 80012f2:	468a      	mov	sl, r1
 80012f4:	2100      	movs	r1, #0
 80012f6:	449a      	add	sl, r3
 80012f8:	e797      	b.n	800122a <__aeabi_ddiv+0x8a>
 80012fa:	465b      	mov	r3, fp
 80012fc:	4303      	orrs	r3, r0
 80012fe:	4699      	mov	r9, r3
 8001300:	d021      	beq.n	8001346 <__aeabi_ddiv+0x1a6>
 8001302:	465b      	mov	r3, fp
 8001304:	2b00      	cmp	r3, #0
 8001306:	d100      	bne.n	800130a <__aeabi_ddiv+0x16a>
 8001308:	e169      	b.n	80015de <__aeabi_ddiv+0x43e>
 800130a:	4658      	mov	r0, fp
 800130c:	f001 fb6a 	bl	80029e4 <__clzsi2>
 8001310:	230b      	movs	r3, #11
 8001312:	425b      	negs	r3, r3
 8001314:	469c      	mov	ip, r3
 8001316:	0002      	movs	r2, r0
 8001318:	4484      	add	ip, r0
 800131a:	4666      	mov	r6, ip
 800131c:	231d      	movs	r3, #29
 800131e:	1b9b      	subs	r3, r3, r6
 8001320:	0026      	movs	r6, r4
 8001322:	0011      	movs	r1, r2
 8001324:	4658      	mov	r0, fp
 8001326:	40de      	lsrs	r6, r3
 8001328:	3908      	subs	r1, #8
 800132a:	4088      	lsls	r0, r1
 800132c:	0033      	movs	r3, r6
 800132e:	4303      	orrs	r3, r0
 8001330:	4699      	mov	r9, r3
 8001332:	0023      	movs	r3, r4
 8001334:	408b      	lsls	r3, r1
 8001336:	4698      	mov	r8, r3
 8001338:	4b25      	ldr	r3, [pc, #148]	@ (80013d0 <__aeabi_ddiv+0x230>)
 800133a:	2400      	movs	r4, #0
 800133c:	1a9b      	subs	r3, r3, r2
 800133e:	469a      	mov	sl, r3
 8001340:	2300      	movs	r3, #0
 8001342:	9303      	str	r3, [sp, #12]
 8001344:	e753      	b.n	80011ee <__aeabi_ddiv+0x4e>
 8001346:	2300      	movs	r3, #0
 8001348:	4698      	mov	r8, r3
 800134a:	469a      	mov	sl, r3
 800134c:	3301      	adds	r3, #1
 800134e:	2404      	movs	r4, #4
 8001350:	9303      	str	r3, [sp, #12]
 8001352:	e74c      	b.n	80011ee <__aeabi_ddiv+0x4e>
 8001354:	2301      	movs	r3, #1
 8001356:	431c      	orrs	r4, r3
 8001358:	2300      	movs	r3, #0
 800135a:	2101      	movs	r1, #1
 800135c:	469b      	mov	fp, r3
 800135e:	e764      	b.n	800122a <__aeabi_ddiv+0x8a>
 8001360:	2303      	movs	r3, #3
 8001362:	0032      	movs	r2, r6
 8001364:	2103      	movs	r1, #3
 8001366:	431c      	orrs	r4, r3
 8001368:	e75f      	b.n	800122a <__aeabi_ddiv+0x8a>
 800136a:	469a      	mov	sl, r3
 800136c:	2303      	movs	r3, #3
 800136e:	46d9      	mov	r9, fp
 8001370:	240c      	movs	r4, #12
 8001372:	9303      	str	r3, [sp, #12]
 8001374:	e73b      	b.n	80011ee <__aeabi_ddiv+0x4e>
 8001376:	2300      	movs	r3, #0
 8001378:	2480      	movs	r4, #128	@ 0x80
 800137a:	4698      	mov	r8, r3
 800137c:	2600      	movs	r6, #0
 800137e:	4b0f      	ldr	r3, [pc, #60]	@ (80013bc <__aeabi_ddiv+0x21c>)
 8001380:	0324      	lsls	r4, r4, #12
 8001382:	e779      	b.n	8001278 <__aeabi_ddiv+0xd8>
 8001384:	2480      	movs	r4, #128	@ 0x80
 8001386:	465b      	mov	r3, fp
 8001388:	0324      	lsls	r4, r4, #12
 800138a:	431c      	orrs	r4, r3
 800138c:	0324      	lsls	r4, r4, #12
 800138e:	002e      	movs	r6, r5
 8001390:	4690      	mov	r8, r2
 8001392:	4b0a      	ldr	r3, [pc, #40]	@ (80013bc <__aeabi_ddiv+0x21c>)
 8001394:	0b24      	lsrs	r4, r4, #12
 8001396:	e76f      	b.n	8001278 <__aeabi_ddiv+0xd8>
 8001398:	2480      	movs	r4, #128	@ 0x80
 800139a:	464b      	mov	r3, r9
 800139c:	0324      	lsls	r4, r4, #12
 800139e:	4223      	tst	r3, r4
 80013a0:	d002      	beq.n	80013a8 <__aeabi_ddiv+0x208>
 80013a2:	465b      	mov	r3, fp
 80013a4:	4223      	tst	r3, r4
 80013a6:	d0f0      	beq.n	800138a <__aeabi_ddiv+0x1ea>
 80013a8:	2480      	movs	r4, #128	@ 0x80
 80013aa:	464b      	mov	r3, r9
 80013ac:	0324      	lsls	r4, r4, #12
 80013ae:	431c      	orrs	r4, r3
 80013b0:	0324      	lsls	r4, r4, #12
 80013b2:	9e02      	ldr	r6, [sp, #8]
 80013b4:	4b01      	ldr	r3, [pc, #4]	@ (80013bc <__aeabi_ddiv+0x21c>)
 80013b6:	0b24      	lsrs	r4, r4, #12
 80013b8:	e75e      	b.n	8001278 <__aeabi_ddiv+0xd8>
 80013ba:	46c0      	nop			@ (mov r8, r8)
 80013bc:	000007ff 	.word	0x000007ff
 80013c0:	fffffc01 	.word	0xfffffc01
 80013c4:	080081ec 	.word	0x080081ec
 80013c8:	fffff801 	.word	0xfffff801
 80013cc:	000003f3 	.word	0x000003f3
 80013d0:	fffffc0d 	.word	0xfffffc0d
 80013d4:	45cb      	cmp	fp, r9
 80013d6:	d200      	bcs.n	80013da <__aeabi_ddiv+0x23a>
 80013d8:	e0f8      	b.n	80015cc <__aeabi_ddiv+0x42c>
 80013da:	d100      	bne.n	80013de <__aeabi_ddiv+0x23e>
 80013dc:	e0f3      	b.n	80015c6 <__aeabi_ddiv+0x426>
 80013de:	2301      	movs	r3, #1
 80013e0:	425b      	negs	r3, r3
 80013e2:	469c      	mov	ip, r3
 80013e4:	4644      	mov	r4, r8
 80013e6:	4648      	mov	r0, r9
 80013e8:	2500      	movs	r5, #0
 80013ea:	44e2      	add	sl, ip
 80013ec:	465b      	mov	r3, fp
 80013ee:	0e17      	lsrs	r7, r2, #24
 80013f0:	021b      	lsls	r3, r3, #8
 80013f2:	431f      	orrs	r7, r3
 80013f4:	0c19      	lsrs	r1, r3, #16
 80013f6:	043b      	lsls	r3, r7, #16
 80013f8:	0212      	lsls	r2, r2, #8
 80013fa:	9700      	str	r7, [sp, #0]
 80013fc:	0c1f      	lsrs	r7, r3, #16
 80013fe:	4691      	mov	r9, r2
 8001400:	9102      	str	r1, [sp, #8]
 8001402:	9703      	str	r7, [sp, #12]
 8001404:	f7fe ff22 	bl	800024c <__aeabi_uidivmod>
 8001408:	0002      	movs	r2, r0
 800140a:	437a      	muls	r2, r7
 800140c:	040b      	lsls	r3, r1, #16
 800140e:	0c21      	lsrs	r1, r4, #16
 8001410:	4680      	mov	r8, r0
 8001412:	4319      	orrs	r1, r3
 8001414:	428a      	cmp	r2, r1
 8001416:	d909      	bls.n	800142c <__aeabi_ddiv+0x28c>
 8001418:	9f00      	ldr	r7, [sp, #0]
 800141a:	2301      	movs	r3, #1
 800141c:	46bc      	mov	ip, r7
 800141e:	425b      	negs	r3, r3
 8001420:	4461      	add	r1, ip
 8001422:	469c      	mov	ip, r3
 8001424:	44e0      	add	r8, ip
 8001426:	428f      	cmp	r7, r1
 8001428:	d800      	bhi.n	800142c <__aeabi_ddiv+0x28c>
 800142a:	e15c      	b.n	80016e6 <__aeabi_ddiv+0x546>
 800142c:	1a88      	subs	r0, r1, r2
 800142e:	9902      	ldr	r1, [sp, #8]
 8001430:	f7fe ff0c 	bl	800024c <__aeabi_uidivmod>
 8001434:	9a03      	ldr	r2, [sp, #12]
 8001436:	0424      	lsls	r4, r4, #16
 8001438:	4342      	muls	r2, r0
 800143a:	0409      	lsls	r1, r1, #16
 800143c:	0c24      	lsrs	r4, r4, #16
 800143e:	0003      	movs	r3, r0
 8001440:	430c      	orrs	r4, r1
 8001442:	42a2      	cmp	r2, r4
 8001444:	d906      	bls.n	8001454 <__aeabi_ddiv+0x2b4>
 8001446:	9900      	ldr	r1, [sp, #0]
 8001448:	3b01      	subs	r3, #1
 800144a:	468c      	mov	ip, r1
 800144c:	4464      	add	r4, ip
 800144e:	42a1      	cmp	r1, r4
 8001450:	d800      	bhi.n	8001454 <__aeabi_ddiv+0x2b4>
 8001452:	e142      	b.n	80016da <__aeabi_ddiv+0x53a>
 8001454:	1aa0      	subs	r0, r4, r2
 8001456:	4642      	mov	r2, r8
 8001458:	0412      	lsls	r2, r2, #16
 800145a:	431a      	orrs	r2, r3
 800145c:	4693      	mov	fp, r2
 800145e:	464b      	mov	r3, r9
 8001460:	4659      	mov	r1, fp
 8001462:	0c1b      	lsrs	r3, r3, #16
 8001464:	001f      	movs	r7, r3
 8001466:	9304      	str	r3, [sp, #16]
 8001468:	040b      	lsls	r3, r1, #16
 800146a:	4649      	mov	r1, r9
 800146c:	0409      	lsls	r1, r1, #16
 800146e:	0c09      	lsrs	r1, r1, #16
 8001470:	000c      	movs	r4, r1
 8001472:	0c1b      	lsrs	r3, r3, #16
 8001474:	435c      	muls	r4, r3
 8001476:	0c12      	lsrs	r2, r2, #16
 8001478:	437b      	muls	r3, r7
 800147a:	4688      	mov	r8, r1
 800147c:	4351      	muls	r1, r2
 800147e:	437a      	muls	r2, r7
 8001480:	0c27      	lsrs	r7, r4, #16
 8001482:	46bc      	mov	ip, r7
 8001484:	185b      	adds	r3, r3, r1
 8001486:	4463      	add	r3, ip
 8001488:	4299      	cmp	r1, r3
 800148a:	d903      	bls.n	8001494 <__aeabi_ddiv+0x2f4>
 800148c:	2180      	movs	r1, #128	@ 0x80
 800148e:	0249      	lsls	r1, r1, #9
 8001490:	468c      	mov	ip, r1
 8001492:	4462      	add	r2, ip
 8001494:	0c19      	lsrs	r1, r3, #16
 8001496:	0424      	lsls	r4, r4, #16
 8001498:	041b      	lsls	r3, r3, #16
 800149a:	0c24      	lsrs	r4, r4, #16
 800149c:	188a      	adds	r2, r1, r2
 800149e:	191c      	adds	r4, r3, r4
 80014a0:	4290      	cmp	r0, r2
 80014a2:	d302      	bcc.n	80014aa <__aeabi_ddiv+0x30a>
 80014a4:	d116      	bne.n	80014d4 <__aeabi_ddiv+0x334>
 80014a6:	42a5      	cmp	r5, r4
 80014a8:	d214      	bcs.n	80014d4 <__aeabi_ddiv+0x334>
 80014aa:	465b      	mov	r3, fp
 80014ac:	9f00      	ldr	r7, [sp, #0]
 80014ae:	3b01      	subs	r3, #1
 80014b0:	444d      	add	r5, r9
 80014b2:	9305      	str	r3, [sp, #20]
 80014b4:	454d      	cmp	r5, r9
 80014b6:	419b      	sbcs	r3, r3
 80014b8:	46bc      	mov	ip, r7
 80014ba:	425b      	negs	r3, r3
 80014bc:	4463      	add	r3, ip
 80014be:	18c0      	adds	r0, r0, r3
 80014c0:	4287      	cmp	r7, r0
 80014c2:	d300      	bcc.n	80014c6 <__aeabi_ddiv+0x326>
 80014c4:	e102      	b.n	80016cc <__aeabi_ddiv+0x52c>
 80014c6:	4282      	cmp	r2, r0
 80014c8:	d900      	bls.n	80014cc <__aeabi_ddiv+0x32c>
 80014ca:	e129      	b.n	8001720 <__aeabi_ddiv+0x580>
 80014cc:	d100      	bne.n	80014d0 <__aeabi_ddiv+0x330>
 80014ce:	e124      	b.n	800171a <__aeabi_ddiv+0x57a>
 80014d0:	9b05      	ldr	r3, [sp, #20]
 80014d2:	469b      	mov	fp, r3
 80014d4:	1b2c      	subs	r4, r5, r4
 80014d6:	42a5      	cmp	r5, r4
 80014d8:	41ad      	sbcs	r5, r5
 80014da:	9b00      	ldr	r3, [sp, #0]
 80014dc:	1a80      	subs	r0, r0, r2
 80014de:	426d      	negs	r5, r5
 80014e0:	1b40      	subs	r0, r0, r5
 80014e2:	4283      	cmp	r3, r0
 80014e4:	d100      	bne.n	80014e8 <__aeabi_ddiv+0x348>
 80014e6:	e10f      	b.n	8001708 <__aeabi_ddiv+0x568>
 80014e8:	9902      	ldr	r1, [sp, #8]
 80014ea:	f7fe feaf 	bl	800024c <__aeabi_uidivmod>
 80014ee:	9a03      	ldr	r2, [sp, #12]
 80014f0:	040b      	lsls	r3, r1, #16
 80014f2:	4342      	muls	r2, r0
 80014f4:	0c21      	lsrs	r1, r4, #16
 80014f6:	0005      	movs	r5, r0
 80014f8:	4319      	orrs	r1, r3
 80014fa:	428a      	cmp	r2, r1
 80014fc:	d900      	bls.n	8001500 <__aeabi_ddiv+0x360>
 80014fe:	e0cb      	b.n	8001698 <__aeabi_ddiv+0x4f8>
 8001500:	1a88      	subs	r0, r1, r2
 8001502:	9902      	ldr	r1, [sp, #8]
 8001504:	f7fe fea2 	bl	800024c <__aeabi_uidivmod>
 8001508:	9a03      	ldr	r2, [sp, #12]
 800150a:	0424      	lsls	r4, r4, #16
 800150c:	4342      	muls	r2, r0
 800150e:	0409      	lsls	r1, r1, #16
 8001510:	0c24      	lsrs	r4, r4, #16
 8001512:	0003      	movs	r3, r0
 8001514:	430c      	orrs	r4, r1
 8001516:	42a2      	cmp	r2, r4
 8001518:	d900      	bls.n	800151c <__aeabi_ddiv+0x37c>
 800151a:	e0ca      	b.n	80016b2 <__aeabi_ddiv+0x512>
 800151c:	4641      	mov	r1, r8
 800151e:	1aa4      	subs	r4, r4, r2
 8001520:	042a      	lsls	r2, r5, #16
 8001522:	431a      	orrs	r2, r3
 8001524:	9f04      	ldr	r7, [sp, #16]
 8001526:	0413      	lsls	r3, r2, #16
 8001528:	0c1b      	lsrs	r3, r3, #16
 800152a:	4359      	muls	r1, r3
 800152c:	4640      	mov	r0, r8
 800152e:	437b      	muls	r3, r7
 8001530:	469c      	mov	ip, r3
 8001532:	0c15      	lsrs	r5, r2, #16
 8001534:	4368      	muls	r0, r5
 8001536:	0c0b      	lsrs	r3, r1, #16
 8001538:	4484      	add	ip, r0
 800153a:	4463      	add	r3, ip
 800153c:	437d      	muls	r5, r7
 800153e:	4298      	cmp	r0, r3
 8001540:	d903      	bls.n	800154a <__aeabi_ddiv+0x3aa>
 8001542:	2080      	movs	r0, #128	@ 0x80
 8001544:	0240      	lsls	r0, r0, #9
 8001546:	4684      	mov	ip, r0
 8001548:	4465      	add	r5, ip
 800154a:	0c18      	lsrs	r0, r3, #16
 800154c:	0409      	lsls	r1, r1, #16
 800154e:	041b      	lsls	r3, r3, #16
 8001550:	0c09      	lsrs	r1, r1, #16
 8001552:	1940      	adds	r0, r0, r5
 8001554:	185b      	adds	r3, r3, r1
 8001556:	4284      	cmp	r4, r0
 8001558:	d327      	bcc.n	80015aa <__aeabi_ddiv+0x40a>
 800155a:	d023      	beq.n	80015a4 <__aeabi_ddiv+0x404>
 800155c:	2301      	movs	r3, #1
 800155e:	0035      	movs	r5, r6
 8001560:	431a      	orrs	r2, r3
 8001562:	4b94      	ldr	r3, [pc, #592]	@ (80017b4 <__aeabi_ddiv+0x614>)
 8001564:	4453      	add	r3, sl
 8001566:	2b00      	cmp	r3, #0
 8001568:	dd60      	ble.n	800162c <__aeabi_ddiv+0x48c>
 800156a:	0751      	lsls	r1, r2, #29
 800156c:	d000      	beq.n	8001570 <__aeabi_ddiv+0x3d0>
 800156e:	e086      	b.n	800167e <__aeabi_ddiv+0x4de>
 8001570:	002e      	movs	r6, r5
 8001572:	08d1      	lsrs	r1, r2, #3
 8001574:	465a      	mov	r2, fp
 8001576:	01d2      	lsls	r2, r2, #7
 8001578:	d506      	bpl.n	8001588 <__aeabi_ddiv+0x3e8>
 800157a:	465a      	mov	r2, fp
 800157c:	4b8e      	ldr	r3, [pc, #568]	@ (80017b8 <__aeabi_ddiv+0x618>)
 800157e:	401a      	ands	r2, r3
 8001580:	2380      	movs	r3, #128	@ 0x80
 8001582:	4693      	mov	fp, r2
 8001584:	00db      	lsls	r3, r3, #3
 8001586:	4453      	add	r3, sl
 8001588:	4a8c      	ldr	r2, [pc, #560]	@ (80017bc <__aeabi_ddiv+0x61c>)
 800158a:	4293      	cmp	r3, r2
 800158c:	dd00      	ble.n	8001590 <__aeabi_ddiv+0x3f0>
 800158e:	e680      	b.n	8001292 <__aeabi_ddiv+0xf2>
 8001590:	465a      	mov	r2, fp
 8001592:	0752      	lsls	r2, r2, #29
 8001594:	430a      	orrs	r2, r1
 8001596:	4690      	mov	r8, r2
 8001598:	465a      	mov	r2, fp
 800159a:	055b      	lsls	r3, r3, #21
 800159c:	0254      	lsls	r4, r2, #9
 800159e:	0b24      	lsrs	r4, r4, #12
 80015a0:	0d5b      	lsrs	r3, r3, #21
 80015a2:	e669      	b.n	8001278 <__aeabi_ddiv+0xd8>
 80015a4:	0035      	movs	r5, r6
 80015a6:	2b00      	cmp	r3, #0
 80015a8:	d0db      	beq.n	8001562 <__aeabi_ddiv+0x3c2>
 80015aa:	9d00      	ldr	r5, [sp, #0]
 80015ac:	1e51      	subs	r1, r2, #1
 80015ae:	46ac      	mov	ip, r5
 80015b0:	4464      	add	r4, ip
 80015b2:	42ac      	cmp	r4, r5
 80015b4:	d200      	bcs.n	80015b8 <__aeabi_ddiv+0x418>
 80015b6:	e09e      	b.n	80016f6 <__aeabi_ddiv+0x556>
 80015b8:	4284      	cmp	r4, r0
 80015ba:	d200      	bcs.n	80015be <__aeabi_ddiv+0x41e>
 80015bc:	e0e1      	b.n	8001782 <__aeabi_ddiv+0x5e2>
 80015be:	d100      	bne.n	80015c2 <__aeabi_ddiv+0x422>
 80015c0:	e0ee      	b.n	80017a0 <__aeabi_ddiv+0x600>
 80015c2:	000a      	movs	r2, r1
 80015c4:	e7ca      	b.n	800155c <__aeabi_ddiv+0x3bc>
 80015c6:	4542      	cmp	r2, r8
 80015c8:	d900      	bls.n	80015cc <__aeabi_ddiv+0x42c>
 80015ca:	e708      	b.n	80013de <__aeabi_ddiv+0x23e>
 80015cc:	464b      	mov	r3, r9
 80015ce:	07dc      	lsls	r4, r3, #31
 80015d0:	0858      	lsrs	r0, r3, #1
 80015d2:	4643      	mov	r3, r8
 80015d4:	085b      	lsrs	r3, r3, #1
 80015d6:	431c      	orrs	r4, r3
 80015d8:	4643      	mov	r3, r8
 80015da:	07dd      	lsls	r5, r3, #31
 80015dc:	e706      	b.n	80013ec <__aeabi_ddiv+0x24c>
 80015de:	f001 fa01 	bl	80029e4 <__clzsi2>
 80015e2:	2315      	movs	r3, #21
 80015e4:	469c      	mov	ip, r3
 80015e6:	4484      	add	ip, r0
 80015e8:	0002      	movs	r2, r0
 80015ea:	4663      	mov	r3, ip
 80015ec:	3220      	adds	r2, #32
 80015ee:	2b1c      	cmp	r3, #28
 80015f0:	dc00      	bgt.n	80015f4 <__aeabi_ddiv+0x454>
 80015f2:	e692      	b.n	800131a <__aeabi_ddiv+0x17a>
 80015f4:	0023      	movs	r3, r4
 80015f6:	3808      	subs	r0, #8
 80015f8:	4083      	lsls	r3, r0
 80015fa:	4699      	mov	r9, r3
 80015fc:	2300      	movs	r3, #0
 80015fe:	4698      	mov	r8, r3
 8001600:	e69a      	b.n	8001338 <__aeabi_ddiv+0x198>
 8001602:	f001 f9ef 	bl	80029e4 <__clzsi2>
 8001606:	0002      	movs	r2, r0
 8001608:	0003      	movs	r3, r0
 800160a:	3215      	adds	r2, #21
 800160c:	3320      	adds	r3, #32
 800160e:	2a1c      	cmp	r2, #28
 8001610:	dc00      	bgt.n	8001614 <__aeabi_ddiv+0x474>
 8001612:	e65f      	b.n	80012d4 <__aeabi_ddiv+0x134>
 8001614:	9900      	ldr	r1, [sp, #0]
 8001616:	3808      	subs	r0, #8
 8001618:	4081      	lsls	r1, r0
 800161a:	2200      	movs	r2, #0
 800161c:	468b      	mov	fp, r1
 800161e:	e666      	b.n	80012ee <__aeabi_ddiv+0x14e>
 8001620:	2200      	movs	r2, #0
 8001622:	002e      	movs	r6, r5
 8001624:	2400      	movs	r4, #0
 8001626:	4690      	mov	r8, r2
 8001628:	4b65      	ldr	r3, [pc, #404]	@ (80017c0 <__aeabi_ddiv+0x620>)
 800162a:	e625      	b.n	8001278 <__aeabi_ddiv+0xd8>
 800162c:	002e      	movs	r6, r5
 800162e:	2101      	movs	r1, #1
 8001630:	1ac9      	subs	r1, r1, r3
 8001632:	2938      	cmp	r1, #56	@ 0x38
 8001634:	dd00      	ble.n	8001638 <__aeabi_ddiv+0x498>
 8001636:	e61b      	b.n	8001270 <__aeabi_ddiv+0xd0>
 8001638:	291f      	cmp	r1, #31
 800163a:	dc7e      	bgt.n	800173a <__aeabi_ddiv+0x59a>
 800163c:	4861      	ldr	r0, [pc, #388]	@ (80017c4 <__aeabi_ddiv+0x624>)
 800163e:	0014      	movs	r4, r2
 8001640:	4450      	add	r0, sl
 8001642:	465b      	mov	r3, fp
 8001644:	4082      	lsls	r2, r0
 8001646:	4083      	lsls	r3, r0
 8001648:	40cc      	lsrs	r4, r1
 800164a:	1e50      	subs	r0, r2, #1
 800164c:	4182      	sbcs	r2, r0
 800164e:	4323      	orrs	r3, r4
 8001650:	431a      	orrs	r2, r3
 8001652:	465b      	mov	r3, fp
 8001654:	40cb      	lsrs	r3, r1
 8001656:	0751      	lsls	r1, r2, #29
 8001658:	d009      	beq.n	800166e <__aeabi_ddiv+0x4ce>
 800165a:	210f      	movs	r1, #15
 800165c:	4011      	ands	r1, r2
 800165e:	2904      	cmp	r1, #4
 8001660:	d005      	beq.n	800166e <__aeabi_ddiv+0x4ce>
 8001662:	1d11      	adds	r1, r2, #4
 8001664:	4291      	cmp	r1, r2
 8001666:	4192      	sbcs	r2, r2
 8001668:	4252      	negs	r2, r2
 800166a:	189b      	adds	r3, r3, r2
 800166c:	000a      	movs	r2, r1
 800166e:	0219      	lsls	r1, r3, #8
 8001670:	d400      	bmi.n	8001674 <__aeabi_ddiv+0x4d4>
 8001672:	e09b      	b.n	80017ac <__aeabi_ddiv+0x60c>
 8001674:	2200      	movs	r2, #0
 8001676:	2301      	movs	r3, #1
 8001678:	2400      	movs	r4, #0
 800167a:	4690      	mov	r8, r2
 800167c:	e5fc      	b.n	8001278 <__aeabi_ddiv+0xd8>
 800167e:	210f      	movs	r1, #15
 8001680:	4011      	ands	r1, r2
 8001682:	2904      	cmp	r1, #4
 8001684:	d100      	bne.n	8001688 <__aeabi_ddiv+0x4e8>
 8001686:	e773      	b.n	8001570 <__aeabi_ddiv+0x3d0>
 8001688:	1d11      	adds	r1, r2, #4
 800168a:	4291      	cmp	r1, r2
 800168c:	4192      	sbcs	r2, r2
 800168e:	4252      	negs	r2, r2
 8001690:	002e      	movs	r6, r5
 8001692:	08c9      	lsrs	r1, r1, #3
 8001694:	4493      	add	fp, r2
 8001696:	e76d      	b.n	8001574 <__aeabi_ddiv+0x3d4>
 8001698:	9b00      	ldr	r3, [sp, #0]
 800169a:	3d01      	subs	r5, #1
 800169c:	469c      	mov	ip, r3
 800169e:	4461      	add	r1, ip
 80016a0:	428b      	cmp	r3, r1
 80016a2:	d900      	bls.n	80016a6 <__aeabi_ddiv+0x506>
 80016a4:	e72c      	b.n	8001500 <__aeabi_ddiv+0x360>
 80016a6:	428a      	cmp	r2, r1
 80016a8:	d800      	bhi.n	80016ac <__aeabi_ddiv+0x50c>
 80016aa:	e729      	b.n	8001500 <__aeabi_ddiv+0x360>
 80016ac:	1e85      	subs	r5, r0, #2
 80016ae:	4461      	add	r1, ip
 80016b0:	e726      	b.n	8001500 <__aeabi_ddiv+0x360>
 80016b2:	9900      	ldr	r1, [sp, #0]
 80016b4:	3b01      	subs	r3, #1
 80016b6:	468c      	mov	ip, r1
 80016b8:	4464      	add	r4, ip
 80016ba:	42a1      	cmp	r1, r4
 80016bc:	d900      	bls.n	80016c0 <__aeabi_ddiv+0x520>
 80016be:	e72d      	b.n	800151c <__aeabi_ddiv+0x37c>
 80016c0:	42a2      	cmp	r2, r4
 80016c2:	d800      	bhi.n	80016c6 <__aeabi_ddiv+0x526>
 80016c4:	e72a      	b.n	800151c <__aeabi_ddiv+0x37c>
 80016c6:	1e83      	subs	r3, r0, #2
 80016c8:	4464      	add	r4, ip
 80016ca:	e727      	b.n	800151c <__aeabi_ddiv+0x37c>
 80016cc:	4287      	cmp	r7, r0
 80016ce:	d000      	beq.n	80016d2 <__aeabi_ddiv+0x532>
 80016d0:	e6fe      	b.n	80014d0 <__aeabi_ddiv+0x330>
 80016d2:	45a9      	cmp	r9, r5
 80016d4:	d900      	bls.n	80016d8 <__aeabi_ddiv+0x538>
 80016d6:	e6fb      	b.n	80014d0 <__aeabi_ddiv+0x330>
 80016d8:	e6f5      	b.n	80014c6 <__aeabi_ddiv+0x326>
 80016da:	42a2      	cmp	r2, r4
 80016dc:	d800      	bhi.n	80016e0 <__aeabi_ddiv+0x540>
 80016de:	e6b9      	b.n	8001454 <__aeabi_ddiv+0x2b4>
 80016e0:	1e83      	subs	r3, r0, #2
 80016e2:	4464      	add	r4, ip
 80016e4:	e6b6      	b.n	8001454 <__aeabi_ddiv+0x2b4>
 80016e6:	428a      	cmp	r2, r1
 80016e8:	d800      	bhi.n	80016ec <__aeabi_ddiv+0x54c>
 80016ea:	e69f      	b.n	800142c <__aeabi_ddiv+0x28c>
 80016ec:	46bc      	mov	ip, r7
 80016ee:	1e83      	subs	r3, r0, #2
 80016f0:	4698      	mov	r8, r3
 80016f2:	4461      	add	r1, ip
 80016f4:	e69a      	b.n	800142c <__aeabi_ddiv+0x28c>
 80016f6:	000a      	movs	r2, r1
 80016f8:	4284      	cmp	r4, r0
 80016fa:	d000      	beq.n	80016fe <__aeabi_ddiv+0x55e>
 80016fc:	e72e      	b.n	800155c <__aeabi_ddiv+0x3bc>
 80016fe:	454b      	cmp	r3, r9
 8001700:	d000      	beq.n	8001704 <__aeabi_ddiv+0x564>
 8001702:	e72b      	b.n	800155c <__aeabi_ddiv+0x3bc>
 8001704:	0035      	movs	r5, r6
 8001706:	e72c      	b.n	8001562 <__aeabi_ddiv+0x3c2>
 8001708:	4b2a      	ldr	r3, [pc, #168]	@ (80017b4 <__aeabi_ddiv+0x614>)
 800170a:	4a2f      	ldr	r2, [pc, #188]	@ (80017c8 <__aeabi_ddiv+0x628>)
 800170c:	4453      	add	r3, sl
 800170e:	4592      	cmp	sl, r2
 8001710:	db43      	blt.n	800179a <__aeabi_ddiv+0x5fa>
 8001712:	2201      	movs	r2, #1
 8001714:	2100      	movs	r1, #0
 8001716:	4493      	add	fp, r2
 8001718:	e72c      	b.n	8001574 <__aeabi_ddiv+0x3d4>
 800171a:	42ac      	cmp	r4, r5
 800171c:	d800      	bhi.n	8001720 <__aeabi_ddiv+0x580>
 800171e:	e6d7      	b.n	80014d0 <__aeabi_ddiv+0x330>
 8001720:	2302      	movs	r3, #2
 8001722:	425b      	negs	r3, r3
 8001724:	469c      	mov	ip, r3
 8001726:	9900      	ldr	r1, [sp, #0]
 8001728:	444d      	add	r5, r9
 800172a:	454d      	cmp	r5, r9
 800172c:	419b      	sbcs	r3, r3
 800172e:	44e3      	add	fp, ip
 8001730:	468c      	mov	ip, r1
 8001732:	425b      	negs	r3, r3
 8001734:	4463      	add	r3, ip
 8001736:	18c0      	adds	r0, r0, r3
 8001738:	e6cc      	b.n	80014d4 <__aeabi_ddiv+0x334>
 800173a:	201f      	movs	r0, #31
 800173c:	4240      	negs	r0, r0
 800173e:	1ac3      	subs	r3, r0, r3
 8001740:	4658      	mov	r0, fp
 8001742:	40d8      	lsrs	r0, r3
 8001744:	2920      	cmp	r1, #32
 8001746:	d004      	beq.n	8001752 <__aeabi_ddiv+0x5b2>
 8001748:	4659      	mov	r1, fp
 800174a:	4b20      	ldr	r3, [pc, #128]	@ (80017cc <__aeabi_ddiv+0x62c>)
 800174c:	4453      	add	r3, sl
 800174e:	4099      	lsls	r1, r3
 8001750:	430a      	orrs	r2, r1
 8001752:	1e53      	subs	r3, r2, #1
 8001754:	419a      	sbcs	r2, r3
 8001756:	2307      	movs	r3, #7
 8001758:	0019      	movs	r1, r3
 800175a:	4302      	orrs	r2, r0
 800175c:	2400      	movs	r4, #0
 800175e:	4011      	ands	r1, r2
 8001760:	4213      	tst	r3, r2
 8001762:	d009      	beq.n	8001778 <__aeabi_ddiv+0x5d8>
 8001764:	3308      	adds	r3, #8
 8001766:	4013      	ands	r3, r2
 8001768:	2b04      	cmp	r3, #4
 800176a:	d01d      	beq.n	80017a8 <__aeabi_ddiv+0x608>
 800176c:	1d13      	adds	r3, r2, #4
 800176e:	4293      	cmp	r3, r2
 8001770:	4189      	sbcs	r1, r1
 8001772:	001a      	movs	r2, r3
 8001774:	4249      	negs	r1, r1
 8001776:	0749      	lsls	r1, r1, #29
 8001778:	08d2      	lsrs	r2, r2, #3
 800177a:	430a      	orrs	r2, r1
 800177c:	4690      	mov	r8, r2
 800177e:	2300      	movs	r3, #0
 8001780:	e57a      	b.n	8001278 <__aeabi_ddiv+0xd8>
 8001782:	4649      	mov	r1, r9
 8001784:	9f00      	ldr	r7, [sp, #0]
 8001786:	004d      	lsls	r5, r1, #1
 8001788:	454d      	cmp	r5, r9
 800178a:	4189      	sbcs	r1, r1
 800178c:	46bc      	mov	ip, r7
 800178e:	4249      	negs	r1, r1
 8001790:	4461      	add	r1, ip
 8001792:	46a9      	mov	r9, r5
 8001794:	3a02      	subs	r2, #2
 8001796:	1864      	adds	r4, r4, r1
 8001798:	e7ae      	b.n	80016f8 <__aeabi_ddiv+0x558>
 800179a:	2201      	movs	r2, #1
 800179c:	4252      	negs	r2, r2
 800179e:	e746      	b.n	800162e <__aeabi_ddiv+0x48e>
 80017a0:	4599      	cmp	r9, r3
 80017a2:	d3ee      	bcc.n	8001782 <__aeabi_ddiv+0x5e2>
 80017a4:	000a      	movs	r2, r1
 80017a6:	e7aa      	b.n	80016fe <__aeabi_ddiv+0x55e>
 80017a8:	2100      	movs	r1, #0
 80017aa:	e7e5      	b.n	8001778 <__aeabi_ddiv+0x5d8>
 80017ac:	0759      	lsls	r1, r3, #29
 80017ae:	025b      	lsls	r3, r3, #9
 80017b0:	0b1c      	lsrs	r4, r3, #12
 80017b2:	e7e1      	b.n	8001778 <__aeabi_ddiv+0x5d8>
 80017b4:	000003ff 	.word	0x000003ff
 80017b8:	feffffff 	.word	0xfeffffff
 80017bc:	000007fe 	.word	0x000007fe
 80017c0:	000007ff 	.word	0x000007ff
 80017c4:	0000041e 	.word	0x0000041e
 80017c8:	fffffc02 	.word	0xfffffc02
 80017cc:	0000043e 	.word	0x0000043e

080017d0 <__eqdf2>:
 80017d0:	b5f0      	push	{r4, r5, r6, r7, lr}
 80017d2:	4657      	mov	r7, sl
 80017d4:	46de      	mov	lr, fp
 80017d6:	464e      	mov	r6, r9
 80017d8:	4645      	mov	r5, r8
 80017da:	b5e0      	push	{r5, r6, r7, lr}
 80017dc:	000d      	movs	r5, r1
 80017de:	0004      	movs	r4, r0
 80017e0:	0fe8      	lsrs	r0, r5, #31
 80017e2:	4683      	mov	fp, r0
 80017e4:	0309      	lsls	r1, r1, #12
 80017e6:	0fd8      	lsrs	r0, r3, #31
 80017e8:	0b09      	lsrs	r1, r1, #12
 80017ea:	4682      	mov	sl, r0
 80017ec:	4819      	ldr	r0, [pc, #100]	@ (8001854 <__eqdf2+0x84>)
 80017ee:	468c      	mov	ip, r1
 80017f0:	031f      	lsls	r7, r3, #12
 80017f2:	0069      	lsls	r1, r5, #1
 80017f4:	005e      	lsls	r6, r3, #1
 80017f6:	0d49      	lsrs	r1, r1, #21
 80017f8:	0b3f      	lsrs	r7, r7, #12
 80017fa:	0d76      	lsrs	r6, r6, #21
 80017fc:	4281      	cmp	r1, r0
 80017fe:	d018      	beq.n	8001832 <__eqdf2+0x62>
 8001800:	4286      	cmp	r6, r0
 8001802:	d00f      	beq.n	8001824 <__eqdf2+0x54>
 8001804:	2001      	movs	r0, #1
 8001806:	42b1      	cmp	r1, r6
 8001808:	d10d      	bne.n	8001826 <__eqdf2+0x56>
 800180a:	45bc      	cmp	ip, r7
 800180c:	d10b      	bne.n	8001826 <__eqdf2+0x56>
 800180e:	4294      	cmp	r4, r2
 8001810:	d109      	bne.n	8001826 <__eqdf2+0x56>
 8001812:	45d3      	cmp	fp, sl
 8001814:	d01c      	beq.n	8001850 <__eqdf2+0x80>
 8001816:	2900      	cmp	r1, #0
 8001818:	d105      	bne.n	8001826 <__eqdf2+0x56>
 800181a:	4660      	mov	r0, ip
 800181c:	4320      	orrs	r0, r4
 800181e:	1e43      	subs	r3, r0, #1
 8001820:	4198      	sbcs	r0, r3
 8001822:	e000      	b.n	8001826 <__eqdf2+0x56>
 8001824:	2001      	movs	r0, #1
 8001826:	bcf0      	pop	{r4, r5, r6, r7}
 8001828:	46bb      	mov	fp, r7
 800182a:	46b2      	mov	sl, r6
 800182c:	46a9      	mov	r9, r5
 800182e:	46a0      	mov	r8, r4
 8001830:	bdf0      	pop	{r4, r5, r6, r7, pc}
 8001832:	2001      	movs	r0, #1
 8001834:	428e      	cmp	r6, r1
 8001836:	d1f6      	bne.n	8001826 <__eqdf2+0x56>
 8001838:	4661      	mov	r1, ip
 800183a:	4339      	orrs	r1, r7
 800183c:	000f      	movs	r7, r1
 800183e:	4317      	orrs	r7, r2
 8001840:	4327      	orrs	r7, r4
 8001842:	d1f0      	bne.n	8001826 <__eqdf2+0x56>
 8001844:	465b      	mov	r3, fp
 8001846:	4652      	mov	r2, sl
 8001848:	1a98      	subs	r0, r3, r2
 800184a:	1e43      	subs	r3, r0, #1
 800184c:	4198      	sbcs	r0, r3
 800184e:	e7ea      	b.n	8001826 <__eqdf2+0x56>
 8001850:	2000      	movs	r0, #0
 8001852:	e7e8      	b.n	8001826 <__eqdf2+0x56>
 8001854:	000007ff 	.word	0x000007ff

08001858 <__gedf2>:
 8001858:	b5f0      	push	{r4, r5, r6, r7, lr}
 800185a:	4657      	mov	r7, sl
 800185c:	464e      	mov	r6, r9
 800185e:	4645      	mov	r5, r8
 8001860:	46de      	mov	lr, fp
 8001862:	b5e0      	push	{r5, r6, r7, lr}
 8001864:	000d      	movs	r5, r1
 8001866:	030e      	lsls	r6, r1, #12
 8001868:	0049      	lsls	r1, r1, #1
 800186a:	0d49      	lsrs	r1, r1, #21
 800186c:	468a      	mov	sl, r1
 800186e:	0fdf      	lsrs	r7, r3, #31
 8001870:	0fe9      	lsrs	r1, r5, #31
 8001872:	46bc      	mov	ip, r7
 8001874:	b083      	sub	sp, #12
 8001876:	4f2f      	ldr	r7, [pc, #188]	@ (8001934 <__gedf2+0xdc>)
 8001878:	0004      	movs	r4, r0
 800187a:	4680      	mov	r8, r0
 800187c:	9101      	str	r1, [sp, #4]
 800187e:	0058      	lsls	r0, r3, #1
 8001880:	0319      	lsls	r1, r3, #12
 8001882:	4691      	mov	r9, r2
 8001884:	0b36      	lsrs	r6, r6, #12
 8001886:	0b09      	lsrs	r1, r1, #12
 8001888:	0d40      	lsrs	r0, r0, #21
 800188a:	45ba      	cmp	sl, r7
 800188c:	d01d      	beq.n	80018ca <__gedf2+0x72>
 800188e:	42b8      	cmp	r0, r7
 8001890:	d00d      	beq.n	80018ae <__gedf2+0x56>
 8001892:	4657      	mov	r7, sl
 8001894:	2f00      	cmp	r7, #0
 8001896:	d12a      	bne.n	80018ee <__gedf2+0x96>
 8001898:	4334      	orrs	r4, r6
 800189a:	2800      	cmp	r0, #0
 800189c:	d124      	bne.n	80018e8 <__gedf2+0x90>
 800189e:	430a      	orrs	r2, r1
 80018a0:	d036      	beq.n	8001910 <__gedf2+0xb8>
 80018a2:	2c00      	cmp	r4, #0
 80018a4:	d141      	bne.n	800192a <__gedf2+0xd2>
 80018a6:	4663      	mov	r3, ip
 80018a8:	0058      	lsls	r0, r3, #1
 80018aa:	3801      	subs	r0, #1
 80018ac:	e015      	b.n	80018da <__gedf2+0x82>
 80018ae:	4311      	orrs	r1, r2
 80018b0:	d138      	bne.n	8001924 <__gedf2+0xcc>
 80018b2:	4653      	mov	r3, sl
 80018b4:	2b00      	cmp	r3, #0
 80018b6:	d101      	bne.n	80018bc <__gedf2+0x64>
 80018b8:	4326      	orrs	r6, r4
 80018ba:	d0f4      	beq.n	80018a6 <__gedf2+0x4e>
 80018bc:	9b01      	ldr	r3, [sp, #4]
 80018be:	4563      	cmp	r3, ip
 80018c0:	d107      	bne.n	80018d2 <__gedf2+0x7a>
 80018c2:	9b01      	ldr	r3, [sp, #4]
 80018c4:	0058      	lsls	r0, r3, #1
 80018c6:	3801      	subs	r0, #1
 80018c8:	e007      	b.n	80018da <__gedf2+0x82>
 80018ca:	4326      	orrs	r6, r4
 80018cc:	d12a      	bne.n	8001924 <__gedf2+0xcc>
 80018ce:	4550      	cmp	r0, sl
 80018d0:	d021      	beq.n	8001916 <__gedf2+0xbe>
 80018d2:	2001      	movs	r0, #1
 80018d4:	9b01      	ldr	r3, [sp, #4]
 80018d6:	425f      	negs	r7, r3
 80018d8:	4338      	orrs	r0, r7
 80018da:	b003      	add	sp, #12
 80018dc:	bcf0      	pop	{r4, r5, r6, r7}
 80018de:	46bb      	mov	fp, r7
 80018e0:	46b2      	mov	sl, r6
 80018e2:	46a9      	mov	r9, r5
 80018e4:	46a0      	mov	r8, r4
 80018e6:	bdf0      	pop	{r4, r5, r6, r7, pc}
 80018e8:	2c00      	cmp	r4, #0
 80018ea:	d0dc      	beq.n	80018a6 <__gedf2+0x4e>
 80018ec:	e7e6      	b.n	80018bc <__gedf2+0x64>
 80018ee:	2800      	cmp	r0, #0
 80018f0:	d0ef      	beq.n	80018d2 <__gedf2+0x7a>
 80018f2:	9b01      	ldr	r3, [sp, #4]
 80018f4:	4563      	cmp	r3, ip
 80018f6:	d1ec      	bne.n	80018d2 <__gedf2+0x7a>
 80018f8:	4582      	cmp	sl, r0
 80018fa:	dcea      	bgt.n	80018d2 <__gedf2+0x7a>
 80018fc:	dbe1      	blt.n	80018c2 <__gedf2+0x6a>
 80018fe:	428e      	cmp	r6, r1
 8001900:	d8e7      	bhi.n	80018d2 <__gedf2+0x7a>
 8001902:	d1de      	bne.n	80018c2 <__gedf2+0x6a>
 8001904:	45c8      	cmp	r8, r9
 8001906:	d8e4      	bhi.n	80018d2 <__gedf2+0x7a>
 8001908:	2000      	movs	r0, #0
 800190a:	45c8      	cmp	r8, r9
 800190c:	d2e5      	bcs.n	80018da <__gedf2+0x82>
 800190e:	e7d8      	b.n	80018c2 <__gedf2+0x6a>
 8001910:	2c00      	cmp	r4, #0
 8001912:	d0e2      	beq.n	80018da <__gedf2+0x82>
 8001914:	e7dd      	b.n	80018d2 <__gedf2+0x7a>
 8001916:	4311      	orrs	r1, r2
 8001918:	d104      	bne.n	8001924 <__gedf2+0xcc>
 800191a:	9b01      	ldr	r3, [sp, #4]
 800191c:	4563      	cmp	r3, ip
 800191e:	d1d8      	bne.n	80018d2 <__gedf2+0x7a>
 8001920:	2000      	movs	r0, #0
 8001922:	e7da      	b.n	80018da <__gedf2+0x82>
 8001924:	2002      	movs	r0, #2
 8001926:	4240      	negs	r0, r0
 8001928:	e7d7      	b.n	80018da <__gedf2+0x82>
 800192a:	9b01      	ldr	r3, [sp, #4]
 800192c:	4563      	cmp	r3, ip
 800192e:	d0e6      	beq.n	80018fe <__gedf2+0xa6>
 8001930:	e7cf      	b.n	80018d2 <__gedf2+0x7a>
 8001932:	46c0      	nop			@ (mov r8, r8)
 8001934:	000007ff 	.word	0x000007ff

08001938 <__ledf2>:
 8001938:	b5f0      	push	{r4, r5, r6, r7, lr}
 800193a:	4657      	mov	r7, sl
 800193c:	464e      	mov	r6, r9
 800193e:	4645      	mov	r5, r8
 8001940:	46de      	mov	lr, fp
 8001942:	b5e0      	push	{r5, r6, r7, lr}
 8001944:	000d      	movs	r5, r1
 8001946:	030e      	lsls	r6, r1, #12
 8001948:	0049      	lsls	r1, r1, #1
 800194a:	0d49      	lsrs	r1, r1, #21
 800194c:	468a      	mov	sl, r1
 800194e:	0fdf      	lsrs	r7, r3, #31
 8001950:	0fe9      	lsrs	r1, r5, #31
 8001952:	46bc      	mov	ip, r7
 8001954:	b083      	sub	sp, #12
 8001956:	4f2e      	ldr	r7, [pc, #184]	@ (8001a10 <__ledf2+0xd8>)
 8001958:	0004      	movs	r4, r0
 800195a:	4680      	mov	r8, r0
 800195c:	9101      	str	r1, [sp, #4]
 800195e:	0058      	lsls	r0, r3, #1
 8001960:	0319      	lsls	r1, r3, #12
 8001962:	4691      	mov	r9, r2
 8001964:	0b36      	lsrs	r6, r6, #12
 8001966:	0b09      	lsrs	r1, r1, #12
 8001968:	0d40      	lsrs	r0, r0, #21
 800196a:	45ba      	cmp	sl, r7
 800196c:	d01e      	beq.n	80019ac <__ledf2+0x74>
 800196e:	42b8      	cmp	r0, r7
 8001970:	d00d      	beq.n	800198e <__ledf2+0x56>
 8001972:	4657      	mov	r7, sl
 8001974:	2f00      	cmp	r7, #0
 8001976:	d127      	bne.n	80019c8 <__ledf2+0x90>
 8001978:	4334      	orrs	r4, r6
 800197a:	2800      	cmp	r0, #0
 800197c:	d133      	bne.n	80019e6 <__ledf2+0xae>
 800197e:	430a      	orrs	r2, r1
 8001980:	d034      	beq.n	80019ec <__ledf2+0xb4>
 8001982:	2c00      	cmp	r4, #0
 8001984:	d140      	bne.n	8001a08 <__ledf2+0xd0>
 8001986:	4663      	mov	r3, ip
 8001988:	0058      	lsls	r0, r3, #1
 800198a:	3801      	subs	r0, #1
 800198c:	e015      	b.n	80019ba <__ledf2+0x82>
 800198e:	4311      	orrs	r1, r2
 8001990:	d112      	bne.n	80019b8 <__ledf2+0x80>
 8001992:	4653      	mov	r3, sl
 8001994:	2b00      	cmp	r3, #0
 8001996:	d101      	bne.n	800199c <__ledf2+0x64>
 8001998:	4326      	orrs	r6, r4
 800199a:	d0f4      	beq.n	8001986 <__ledf2+0x4e>
 800199c:	9b01      	ldr	r3, [sp, #4]
 800199e:	4563      	cmp	r3, ip
 80019a0:	d01d      	beq.n	80019de <__ledf2+0xa6>
 80019a2:	2001      	movs	r0, #1
 80019a4:	9b01      	ldr	r3, [sp, #4]
 80019a6:	425f      	negs	r7, r3
 80019a8:	4338      	orrs	r0, r7
 80019aa:	e006      	b.n	80019ba <__ledf2+0x82>
 80019ac:	4326      	orrs	r6, r4
 80019ae:	d103      	bne.n	80019b8 <__ledf2+0x80>
 80019b0:	4550      	cmp	r0, sl
 80019b2:	d1f6      	bne.n	80019a2 <__ledf2+0x6a>
 80019b4:	4311      	orrs	r1, r2
 80019b6:	d01c      	beq.n	80019f2 <__ledf2+0xba>
 80019b8:	2002      	movs	r0, #2
 80019ba:	b003      	add	sp, #12
 80019bc:	bcf0      	pop	{r4, r5, r6, r7}
 80019be:	46bb      	mov	fp, r7
 80019c0:	46b2      	mov	sl, r6
 80019c2:	46a9      	mov	r9, r5
 80019c4:	46a0      	mov	r8, r4
 80019c6:	bdf0      	pop	{r4, r5, r6, r7, pc}
 80019c8:	2800      	cmp	r0, #0
 80019ca:	d0ea      	beq.n	80019a2 <__ledf2+0x6a>
 80019cc:	9b01      	ldr	r3, [sp, #4]
 80019ce:	4563      	cmp	r3, ip
 80019d0:	d1e7      	bne.n	80019a2 <__ledf2+0x6a>
 80019d2:	4582      	cmp	sl, r0
 80019d4:	dce5      	bgt.n	80019a2 <__ledf2+0x6a>
 80019d6:	db02      	blt.n	80019de <__ledf2+0xa6>
 80019d8:	428e      	cmp	r6, r1
 80019da:	d8e2      	bhi.n	80019a2 <__ledf2+0x6a>
 80019dc:	d00e      	beq.n	80019fc <__ledf2+0xc4>
 80019de:	9b01      	ldr	r3, [sp, #4]
 80019e0:	0058      	lsls	r0, r3, #1
 80019e2:	3801      	subs	r0, #1
 80019e4:	e7e9      	b.n	80019ba <__ledf2+0x82>
 80019e6:	2c00      	cmp	r4, #0
 80019e8:	d0cd      	beq.n	8001986 <__ledf2+0x4e>
 80019ea:	e7d7      	b.n	800199c <__ledf2+0x64>
 80019ec:	2c00      	cmp	r4, #0
 80019ee:	d0e4      	beq.n	80019ba <__ledf2+0x82>
 80019f0:	e7d7      	b.n	80019a2 <__ledf2+0x6a>
 80019f2:	9b01      	ldr	r3, [sp, #4]
 80019f4:	2000      	movs	r0, #0
 80019f6:	4563      	cmp	r3, ip
 80019f8:	d0df      	beq.n	80019ba <__ledf2+0x82>
 80019fa:	e7d2      	b.n	80019a2 <__ledf2+0x6a>
 80019fc:	45c8      	cmp	r8, r9
 80019fe:	d8d0      	bhi.n	80019a2 <__ledf2+0x6a>
 8001a00:	2000      	movs	r0, #0
 8001a02:	45c8      	cmp	r8, r9
 8001a04:	d2d9      	bcs.n	80019ba <__ledf2+0x82>
 8001a06:	e7ea      	b.n	80019de <__ledf2+0xa6>
 8001a08:	9b01      	ldr	r3, [sp, #4]
 8001a0a:	4563      	cmp	r3, ip
 8001a0c:	d0e4      	beq.n	80019d8 <__ledf2+0xa0>
 8001a0e:	e7c8      	b.n	80019a2 <__ledf2+0x6a>
 8001a10:	000007ff 	.word	0x000007ff

08001a14 <__aeabi_dmul>:
 8001a14:	b5f0      	push	{r4, r5, r6, r7, lr}
 8001a16:	4657      	mov	r7, sl
 8001a18:	464e      	mov	r6, r9
 8001a1a:	46de      	mov	lr, fp
 8001a1c:	4645      	mov	r5, r8
 8001a1e:	b5e0      	push	{r5, r6, r7, lr}
 8001a20:	001f      	movs	r7, r3
 8001a22:	030b      	lsls	r3, r1, #12
 8001a24:	0b1b      	lsrs	r3, r3, #12
 8001a26:	0016      	movs	r6, r2
 8001a28:	469a      	mov	sl, r3
 8001a2a:	0fca      	lsrs	r2, r1, #31
 8001a2c:	004b      	lsls	r3, r1, #1
 8001a2e:	0004      	movs	r4, r0
 8001a30:	4691      	mov	r9, r2
 8001a32:	b085      	sub	sp, #20
 8001a34:	0d5b      	lsrs	r3, r3, #21
 8001a36:	d100      	bne.n	8001a3a <__aeabi_dmul+0x26>
 8001a38:	e1cf      	b.n	8001dda <__aeabi_dmul+0x3c6>
 8001a3a:	4acd      	ldr	r2, [pc, #820]	@ (8001d70 <__aeabi_dmul+0x35c>)
 8001a3c:	4293      	cmp	r3, r2
 8001a3e:	d055      	beq.n	8001aec <__aeabi_dmul+0xd8>
 8001a40:	4651      	mov	r1, sl
 8001a42:	0f42      	lsrs	r2, r0, #29
 8001a44:	00c9      	lsls	r1, r1, #3
 8001a46:	430a      	orrs	r2, r1
 8001a48:	2180      	movs	r1, #128	@ 0x80
 8001a4a:	0409      	lsls	r1, r1, #16
 8001a4c:	4311      	orrs	r1, r2
 8001a4e:	00c2      	lsls	r2, r0, #3
 8001a50:	4690      	mov	r8, r2
 8001a52:	4ac8      	ldr	r2, [pc, #800]	@ (8001d74 <__aeabi_dmul+0x360>)
 8001a54:	468a      	mov	sl, r1
 8001a56:	4693      	mov	fp, r2
 8001a58:	449b      	add	fp, r3
 8001a5a:	2300      	movs	r3, #0
 8001a5c:	2500      	movs	r5, #0
 8001a5e:	9302      	str	r3, [sp, #8]
 8001a60:	033c      	lsls	r4, r7, #12
 8001a62:	007b      	lsls	r3, r7, #1
 8001a64:	0ffa      	lsrs	r2, r7, #31
 8001a66:	9601      	str	r6, [sp, #4]
 8001a68:	0b24      	lsrs	r4, r4, #12
 8001a6a:	0d5b      	lsrs	r3, r3, #21
 8001a6c:	9200      	str	r2, [sp, #0]
 8001a6e:	d100      	bne.n	8001a72 <__aeabi_dmul+0x5e>
 8001a70:	e188      	b.n	8001d84 <__aeabi_dmul+0x370>
 8001a72:	4abf      	ldr	r2, [pc, #764]	@ (8001d70 <__aeabi_dmul+0x35c>)
 8001a74:	4293      	cmp	r3, r2
 8001a76:	d100      	bne.n	8001a7a <__aeabi_dmul+0x66>
 8001a78:	e092      	b.n	8001ba0 <__aeabi_dmul+0x18c>
 8001a7a:	4abe      	ldr	r2, [pc, #760]	@ (8001d74 <__aeabi_dmul+0x360>)
 8001a7c:	4694      	mov	ip, r2
 8001a7e:	4463      	add	r3, ip
 8001a80:	449b      	add	fp, r3
 8001a82:	2d0a      	cmp	r5, #10
 8001a84:	dc42      	bgt.n	8001b0c <__aeabi_dmul+0xf8>
 8001a86:	00e4      	lsls	r4, r4, #3
 8001a88:	0f73      	lsrs	r3, r6, #29
 8001a8a:	4323      	orrs	r3, r4
 8001a8c:	2480      	movs	r4, #128	@ 0x80
 8001a8e:	4649      	mov	r1, r9
 8001a90:	0424      	lsls	r4, r4, #16
 8001a92:	431c      	orrs	r4, r3
 8001a94:	00f3      	lsls	r3, r6, #3
 8001a96:	9301      	str	r3, [sp, #4]
 8001a98:	9b00      	ldr	r3, [sp, #0]
 8001a9a:	2000      	movs	r0, #0
 8001a9c:	4059      	eors	r1, r3
 8001a9e:	b2cb      	uxtb	r3, r1
 8001aa0:	9303      	str	r3, [sp, #12]
 8001aa2:	2d02      	cmp	r5, #2
 8001aa4:	dc00      	bgt.n	8001aa8 <__aeabi_dmul+0x94>
 8001aa6:	e094      	b.n	8001bd2 <__aeabi_dmul+0x1be>
 8001aa8:	2301      	movs	r3, #1
 8001aaa:	40ab      	lsls	r3, r5
 8001aac:	001d      	movs	r5, r3
 8001aae:	23a6      	movs	r3, #166	@ 0xa6
 8001ab0:	002a      	movs	r2, r5
 8001ab2:	00db      	lsls	r3, r3, #3
 8001ab4:	401a      	ands	r2, r3
 8001ab6:	421d      	tst	r5, r3
 8001ab8:	d000      	beq.n	8001abc <__aeabi_dmul+0xa8>
 8001aba:	e229      	b.n	8001f10 <__aeabi_dmul+0x4fc>
 8001abc:	2390      	movs	r3, #144	@ 0x90
 8001abe:	009b      	lsls	r3, r3, #2
 8001ac0:	421d      	tst	r5, r3
 8001ac2:	d100      	bne.n	8001ac6 <__aeabi_dmul+0xb2>
 8001ac4:	e24d      	b.n	8001f62 <__aeabi_dmul+0x54e>
 8001ac6:	2300      	movs	r3, #0
 8001ac8:	2480      	movs	r4, #128	@ 0x80
 8001aca:	4699      	mov	r9, r3
 8001acc:	0324      	lsls	r4, r4, #12
 8001ace:	4ba8      	ldr	r3, [pc, #672]	@ (8001d70 <__aeabi_dmul+0x35c>)
 8001ad0:	0010      	movs	r0, r2
 8001ad2:	464a      	mov	r2, r9
 8001ad4:	051b      	lsls	r3, r3, #20
 8001ad6:	4323      	orrs	r3, r4
 8001ad8:	07d2      	lsls	r2, r2, #31
 8001ada:	4313      	orrs	r3, r2
 8001adc:	0019      	movs	r1, r3
 8001ade:	b005      	add	sp, #20
 8001ae0:	bcf0      	pop	{r4, r5, r6, r7}
 8001ae2:	46bb      	mov	fp, r7
 8001ae4:	46b2      	mov	sl, r6
 8001ae6:	46a9      	mov	r9, r5
 8001ae8:	46a0      	mov	r8, r4
 8001aea:	bdf0      	pop	{r4, r5, r6, r7, pc}
 8001aec:	4652      	mov	r2, sl
 8001aee:	4302      	orrs	r2, r0
 8001af0:	4690      	mov	r8, r2
 8001af2:	d000      	beq.n	8001af6 <__aeabi_dmul+0xe2>
 8001af4:	e1ac      	b.n	8001e50 <__aeabi_dmul+0x43c>
 8001af6:	469b      	mov	fp, r3
 8001af8:	2302      	movs	r3, #2
 8001afa:	4692      	mov	sl, r2
 8001afc:	2508      	movs	r5, #8
 8001afe:	9302      	str	r3, [sp, #8]
 8001b00:	e7ae      	b.n	8001a60 <__aeabi_dmul+0x4c>
 8001b02:	9b00      	ldr	r3, [sp, #0]
 8001b04:	46a2      	mov	sl, r4
 8001b06:	4699      	mov	r9, r3
 8001b08:	9b01      	ldr	r3, [sp, #4]
 8001b0a:	4698      	mov	r8, r3
 8001b0c:	9b02      	ldr	r3, [sp, #8]
 8001b0e:	2b02      	cmp	r3, #2
 8001b10:	d100      	bne.n	8001b14 <__aeabi_dmul+0x100>
 8001b12:	e1ca      	b.n	8001eaa <__aeabi_dmul+0x496>
 8001b14:	2b03      	cmp	r3, #3
 8001b16:	d100      	bne.n	8001b1a <__aeabi_dmul+0x106>
 8001b18:	e192      	b.n	8001e40 <__aeabi_dmul+0x42c>
 8001b1a:	2b01      	cmp	r3, #1
 8001b1c:	d110      	bne.n	8001b40 <__aeabi_dmul+0x12c>
 8001b1e:	2300      	movs	r3, #0
 8001b20:	2400      	movs	r4, #0
 8001b22:	2200      	movs	r2, #0
 8001b24:	e7d4      	b.n	8001ad0 <__aeabi_dmul+0xbc>
 8001b26:	2201      	movs	r2, #1
 8001b28:	087b      	lsrs	r3, r7, #1
 8001b2a:	403a      	ands	r2, r7
 8001b2c:	4313      	orrs	r3, r2
 8001b2e:	4652      	mov	r2, sl
 8001b30:	07d2      	lsls	r2, r2, #31
 8001b32:	4313      	orrs	r3, r2
 8001b34:	4698      	mov	r8, r3
 8001b36:	4653      	mov	r3, sl
 8001b38:	085b      	lsrs	r3, r3, #1
 8001b3a:	469a      	mov	sl, r3
 8001b3c:	9b03      	ldr	r3, [sp, #12]
 8001b3e:	4699      	mov	r9, r3
 8001b40:	465b      	mov	r3, fp
 8001b42:	1c58      	adds	r0, r3, #1
 8001b44:	2380      	movs	r3, #128	@ 0x80
 8001b46:	00db      	lsls	r3, r3, #3
 8001b48:	445b      	add	r3, fp
 8001b4a:	2b00      	cmp	r3, #0
 8001b4c:	dc00      	bgt.n	8001b50 <__aeabi_dmul+0x13c>
 8001b4e:	e1b1      	b.n	8001eb4 <__aeabi_dmul+0x4a0>
 8001b50:	4642      	mov	r2, r8
 8001b52:	0752      	lsls	r2, r2, #29
 8001b54:	d00b      	beq.n	8001b6e <__aeabi_dmul+0x15a>
 8001b56:	220f      	movs	r2, #15
 8001b58:	4641      	mov	r1, r8
 8001b5a:	400a      	ands	r2, r1
 8001b5c:	2a04      	cmp	r2, #4
 8001b5e:	d006      	beq.n	8001b6e <__aeabi_dmul+0x15a>
 8001b60:	4642      	mov	r2, r8
 8001b62:	1d11      	adds	r1, r2, #4
 8001b64:	4541      	cmp	r1, r8
 8001b66:	4192      	sbcs	r2, r2
 8001b68:	4688      	mov	r8, r1
 8001b6a:	4252      	negs	r2, r2
 8001b6c:	4492      	add	sl, r2
 8001b6e:	4652      	mov	r2, sl
 8001b70:	01d2      	lsls	r2, r2, #7
 8001b72:	d506      	bpl.n	8001b82 <__aeabi_dmul+0x16e>
 8001b74:	4652      	mov	r2, sl
 8001b76:	4b80      	ldr	r3, [pc, #512]	@ (8001d78 <__aeabi_dmul+0x364>)
 8001b78:	401a      	ands	r2, r3
 8001b7a:	2380      	movs	r3, #128	@ 0x80
 8001b7c:	4692      	mov	sl, r2
 8001b7e:	00db      	lsls	r3, r3, #3
 8001b80:	18c3      	adds	r3, r0, r3
 8001b82:	4a7e      	ldr	r2, [pc, #504]	@ (8001d7c <__aeabi_dmul+0x368>)
 8001b84:	4293      	cmp	r3, r2
 8001b86:	dd00      	ble.n	8001b8a <__aeabi_dmul+0x176>
 8001b88:	e18f      	b.n	8001eaa <__aeabi_dmul+0x496>
 8001b8a:	4642      	mov	r2, r8
 8001b8c:	08d1      	lsrs	r1, r2, #3
 8001b8e:	4652      	mov	r2, sl
 8001b90:	0752      	lsls	r2, r2, #29
 8001b92:	430a      	orrs	r2, r1
 8001b94:	4651      	mov	r1, sl
 8001b96:	055b      	lsls	r3, r3, #21
 8001b98:	024c      	lsls	r4, r1, #9
 8001b9a:	0b24      	lsrs	r4, r4, #12
 8001b9c:	0d5b      	lsrs	r3, r3, #21
 8001b9e:	e797      	b.n	8001ad0 <__aeabi_dmul+0xbc>
 8001ba0:	4b73      	ldr	r3, [pc, #460]	@ (8001d70 <__aeabi_dmul+0x35c>)
 8001ba2:	4326      	orrs	r6, r4
 8001ba4:	469c      	mov	ip, r3
 8001ba6:	44e3      	add	fp, ip
 8001ba8:	2e00      	cmp	r6, #0
 8001baa:	d100      	bne.n	8001bae <__aeabi_dmul+0x19a>
 8001bac:	e16f      	b.n	8001e8e <__aeabi_dmul+0x47a>
 8001bae:	2303      	movs	r3, #3
 8001bb0:	4649      	mov	r1, r9
 8001bb2:	431d      	orrs	r5, r3
 8001bb4:	9b00      	ldr	r3, [sp, #0]
 8001bb6:	4059      	eors	r1, r3
 8001bb8:	b2cb      	uxtb	r3, r1
 8001bba:	9303      	str	r3, [sp, #12]
 8001bbc:	2d0a      	cmp	r5, #10
 8001bbe:	dd00      	ble.n	8001bc2 <__aeabi_dmul+0x1ae>
 8001bc0:	e133      	b.n	8001e2a <__aeabi_dmul+0x416>
 8001bc2:	2301      	movs	r3, #1
 8001bc4:	40ab      	lsls	r3, r5
 8001bc6:	001d      	movs	r5, r3
 8001bc8:	2303      	movs	r3, #3
 8001bca:	9302      	str	r3, [sp, #8]
 8001bcc:	2288      	movs	r2, #136	@ 0x88
 8001bce:	422a      	tst	r2, r5
 8001bd0:	d197      	bne.n	8001b02 <__aeabi_dmul+0xee>
 8001bd2:	4642      	mov	r2, r8
 8001bd4:	4643      	mov	r3, r8
 8001bd6:	0412      	lsls	r2, r2, #16
 8001bd8:	0c12      	lsrs	r2, r2, #16
 8001bda:	0016      	movs	r6, r2
 8001bdc:	9801      	ldr	r0, [sp, #4]
 8001bde:	0c1d      	lsrs	r5, r3, #16
 8001be0:	0c03      	lsrs	r3, r0, #16
 8001be2:	0400      	lsls	r0, r0, #16
 8001be4:	0c00      	lsrs	r0, r0, #16
 8001be6:	4346      	muls	r6, r0
 8001be8:	46b4      	mov	ip, r6
 8001bea:	001e      	movs	r6, r3
 8001bec:	436e      	muls	r6, r5
 8001bee:	9600      	str	r6, [sp, #0]
 8001bf0:	0016      	movs	r6, r2
 8001bf2:	0007      	movs	r7, r0
 8001bf4:	435e      	muls	r6, r3
 8001bf6:	4661      	mov	r1, ip
 8001bf8:	46b0      	mov	r8, r6
 8001bfa:	436f      	muls	r7, r5
 8001bfc:	0c0e      	lsrs	r6, r1, #16
 8001bfe:	44b8      	add	r8, r7
 8001c00:	4446      	add	r6, r8
 8001c02:	42b7      	cmp	r7, r6
 8001c04:	d905      	bls.n	8001c12 <__aeabi_dmul+0x1fe>
 8001c06:	2180      	movs	r1, #128	@ 0x80
 8001c08:	0249      	lsls	r1, r1, #9
 8001c0a:	4688      	mov	r8, r1
 8001c0c:	9f00      	ldr	r7, [sp, #0]
 8001c0e:	4447      	add	r7, r8
 8001c10:	9700      	str	r7, [sp, #0]
 8001c12:	4661      	mov	r1, ip
 8001c14:	0409      	lsls	r1, r1, #16
 8001c16:	0c09      	lsrs	r1, r1, #16
 8001c18:	0c37      	lsrs	r7, r6, #16
 8001c1a:	0436      	lsls	r6, r6, #16
 8001c1c:	468c      	mov	ip, r1
 8001c1e:	0031      	movs	r1, r6
 8001c20:	4461      	add	r1, ip
 8001c22:	9101      	str	r1, [sp, #4]
 8001c24:	0011      	movs	r1, r2
 8001c26:	0c26      	lsrs	r6, r4, #16
 8001c28:	0424      	lsls	r4, r4, #16
 8001c2a:	0c24      	lsrs	r4, r4, #16
 8001c2c:	4361      	muls	r1, r4
 8001c2e:	468c      	mov	ip, r1
 8001c30:	0021      	movs	r1, r4
 8001c32:	4369      	muls	r1, r5
 8001c34:	4689      	mov	r9, r1
 8001c36:	4661      	mov	r1, ip
 8001c38:	0c09      	lsrs	r1, r1, #16
 8001c3a:	4688      	mov	r8, r1
 8001c3c:	4372      	muls	r2, r6
 8001c3e:	444a      	add	r2, r9
 8001c40:	4442      	add	r2, r8
 8001c42:	4375      	muls	r5, r6
 8001c44:	4591      	cmp	r9, r2
 8001c46:	d903      	bls.n	8001c50 <__aeabi_dmul+0x23c>
 8001c48:	2180      	movs	r1, #128	@ 0x80
 8001c4a:	0249      	lsls	r1, r1, #9
 8001c4c:	4688      	mov	r8, r1
 8001c4e:	4445      	add	r5, r8
 8001c50:	0c11      	lsrs	r1, r2, #16
 8001c52:	4688      	mov	r8, r1
 8001c54:	4661      	mov	r1, ip
 8001c56:	0409      	lsls	r1, r1, #16
 8001c58:	0c09      	lsrs	r1, r1, #16
 8001c5a:	468c      	mov	ip, r1
 8001c5c:	0412      	lsls	r2, r2, #16
 8001c5e:	4462      	add	r2, ip
 8001c60:	18b9      	adds	r1, r7, r2
 8001c62:	9102      	str	r1, [sp, #8]
 8001c64:	4651      	mov	r1, sl
 8001c66:	0c09      	lsrs	r1, r1, #16
 8001c68:	468c      	mov	ip, r1
 8001c6a:	4651      	mov	r1, sl
 8001c6c:	040f      	lsls	r7, r1, #16
 8001c6e:	0c3f      	lsrs	r7, r7, #16
 8001c70:	0039      	movs	r1, r7
 8001c72:	4341      	muls	r1, r0
 8001c74:	4445      	add	r5, r8
 8001c76:	4688      	mov	r8, r1
 8001c78:	4661      	mov	r1, ip
 8001c7a:	4341      	muls	r1, r0
 8001c7c:	468a      	mov	sl, r1
 8001c7e:	4641      	mov	r1, r8
 8001c80:	4660      	mov	r0, ip
 8001c82:	0c09      	lsrs	r1, r1, #16
 8001c84:	4689      	mov	r9, r1
 8001c86:	4358      	muls	r0, r3
 8001c88:	437b      	muls	r3, r7
 8001c8a:	4453      	add	r3, sl
 8001c8c:	444b      	add	r3, r9
 8001c8e:	459a      	cmp	sl, r3
 8001c90:	d903      	bls.n	8001c9a <__aeabi_dmul+0x286>
 8001c92:	2180      	movs	r1, #128	@ 0x80
 8001c94:	0249      	lsls	r1, r1, #9
 8001c96:	4689      	mov	r9, r1
 8001c98:	4448      	add	r0, r9
 8001c9a:	0c19      	lsrs	r1, r3, #16
 8001c9c:	4689      	mov	r9, r1
 8001c9e:	4641      	mov	r1, r8
 8001ca0:	0409      	lsls	r1, r1, #16
 8001ca2:	0c09      	lsrs	r1, r1, #16
 8001ca4:	4688      	mov	r8, r1
 8001ca6:	0039      	movs	r1, r7
 8001ca8:	4361      	muls	r1, r4
 8001caa:	041b      	lsls	r3, r3, #16
 8001cac:	4443      	add	r3, r8
 8001cae:	4688      	mov	r8, r1
 8001cb0:	4661      	mov	r1, ip
 8001cb2:	434c      	muls	r4, r1
 8001cb4:	4371      	muls	r1, r6
 8001cb6:	468c      	mov	ip, r1
 8001cb8:	4641      	mov	r1, r8
 8001cba:	4377      	muls	r7, r6
 8001cbc:	0c0e      	lsrs	r6, r1, #16
 8001cbe:	193f      	adds	r7, r7, r4
 8001cc0:	19f6      	adds	r6, r6, r7
 8001cc2:	4448      	add	r0, r9
 8001cc4:	42b4      	cmp	r4, r6
 8001cc6:	d903      	bls.n	8001cd0 <__aeabi_dmul+0x2bc>
 8001cc8:	2180      	movs	r1, #128	@ 0x80
 8001cca:	0249      	lsls	r1, r1, #9
 8001ccc:	4689      	mov	r9, r1
 8001cce:	44cc      	add	ip, r9
 8001cd0:	9902      	ldr	r1, [sp, #8]
 8001cd2:	9f00      	ldr	r7, [sp, #0]
 8001cd4:	4689      	mov	r9, r1
 8001cd6:	0431      	lsls	r1, r6, #16
 8001cd8:	444f      	add	r7, r9
 8001cda:	4689      	mov	r9, r1
 8001cdc:	4641      	mov	r1, r8
 8001cde:	4297      	cmp	r7, r2
 8001ce0:	4192      	sbcs	r2, r2
 8001ce2:	040c      	lsls	r4, r1, #16
 8001ce4:	0c24      	lsrs	r4, r4, #16
 8001ce6:	444c      	add	r4, r9
 8001ce8:	18ff      	adds	r7, r7, r3
 8001cea:	4252      	negs	r2, r2
 8001cec:	1964      	adds	r4, r4, r5
 8001cee:	18a1      	adds	r1, r4, r2
 8001cf0:	429f      	cmp	r7, r3
 8001cf2:	419b      	sbcs	r3, r3
 8001cf4:	4688      	mov	r8, r1
 8001cf6:	4682      	mov	sl, r0
 8001cf8:	425b      	negs	r3, r3
 8001cfa:	4699      	mov	r9, r3
 8001cfc:	4590      	cmp	r8, r2
 8001cfe:	4192      	sbcs	r2, r2
 8001d00:	42ac      	cmp	r4, r5
 8001d02:	41a4      	sbcs	r4, r4
 8001d04:	44c2      	add	sl, r8
 8001d06:	44d1      	add	r9, sl
 8001d08:	4252      	negs	r2, r2
 8001d0a:	4264      	negs	r4, r4
 8001d0c:	4314      	orrs	r4, r2
 8001d0e:	4599      	cmp	r9, r3
 8001d10:	419b      	sbcs	r3, r3
 8001d12:	4582      	cmp	sl, r0
 8001d14:	4192      	sbcs	r2, r2
 8001d16:	425b      	negs	r3, r3
 8001d18:	4252      	negs	r2, r2
 8001d1a:	4313      	orrs	r3, r2
 8001d1c:	464a      	mov	r2, r9
 8001d1e:	0c36      	lsrs	r6, r6, #16
 8001d20:	19a4      	adds	r4, r4, r6
 8001d22:	18e3      	adds	r3, r4, r3
 8001d24:	4463      	add	r3, ip
 8001d26:	025b      	lsls	r3, r3, #9
 8001d28:	0dd2      	lsrs	r2, r2, #23
 8001d2a:	431a      	orrs	r2, r3
 8001d2c:	9901      	ldr	r1, [sp, #4]
 8001d2e:	4692      	mov	sl, r2
 8001d30:	027a      	lsls	r2, r7, #9
 8001d32:	430a      	orrs	r2, r1
 8001d34:	1e50      	subs	r0, r2, #1
 8001d36:	4182      	sbcs	r2, r0
 8001d38:	0dff      	lsrs	r7, r7, #23
 8001d3a:	4317      	orrs	r7, r2
 8001d3c:	464a      	mov	r2, r9
 8001d3e:	0252      	lsls	r2, r2, #9
 8001d40:	4317      	orrs	r7, r2
 8001d42:	46b8      	mov	r8, r7
 8001d44:	01db      	lsls	r3, r3, #7
 8001d46:	d500      	bpl.n	8001d4a <__aeabi_dmul+0x336>
 8001d48:	e6ed      	b.n	8001b26 <__aeabi_dmul+0x112>
 8001d4a:	4b0d      	ldr	r3, [pc, #52]	@ (8001d80 <__aeabi_dmul+0x36c>)
 8001d4c:	9a03      	ldr	r2, [sp, #12]
 8001d4e:	445b      	add	r3, fp
 8001d50:	4691      	mov	r9, r2
 8001d52:	2b00      	cmp	r3, #0
 8001d54:	dc00      	bgt.n	8001d58 <__aeabi_dmul+0x344>
 8001d56:	e0ac      	b.n	8001eb2 <__aeabi_dmul+0x49e>
 8001d58:	003a      	movs	r2, r7
 8001d5a:	0752      	lsls	r2, r2, #29
 8001d5c:	d100      	bne.n	8001d60 <__aeabi_dmul+0x34c>
 8001d5e:	e710      	b.n	8001b82 <__aeabi_dmul+0x16e>
 8001d60:	220f      	movs	r2, #15
 8001d62:	4658      	mov	r0, fp
 8001d64:	403a      	ands	r2, r7
 8001d66:	2a04      	cmp	r2, #4
 8001d68:	d000      	beq.n	8001d6c <__aeabi_dmul+0x358>
 8001d6a:	e6f9      	b.n	8001b60 <__aeabi_dmul+0x14c>
 8001d6c:	e709      	b.n	8001b82 <__aeabi_dmul+0x16e>
 8001d6e:	46c0      	nop			@ (mov r8, r8)
 8001d70:	000007ff 	.word	0x000007ff
 8001d74:	fffffc01 	.word	0xfffffc01
 8001d78:	feffffff 	.word	0xfeffffff
 8001d7c:	000007fe 	.word	0x000007fe
 8001d80:	000003ff 	.word	0x000003ff
 8001d84:	0022      	movs	r2, r4
 8001d86:	4332      	orrs	r2, r6
 8001d88:	d06f      	beq.n	8001e6a <__aeabi_dmul+0x456>
 8001d8a:	2c00      	cmp	r4, #0
 8001d8c:	d100      	bne.n	8001d90 <__aeabi_dmul+0x37c>
 8001d8e:	e0c2      	b.n	8001f16 <__aeabi_dmul+0x502>
 8001d90:	0020      	movs	r0, r4
 8001d92:	f000 fe27 	bl	80029e4 <__clzsi2>
 8001d96:	0002      	movs	r2, r0
 8001d98:	0003      	movs	r3, r0
 8001d9a:	3a0b      	subs	r2, #11
 8001d9c:	201d      	movs	r0, #29
 8001d9e:	1a82      	subs	r2, r0, r2
 8001da0:	0030      	movs	r0, r6
 8001da2:	0019      	movs	r1, r3
 8001da4:	40d0      	lsrs	r0, r2
 8001da6:	3908      	subs	r1, #8
 8001da8:	408c      	lsls	r4, r1
 8001daa:	0002      	movs	r2, r0
 8001dac:	4322      	orrs	r2, r4
 8001dae:	0034      	movs	r4, r6
 8001db0:	408c      	lsls	r4, r1
 8001db2:	4659      	mov	r1, fp
 8001db4:	1acb      	subs	r3, r1, r3
 8001db6:	4986      	ldr	r1, [pc, #536]	@ (8001fd0 <__aeabi_dmul+0x5bc>)
 8001db8:	468b      	mov	fp, r1
 8001dba:	449b      	add	fp, r3
 8001dbc:	2d0a      	cmp	r5, #10
 8001dbe:	dd00      	ble.n	8001dc2 <__aeabi_dmul+0x3ae>
 8001dc0:	e6a4      	b.n	8001b0c <__aeabi_dmul+0xf8>
 8001dc2:	4649      	mov	r1, r9
 8001dc4:	9b00      	ldr	r3, [sp, #0]
 8001dc6:	9401      	str	r4, [sp, #4]
 8001dc8:	4059      	eors	r1, r3
 8001dca:	b2cb      	uxtb	r3, r1
 8001dcc:	0014      	movs	r4, r2
 8001dce:	2000      	movs	r0, #0
 8001dd0:	9303      	str	r3, [sp, #12]
 8001dd2:	2d02      	cmp	r5, #2
 8001dd4:	dd00      	ble.n	8001dd8 <__aeabi_dmul+0x3c4>
 8001dd6:	e667      	b.n	8001aa8 <__aeabi_dmul+0x94>
 8001dd8:	e6fb      	b.n	8001bd2 <__aeabi_dmul+0x1be>
 8001dda:	4653      	mov	r3, sl
 8001ddc:	4303      	orrs	r3, r0
 8001dde:	4698      	mov	r8, r3
 8001de0:	d03c      	beq.n	8001e5c <__aeabi_dmul+0x448>
 8001de2:	4653      	mov	r3, sl
 8001de4:	2b00      	cmp	r3, #0
 8001de6:	d100      	bne.n	8001dea <__aeabi_dmul+0x3d6>
 8001de8:	e0a3      	b.n	8001f32 <__aeabi_dmul+0x51e>
 8001dea:	4650      	mov	r0, sl
 8001dec:	f000 fdfa 	bl	80029e4 <__clzsi2>
 8001df0:	230b      	movs	r3, #11
 8001df2:	425b      	negs	r3, r3
 8001df4:	469c      	mov	ip, r3
 8001df6:	0002      	movs	r2, r0
 8001df8:	4484      	add	ip, r0
 8001dfa:	0011      	movs	r1, r2
 8001dfc:	4650      	mov	r0, sl
 8001dfe:	3908      	subs	r1, #8
 8001e00:	4088      	lsls	r0, r1
 8001e02:	231d      	movs	r3, #29
 8001e04:	4680      	mov	r8, r0
 8001e06:	4660      	mov	r0, ip
 8001e08:	1a1b      	subs	r3, r3, r0
 8001e0a:	0020      	movs	r0, r4
 8001e0c:	40d8      	lsrs	r0, r3
 8001e0e:	0003      	movs	r3, r0
 8001e10:	4640      	mov	r0, r8
 8001e12:	4303      	orrs	r3, r0
 8001e14:	469a      	mov	sl, r3
 8001e16:	0023      	movs	r3, r4
 8001e18:	408b      	lsls	r3, r1
 8001e1a:	4698      	mov	r8, r3
 8001e1c:	4b6c      	ldr	r3, [pc, #432]	@ (8001fd0 <__aeabi_dmul+0x5bc>)
 8001e1e:	2500      	movs	r5, #0
 8001e20:	1a9b      	subs	r3, r3, r2
 8001e22:	469b      	mov	fp, r3
 8001e24:	2300      	movs	r3, #0
 8001e26:	9302      	str	r3, [sp, #8]
 8001e28:	e61a      	b.n	8001a60 <__aeabi_dmul+0x4c>
 8001e2a:	2d0f      	cmp	r5, #15
 8001e2c:	d000      	beq.n	8001e30 <__aeabi_dmul+0x41c>
 8001e2e:	e0c9      	b.n	8001fc4 <__aeabi_dmul+0x5b0>
 8001e30:	2380      	movs	r3, #128	@ 0x80
 8001e32:	4652      	mov	r2, sl
 8001e34:	031b      	lsls	r3, r3, #12
 8001e36:	421a      	tst	r2, r3
 8001e38:	d002      	beq.n	8001e40 <__aeabi_dmul+0x42c>
 8001e3a:	421c      	tst	r4, r3
 8001e3c:	d100      	bne.n	8001e40 <__aeabi_dmul+0x42c>
 8001e3e:	e092      	b.n	8001f66 <__aeabi_dmul+0x552>
 8001e40:	2480      	movs	r4, #128	@ 0x80
 8001e42:	4653      	mov	r3, sl
 8001e44:	0324      	lsls	r4, r4, #12
 8001e46:	431c      	orrs	r4, r3
 8001e48:	0324      	lsls	r4, r4, #12
 8001e4a:	4642      	mov	r2, r8
 8001e4c:	0b24      	lsrs	r4, r4, #12
 8001e4e:	e63e      	b.n	8001ace <__aeabi_dmul+0xba>
 8001e50:	469b      	mov	fp, r3
 8001e52:	2303      	movs	r3, #3
 8001e54:	4680      	mov	r8, r0
 8001e56:	250c      	movs	r5, #12
 8001e58:	9302      	str	r3, [sp, #8]
 8001e5a:	e601      	b.n	8001a60 <__aeabi_dmul+0x4c>
 8001e5c:	2300      	movs	r3, #0
 8001e5e:	469a      	mov	sl, r3
 8001e60:	469b      	mov	fp, r3
 8001e62:	3301      	adds	r3, #1
 8001e64:	2504      	movs	r5, #4
 8001e66:	9302      	str	r3, [sp, #8]
 8001e68:	e5fa      	b.n	8001a60 <__aeabi_dmul+0x4c>
 8001e6a:	2101      	movs	r1, #1
 8001e6c:	430d      	orrs	r5, r1
 8001e6e:	2d0a      	cmp	r5, #10
 8001e70:	dd00      	ble.n	8001e74 <__aeabi_dmul+0x460>
 8001e72:	e64b      	b.n	8001b0c <__aeabi_dmul+0xf8>
 8001e74:	4649      	mov	r1, r9
 8001e76:	9800      	ldr	r0, [sp, #0]
 8001e78:	4041      	eors	r1, r0
 8001e7a:	b2c9      	uxtb	r1, r1
 8001e7c:	9103      	str	r1, [sp, #12]
 8001e7e:	2d02      	cmp	r5, #2
 8001e80:	dc00      	bgt.n	8001e84 <__aeabi_dmul+0x470>
 8001e82:	e096      	b.n	8001fb2 <__aeabi_dmul+0x59e>
 8001e84:	2300      	movs	r3, #0
 8001e86:	2400      	movs	r4, #0
 8001e88:	2001      	movs	r0, #1
 8001e8a:	9301      	str	r3, [sp, #4]
 8001e8c:	e60c      	b.n	8001aa8 <__aeabi_dmul+0x94>
 8001e8e:	4649      	mov	r1, r9
 8001e90:	2302      	movs	r3, #2
 8001e92:	9a00      	ldr	r2, [sp, #0]
 8001e94:	432b      	orrs	r3, r5
 8001e96:	4051      	eors	r1, r2
 8001e98:	b2ca      	uxtb	r2, r1
 8001e9a:	9203      	str	r2, [sp, #12]
 8001e9c:	2b0a      	cmp	r3, #10
 8001e9e:	dd00      	ble.n	8001ea2 <__aeabi_dmul+0x48e>
 8001ea0:	e634      	b.n	8001b0c <__aeabi_dmul+0xf8>
 8001ea2:	2d00      	cmp	r5, #0
 8001ea4:	d157      	bne.n	8001f56 <__aeabi_dmul+0x542>
 8001ea6:	9b03      	ldr	r3, [sp, #12]
 8001ea8:	4699      	mov	r9, r3
 8001eaa:	2400      	movs	r4, #0
 8001eac:	2200      	movs	r2, #0
 8001eae:	4b49      	ldr	r3, [pc, #292]	@ (8001fd4 <__aeabi_dmul+0x5c0>)
 8001eb0:	e60e      	b.n	8001ad0 <__aeabi_dmul+0xbc>
 8001eb2:	4658      	mov	r0, fp
 8001eb4:	2101      	movs	r1, #1
 8001eb6:	1ac9      	subs	r1, r1, r3
 8001eb8:	2938      	cmp	r1, #56	@ 0x38
 8001eba:	dd00      	ble.n	8001ebe <__aeabi_dmul+0x4aa>
 8001ebc:	e62f      	b.n	8001b1e <__aeabi_dmul+0x10a>
 8001ebe:	291f      	cmp	r1, #31
 8001ec0:	dd56      	ble.n	8001f70 <__aeabi_dmul+0x55c>
 8001ec2:	221f      	movs	r2, #31
 8001ec4:	4654      	mov	r4, sl
 8001ec6:	4252      	negs	r2, r2
 8001ec8:	1ad3      	subs	r3, r2, r3
 8001eca:	40dc      	lsrs	r4, r3
 8001ecc:	2920      	cmp	r1, #32
 8001ece:	d007      	beq.n	8001ee0 <__aeabi_dmul+0x4cc>
 8001ed0:	4b41      	ldr	r3, [pc, #260]	@ (8001fd8 <__aeabi_dmul+0x5c4>)
 8001ed2:	4642      	mov	r2, r8
 8001ed4:	469c      	mov	ip, r3
 8001ed6:	4653      	mov	r3, sl
 8001ed8:	4460      	add	r0, ip
 8001eda:	4083      	lsls	r3, r0
 8001edc:	431a      	orrs	r2, r3
 8001ede:	4690      	mov	r8, r2
 8001ee0:	4642      	mov	r2, r8
 8001ee2:	2107      	movs	r1, #7
 8001ee4:	1e53      	subs	r3, r2, #1
 8001ee6:	419a      	sbcs	r2, r3
 8001ee8:	000b      	movs	r3, r1
 8001eea:	4322      	orrs	r2, r4
 8001eec:	4013      	ands	r3, r2
 8001eee:	2400      	movs	r4, #0
 8001ef0:	4211      	tst	r1, r2
 8001ef2:	d009      	beq.n	8001f08 <__aeabi_dmul+0x4f4>
 8001ef4:	230f      	movs	r3, #15
 8001ef6:	4013      	ands	r3, r2
 8001ef8:	2b04      	cmp	r3, #4
 8001efa:	d05d      	beq.n	8001fb8 <__aeabi_dmul+0x5a4>
 8001efc:	1d11      	adds	r1, r2, #4
 8001efe:	4291      	cmp	r1, r2
 8001f00:	419b      	sbcs	r3, r3
 8001f02:	000a      	movs	r2, r1
 8001f04:	425b      	negs	r3, r3
 8001f06:	075b      	lsls	r3, r3, #29
 8001f08:	08d2      	lsrs	r2, r2, #3
 8001f0a:	431a      	orrs	r2, r3
 8001f0c:	2300      	movs	r3, #0
 8001f0e:	e5df      	b.n	8001ad0 <__aeabi_dmul+0xbc>
 8001f10:	9b03      	ldr	r3, [sp, #12]
 8001f12:	4699      	mov	r9, r3
 8001f14:	e5fa      	b.n	8001b0c <__aeabi_dmul+0xf8>
 8001f16:	9801      	ldr	r0, [sp, #4]
 8001f18:	f000 fd64 	bl	80029e4 <__clzsi2>
 8001f1c:	0002      	movs	r2, r0
 8001f1e:	0003      	movs	r3, r0
 8001f20:	3215      	adds	r2, #21
 8001f22:	3320      	adds	r3, #32
 8001f24:	2a1c      	cmp	r2, #28
 8001f26:	dc00      	bgt.n	8001f2a <__aeabi_dmul+0x516>
 8001f28:	e738      	b.n	8001d9c <__aeabi_dmul+0x388>
 8001f2a:	9a01      	ldr	r2, [sp, #4]
 8001f2c:	3808      	subs	r0, #8
 8001f2e:	4082      	lsls	r2, r0
 8001f30:	e73f      	b.n	8001db2 <__aeabi_dmul+0x39e>
 8001f32:	f000 fd57 	bl	80029e4 <__clzsi2>
 8001f36:	2315      	movs	r3, #21
 8001f38:	469c      	mov	ip, r3
 8001f3a:	4484      	add	ip, r0
 8001f3c:	0002      	movs	r2, r0
 8001f3e:	4663      	mov	r3, ip
 8001f40:	3220      	adds	r2, #32
 8001f42:	2b1c      	cmp	r3, #28
 8001f44:	dc00      	bgt.n	8001f48 <__aeabi_dmul+0x534>
 8001f46:	e758      	b.n	8001dfa <__aeabi_dmul+0x3e6>
 8001f48:	2300      	movs	r3, #0
 8001f4a:	4698      	mov	r8, r3
 8001f4c:	0023      	movs	r3, r4
 8001f4e:	3808      	subs	r0, #8
 8001f50:	4083      	lsls	r3, r0
 8001f52:	469a      	mov	sl, r3
 8001f54:	e762      	b.n	8001e1c <__aeabi_dmul+0x408>
 8001f56:	001d      	movs	r5, r3
 8001f58:	2300      	movs	r3, #0
 8001f5a:	2400      	movs	r4, #0
 8001f5c:	2002      	movs	r0, #2
 8001f5e:	9301      	str	r3, [sp, #4]
 8001f60:	e5a2      	b.n	8001aa8 <__aeabi_dmul+0x94>
 8001f62:	9002      	str	r0, [sp, #8]
 8001f64:	e632      	b.n	8001bcc <__aeabi_dmul+0x1b8>
 8001f66:	431c      	orrs	r4, r3
 8001f68:	9b00      	ldr	r3, [sp, #0]
 8001f6a:	9a01      	ldr	r2, [sp, #4]
 8001f6c:	4699      	mov	r9, r3
 8001f6e:	e5ae      	b.n	8001ace <__aeabi_dmul+0xba>
 8001f70:	4b1a      	ldr	r3, [pc, #104]	@ (8001fdc <__aeabi_dmul+0x5c8>)
 8001f72:	4652      	mov	r2, sl
 8001f74:	18c3      	adds	r3, r0, r3
 8001f76:	4640      	mov	r0, r8
 8001f78:	409a      	lsls	r2, r3
 8001f7a:	40c8      	lsrs	r0, r1
 8001f7c:	4302      	orrs	r2, r0
 8001f7e:	4640      	mov	r0, r8
 8001f80:	4098      	lsls	r0, r3
 8001f82:	0003      	movs	r3, r0
 8001f84:	1e58      	subs	r0, r3, #1
 8001f86:	4183      	sbcs	r3, r0
 8001f88:	4654      	mov	r4, sl
 8001f8a:	431a      	orrs	r2, r3
 8001f8c:	40cc      	lsrs	r4, r1
 8001f8e:	0753      	lsls	r3, r2, #29
 8001f90:	d009      	beq.n	8001fa6 <__aeabi_dmul+0x592>
 8001f92:	230f      	movs	r3, #15
 8001f94:	4013      	ands	r3, r2
 8001f96:	2b04      	cmp	r3, #4
 8001f98:	d005      	beq.n	8001fa6 <__aeabi_dmul+0x592>
 8001f9a:	1d13      	adds	r3, r2, #4
 8001f9c:	4293      	cmp	r3, r2
 8001f9e:	4192      	sbcs	r2, r2
 8001fa0:	4252      	negs	r2, r2
 8001fa2:	18a4      	adds	r4, r4, r2
 8001fa4:	001a      	movs	r2, r3
 8001fa6:	0223      	lsls	r3, r4, #8
 8001fa8:	d508      	bpl.n	8001fbc <__aeabi_dmul+0x5a8>
 8001faa:	2301      	movs	r3, #1
 8001fac:	2400      	movs	r4, #0
 8001fae:	2200      	movs	r2, #0
 8001fb0:	e58e      	b.n	8001ad0 <__aeabi_dmul+0xbc>
 8001fb2:	4689      	mov	r9, r1
 8001fb4:	2400      	movs	r4, #0
 8001fb6:	e58b      	b.n	8001ad0 <__aeabi_dmul+0xbc>
 8001fb8:	2300      	movs	r3, #0
 8001fba:	e7a5      	b.n	8001f08 <__aeabi_dmul+0x4f4>
 8001fbc:	0763      	lsls	r3, r4, #29
 8001fbe:	0264      	lsls	r4, r4, #9
 8001fc0:	0b24      	lsrs	r4, r4, #12
 8001fc2:	e7a1      	b.n	8001f08 <__aeabi_dmul+0x4f4>
 8001fc4:	9b00      	ldr	r3, [sp, #0]
 8001fc6:	46a2      	mov	sl, r4
 8001fc8:	4699      	mov	r9, r3
 8001fca:	9b01      	ldr	r3, [sp, #4]
 8001fcc:	4698      	mov	r8, r3
 8001fce:	e737      	b.n	8001e40 <__aeabi_dmul+0x42c>
 8001fd0:	fffffc0d 	.word	0xfffffc0d
 8001fd4:	000007ff 	.word	0x000007ff
 8001fd8:	0000043e 	.word	0x0000043e
 8001fdc:	0000041e 	.word	0x0000041e

08001fe0 <__aeabi_dsub>:
 8001fe0:	b5f0      	push	{r4, r5, r6, r7, lr}
 8001fe2:	4657      	mov	r7, sl
 8001fe4:	464e      	mov	r6, r9
 8001fe6:	4645      	mov	r5, r8
 8001fe8:	46de      	mov	lr, fp
 8001fea:	b5e0      	push	{r5, r6, r7, lr}
 8001fec:	b083      	sub	sp, #12
 8001fee:	9000      	str	r0, [sp, #0]
 8001ff0:	9101      	str	r1, [sp, #4]
 8001ff2:	030c      	lsls	r4, r1, #12
 8001ff4:	004d      	lsls	r5, r1, #1
 8001ff6:	0fce      	lsrs	r6, r1, #31
 8001ff8:	0a61      	lsrs	r1, r4, #9
 8001ffa:	9c00      	ldr	r4, [sp, #0]
 8001ffc:	005f      	lsls	r7, r3, #1
 8001ffe:	0f64      	lsrs	r4, r4, #29
 8002000:	430c      	orrs	r4, r1
 8002002:	9900      	ldr	r1, [sp, #0]
 8002004:	9200      	str	r2, [sp, #0]
 8002006:	9301      	str	r3, [sp, #4]
 8002008:	00c8      	lsls	r0, r1, #3
 800200a:	0319      	lsls	r1, r3, #12
 800200c:	0d7b      	lsrs	r3, r7, #21
 800200e:	4699      	mov	r9, r3
 8002010:	9b01      	ldr	r3, [sp, #4]
 8002012:	4fcc      	ldr	r7, [pc, #816]	@ (8002344 <__aeabi_dsub+0x364>)
 8002014:	0fdb      	lsrs	r3, r3, #31
 8002016:	469c      	mov	ip, r3
 8002018:	0a4b      	lsrs	r3, r1, #9
 800201a:	9900      	ldr	r1, [sp, #0]
 800201c:	4680      	mov	r8, r0
 800201e:	0f49      	lsrs	r1, r1, #29
 8002020:	4319      	orrs	r1, r3
 8002022:	9b00      	ldr	r3, [sp, #0]
 8002024:	468b      	mov	fp, r1
 8002026:	00da      	lsls	r2, r3, #3
 8002028:	4692      	mov	sl, r2
 800202a:	0d6d      	lsrs	r5, r5, #21
 800202c:	45b9      	cmp	r9, r7
 800202e:	d100      	bne.n	8002032 <__aeabi_dsub+0x52>
 8002030:	e0bf      	b.n	80021b2 <__aeabi_dsub+0x1d2>
 8002032:	2301      	movs	r3, #1
 8002034:	4661      	mov	r1, ip
 8002036:	4059      	eors	r1, r3
 8002038:	464b      	mov	r3, r9
 800203a:	468c      	mov	ip, r1
 800203c:	1aeb      	subs	r3, r5, r3
 800203e:	428e      	cmp	r6, r1
 8002040:	d075      	beq.n	800212e <__aeabi_dsub+0x14e>
 8002042:	2b00      	cmp	r3, #0
 8002044:	dc00      	bgt.n	8002048 <__aeabi_dsub+0x68>
 8002046:	e2a3      	b.n	8002590 <__aeabi_dsub+0x5b0>
 8002048:	4649      	mov	r1, r9
 800204a:	2900      	cmp	r1, #0
 800204c:	d100      	bne.n	8002050 <__aeabi_dsub+0x70>
 800204e:	e0ce      	b.n	80021ee <__aeabi_dsub+0x20e>
 8002050:	42bd      	cmp	r5, r7
 8002052:	d100      	bne.n	8002056 <__aeabi_dsub+0x76>
 8002054:	e200      	b.n	8002458 <__aeabi_dsub+0x478>
 8002056:	2701      	movs	r7, #1
 8002058:	2b38      	cmp	r3, #56	@ 0x38
 800205a:	dc19      	bgt.n	8002090 <__aeabi_dsub+0xb0>
 800205c:	2780      	movs	r7, #128	@ 0x80
 800205e:	4659      	mov	r1, fp
 8002060:	043f      	lsls	r7, r7, #16
 8002062:	4339      	orrs	r1, r7
 8002064:	468b      	mov	fp, r1
 8002066:	2b1f      	cmp	r3, #31
 8002068:	dd00      	ble.n	800206c <__aeabi_dsub+0x8c>
 800206a:	e1fa      	b.n	8002462 <__aeabi_dsub+0x482>
 800206c:	2720      	movs	r7, #32
 800206e:	1af9      	subs	r1, r7, r3
 8002070:	468c      	mov	ip, r1
 8002072:	4659      	mov	r1, fp
 8002074:	4667      	mov	r7, ip
 8002076:	40b9      	lsls	r1, r7
 8002078:	000f      	movs	r7, r1
 800207a:	0011      	movs	r1, r2
 800207c:	40d9      	lsrs	r1, r3
 800207e:	430f      	orrs	r7, r1
 8002080:	4661      	mov	r1, ip
 8002082:	408a      	lsls	r2, r1
 8002084:	1e51      	subs	r1, r2, #1
 8002086:	418a      	sbcs	r2, r1
 8002088:	4659      	mov	r1, fp
 800208a:	40d9      	lsrs	r1, r3
 800208c:	4317      	orrs	r7, r2
 800208e:	1a64      	subs	r4, r4, r1
 8002090:	1bc7      	subs	r7, r0, r7
 8002092:	42b8      	cmp	r0, r7
 8002094:	4180      	sbcs	r0, r0
 8002096:	4240      	negs	r0, r0
 8002098:	1a24      	subs	r4, r4, r0
 800209a:	0223      	lsls	r3, r4, #8
 800209c:	d400      	bmi.n	80020a0 <__aeabi_dsub+0xc0>
 800209e:	e140      	b.n	8002322 <__aeabi_dsub+0x342>
 80020a0:	0264      	lsls	r4, r4, #9
 80020a2:	0a64      	lsrs	r4, r4, #9
 80020a4:	2c00      	cmp	r4, #0
 80020a6:	d100      	bne.n	80020aa <__aeabi_dsub+0xca>
 80020a8:	e154      	b.n	8002354 <__aeabi_dsub+0x374>
 80020aa:	0020      	movs	r0, r4
 80020ac:	f000 fc9a 	bl	80029e4 <__clzsi2>
 80020b0:	0003      	movs	r3, r0
 80020b2:	3b08      	subs	r3, #8
 80020b4:	2120      	movs	r1, #32
 80020b6:	0038      	movs	r0, r7
 80020b8:	1aca      	subs	r2, r1, r3
 80020ba:	40d0      	lsrs	r0, r2
 80020bc:	409c      	lsls	r4, r3
 80020be:	0002      	movs	r2, r0
 80020c0:	409f      	lsls	r7, r3
 80020c2:	4322      	orrs	r2, r4
 80020c4:	429d      	cmp	r5, r3
 80020c6:	dd00      	ble.n	80020ca <__aeabi_dsub+0xea>
 80020c8:	e1a6      	b.n	8002418 <__aeabi_dsub+0x438>
 80020ca:	1b58      	subs	r0, r3, r5
 80020cc:	3001      	adds	r0, #1
 80020ce:	1a09      	subs	r1, r1, r0
 80020d0:	003c      	movs	r4, r7
 80020d2:	408f      	lsls	r7, r1
 80020d4:	40c4      	lsrs	r4, r0
 80020d6:	1e7b      	subs	r3, r7, #1
 80020d8:	419f      	sbcs	r7, r3
 80020da:	0013      	movs	r3, r2
 80020dc:	408b      	lsls	r3, r1
 80020de:	4327      	orrs	r7, r4
 80020e0:	431f      	orrs	r7, r3
 80020e2:	40c2      	lsrs	r2, r0
 80020e4:	003b      	movs	r3, r7
 80020e6:	0014      	movs	r4, r2
 80020e8:	2500      	movs	r5, #0
 80020ea:	4313      	orrs	r3, r2
 80020ec:	d100      	bne.n	80020f0 <__aeabi_dsub+0x110>
 80020ee:	e1f7      	b.n	80024e0 <__aeabi_dsub+0x500>
 80020f0:	077b      	lsls	r3, r7, #29
 80020f2:	d100      	bne.n	80020f6 <__aeabi_dsub+0x116>
 80020f4:	e377      	b.n	80027e6 <__aeabi_dsub+0x806>
 80020f6:	230f      	movs	r3, #15
 80020f8:	0038      	movs	r0, r7
 80020fa:	403b      	ands	r3, r7
 80020fc:	2b04      	cmp	r3, #4
 80020fe:	d004      	beq.n	800210a <__aeabi_dsub+0x12a>
 8002100:	1d38      	adds	r0, r7, #4
 8002102:	42b8      	cmp	r0, r7
 8002104:	41bf      	sbcs	r7, r7
 8002106:	427f      	negs	r7, r7
 8002108:	19e4      	adds	r4, r4, r7
 800210a:	0223      	lsls	r3, r4, #8
 800210c:	d400      	bmi.n	8002110 <__aeabi_dsub+0x130>
 800210e:	e368      	b.n	80027e2 <__aeabi_dsub+0x802>
 8002110:	4b8c      	ldr	r3, [pc, #560]	@ (8002344 <__aeabi_dsub+0x364>)
 8002112:	3501      	adds	r5, #1
 8002114:	429d      	cmp	r5, r3
 8002116:	d100      	bne.n	800211a <__aeabi_dsub+0x13a>
 8002118:	e0f4      	b.n	8002304 <__aeabi_dsub+0x324>
 800211a:	4b8b      	ldr	r3, [pc, #556]	@ (8002348 <__aeabi_dsub+0x368>)
 800211c:	056d      	lsls	r5, r5, #21
 800211e:	401c      	ands	r4, r3
 8002120:	0d6d      	lsrs	r5, r5, #21
 8002122:	0767      	lsls	r7, r4, #29
 8002124:	08c0      	lsrs	r0, r0, #3
 8002126:	0264      	lsls	r4, r4, #9
 8002128:	4307      	orrs	r7, r0
 800212a:	0b24      	lsrs	r4, r4, #12
 800212c:	e0ec      	b.n	8002308 <__aeabi_dsub+0x328>
 800212e:	2b00      	cmp	r3, #0
 8002130:	dc00      	bgt.n	8002134 <__aeabi_dsub+0x154>
 8002132:	e329      	b.n	8002788 <__aeabi_dsub+0x7a8>
 8002134:	4649      	mov	r1, r9
 8002136:	2900      	cmp	r1, #0
 8002138:	d000      	beq.n	800213c <__aeabi_dsub+0x15c>
 800213a:	e0d6      	b.n	80022ea <__aeabi_dsub+0x30a>
 800213c:	4659      	mov	r1, fp
 800213e:	4311      	orrs	r1, r2
 8002140:	d100      	bne.n	8002144 <__aeabi_dsub+0x164>
 8002142:	e12e      	b.n	80023a2 <__aeabi_dsub+0x3c2>
 8002144:	1e59      	subs	r1, r3, #1
 8002146:	2b01      	cmp	r3, #1
 8002148:	d100      	bne.n	800214c <__aeabi_dsub+0x16c>
 800214a:	e1e6      	b.n	800251a <__aeabi_dsub+0x53a>
 800214c:	42bb      	cmp	r3, r7
 800214e:	d100      	bne.n	8002152 <__aeabi_dsub+0x172>
 8002150:	e182      	b.n	8002458 <__aeabi_dsub+0x478>
 8002152:	2701      	movs	r7, #1
 8002154:	000b      	movs	r3, r1
 8002156:	2938      	cmp	r1, #56	@ 0x38
 8002158:	dc14      	bgt.n	8002184 <__aeabi_dsub+0x1a4>
 800215a:	2b1f      	cmp	r3, #31
 800215c:	dd00      	ble.n	8002160 <__aeabi_dsub+0x180>
 800215e:	e23c      	b.n	80025da <__aeabi_dsub+0x5fa>
 8002160:	2720      	movs	r7, #32
 8002162:	1af9      	subs	r1, r7, r3
 8002164:	468c      	mov	ip, r1
 8002166:	4659      	mov	r1, fp
 8002168:	4667      	mov	r7, ip
 800216a:	40b9      	lsls	r1, r7
 800216c:	000f      	movs	r7, r1
 800216e:	0011      	movs	r1, r2
 8002170:	40d9      	lsrs	r1, r3
 8002172:	430f      	orrs	r7, r1
 8002174:	4661      	mov	r1, ip
 8002176:	408a      	lsls	r2, r1
 8002178:	1e51      	subs	r1, r2, #1
 800217a:	418a      	sbcs	r2, r1
 800217c:	4659      	mov	r1, fp
 800217e:	40d9      	lsrs	r1, r3
 8002180:	4317      	orrs	r7, r2
 8002182:	1864      	adds	r4, r4, r1
 8002184:	183f      	adds	r7, r7, r0
 8002186:	4287      	cmp	r7, r0
 8002188:	4180      	sbcs	r0, r0
 800218a:	4240      	negs	r0, r0
 800218c:	1824      	adds	r4, r4, r0
 800218e:	0223      	lsls	r3, r4, #8
 8002190:	d400      	bmi.n	8002194 <__aeabi_dsub+0x1b4>
 8002192:	e0c6      	b.n	8002322 <__aeabi_dsub+0x342>
 8002194:	4b6b      	ldr	r3, [pc, #428]	@ (8002344 <__aeabi_dsub+0x364>)
 8002196:	3501      	adds	r5, #1
 8002198:	429d      	cmp	r5, r3
 800219a:	d100      	bne.n	800219e <__aeabi_dsub+0x1be>
 800219c:	e0b2      	b.n	8002304 <__aeabi_dsub+0x324>
 800219e:	2101      	movs	r1, #1
 80021a0:	4b69      	ldr	r3, [pc, #420]	@ (8002348 <__aeabi_dsub+0x368>)
 80021a2:	087a      	lsrs	r2, r7, #1
 80021a4:	401c      	ands	r4, r3
 80021a6:	4039      	ands	r1, r7
 80021a8:	430a      	orrs	r2, r1
 80021aa:	07e7      	lsls	r7, r4, #31
 80021ac:	4317      	orrs	r7, r2
 80021ae:	0864      	lsrs	r4, r4, #1
 80021b0:	e79e      	b.n	80020f0 <__aeabi_dsub+0x110>
 80021b2:	4b66      	ldr	r3, [pc, #408]	@ (800234c <__aeabi_dsub+0x36c>)
 80021b4:	4311      	orrs	r1, r2
 80021b6:	468a      	mov	sl, r1
 80021b8:	18eb      	adds	r3, r5, r3
 80021ba:	2900      	cmp	r1, #0
 80021bc:	d028      	beq.n	8002210 <__aeabi_dsub+0x230>
 80021be:	4566      	cmp	r6, ip
 80021c0:	d02c      	beq.n	800221c <__aeabi_dsub+0x23c>
 80021c2:	2b00      	cmp	r3, #0
 80021c4:	d05b      	beq.n	800227e <__aeabi_dsub+0x29e>
 80021c6:	2d00      	cmp	r5, #0
 80021c8:	d100      	bne.n	80021cc <__aeabi_dsub+0x1ec>
 80021ca:	e12c      	b.n	8002426 <__aeabi_dsub+0x446>
 80021cc:	465b      	mov	r3, fp
 80021ce:	4666      	mov	r6, ip
 80021d0:	075f      	lsls	r7, r3, #29
 80021d2:	08d2      	lsrs	r2, r2, #3
 80021d4:	4317      	orrs	r7, r2
 80021d6:	08dd      	lsrs	r5, r3, #3
 80021d8:	003b      	movs	r3, r7
 80021da:	432b      	orrs	r3, r5
 80021dc:	d100      	bne.n	80021e0 <__aeabi_dsub+0x200>
 80021de:	e0e2      	b.n	80023a6 <__aeabi_dsub+0x3c6>
 80021e0:	2480      	movs	r4, #128	@ 0x80
 80021e2:	0324      	lsls	r4, r4, #12
 80021e4:	432c      	orrs	r4, r5
 80021e6:	0324      	lsls	r4, r4, #12
 80021e8:	4d56      	ldr	r5, [pc, #344]	@ (8002344 <__aeabi_dsub+0x364>)
 80021ea:	0b24      	lsrs	r4, r4, #12
 80021ec:	e08c      	b.n	8002308 <__aeabi_dsub+0x328>
 80021ee:	4659      	mov	r1, fp
 80021f0:	4311      	orrs	r1, r2
 80021f2:	d100      	bne.n	80021f6 <__aeabi_dsub+0x216>
 80021f4:	e0d5      	b.n	80023a2 <__aeabi_dsub+0x3c2>
 80021f6:	1e59      	subs	r1, r3, #1
 80021f8:	2b01      	cmp	r3, #1
 80021fa:	d100      	bne.n	80021fe <__aeabi_dsub+0x21e>
 80021fc:	e1b9      	b.n	8002572 <__aeabi_dsub+0x592>
 80021fe:	42bb      	cmp	r3, r7
 8002200:	d100      	bne.n	8002204 <__aeabi_dsub+0x224>
 8002202:	e1b1      	b.n	8002568 <__aeabi_dsub+0x588>
 8002204:	2701      	movs	r7, #1
 8002206:	000b      	movs	r3, r1
 8002208:	2938      	cmp	r1, #56	@ 0x38
 800220a:	dd00      	ble.n	800220e <__aeabi_dsub+0x22e>
 800220c:	e740      	b.n	8002090 <__aeabi_dsub+0xb0>
 800220e:	e72a      	b.n	8002066 <__aeabi_dsub+0x86>
 8002210:	4661      	mov	r1, ip
 8002212:	2701      	movs	r7, #1
 8002214:	4079      	eors	r1, r7
 8002216:	468c      	mov	ip, r1
 8002218:	4566      	cmp	r6, ip
 800221a:	d1d2      	bne.n	80021c2 <__aeabi_dsub+0x1e2>
 800221c:	2b00      	cmp	r3, #0
 800221e:	d100      	bne.n	8002222 <__aeabi_dsub+0x242>
 8002220:	e0c5      	b.n	80023ae <__aeabi_dsub+0x3ce>
 8002222:	2d00      	cmp	r5, #0
 8002224:	d000      	beq.n	8002228 <__aeabi_dsub+0x248>
 8002226:	e155      	b.n	80024d4 <__aeabi_dsub+0x4f4>
 8002228:	464b      	mov	r3, r9
 800222a:	0025      	movs	r5, r4
 800222c:	4305      	orrs	r5, r0
 800222e:	d100      	bne.n	8002232 <__aeabi_dsub+0x252>
 8002230:	e212      	b.n	8002658 <__aeabi_dsub+0x678>
 8002232:	1e59      	subs	r1, r3, #1
 8002234:	468c      	mov	ip, r1
 8002236:	2b01      	cmp	r3, #1
 8002238:	d100      	bne.n	800223c <__aeabi_dsub+0x25c>
 800223a:	e249      	b.n	80026d0 <__aeabi_dsub+0x6f0>
 800223c:	4d41      	ldr	r5, [pc, #260]	@ (8002344 <__aeabi_dsub+0x364>)
 800223e:	42ab      	cmp	r3, r5
 8002240:	d100      	bne.n	8002244 <__aeabi_dsub+0x264>
 8002242:	e28f      	b.n	8002764 <__aeabi_dsub+0x784>
 8002244:	2701      	movs	r7, #1
 8002246:	2938      	cmp	r1, #56	@ 0x38
 8002248:	dc11      	bgt.n	800226e <__aeabi_dsub+0x28e>
 800224a:	4663      	mov	r3, ip
 800224c:	2b1f      	cmp	r3, #31
 800224e:	dd00      	ble.n	8002252 <__aeabi_dsub+0x272>
 8002250:	e25b      	b.n	800270a <__aeabi_dsub+0x72a>
 8002252:	4661      	mov	r1, ip
 8002254:	2320      	movs	r3, #32
 8002256:	0027      	movs	r7, r4
 8002258:	1a5b      	subs	r3, r3, r1
 800225a:	0005      	movs	r5, r0
 800225c:	4098      	lsls	r0, r3
 800225e:	409f      	lsls	r7, r3
 8002260:	40cd      	lsrs	r5, r1
 8002262:	1e43      	subs	r3, r0, #1
 8002264:	4198      	sbcs	r0, r3
 8002266:	40cc      	lsrs	r4, r1
 8002268:	432f      	orrs	r7, r5
 800226a:	4307      	orrs	r7, r0
 800226c:	44a3      	add	fp, r4
 800226e:	18bf      	adds	r7, r7, r2
 8002270:	4297      	cmp	r7, r2
 8002272:	4192      	sbcs	r2, r2
 8002274:	4252      	negs	r2, r2
 8002276:	445a      	add	r2, fp
 8002278:	0014      	movs	r4, r2
 800227a:	464d      	mov	r5, r9
 800227c:	e787      	b.n	800218e <__aeabi_dsub+0x1ae>
 800227e:	4f34      	ldr	r7, [pc, #208]	@ (8002350 <__aeabi_dsub+0x370>)
 8002280:	1c6b      	adds	r3, r5, #1
 8002282:	423b      	tst	r3, r7
 8002284:	d000      	beq.n	8002288 <__aeabi_dsub+0x2a8>
 8002286:	e0b6      	b.n	80023f6 <__aeabi_dsub+0x416>
 8002288:	4659      	mov	r1, fp
 800228a:	0023      	movs	r3, r4
 800228c:	4311      	orrs	r1, r2
 800228e:	000f      	movs	r7, r1
 8002290:	4303      	orrs	r3, r0
 8002292:	2d00      	cmp	r5, #0
 8002294:	d000      	beq.n	8002298 <__aeabi_dsub+0x2b8>
 8002296:	e126      	b.n	80024e6 <__aeabi_dsub+0x506>
 8002298:	2b00      	cmp	r3, #0
 800229a:	d100      	bne.n	800229e <__aeabi_dsub+0x2be>
 800229c:	e1c0      	b.n	8002620 <__aeabi_dsub+0x640>
 800229e:	2900      	cmp	r1, #0
 80022a0:	d100      	bne.n	80022a4 <__aeabi_dsub+0x2c4>
 80022a2:	e0a1      	b.n	80023e8 <__aeabi_dsub+0x408>
 80022a4:	1a83      	subs	r3, r0, r2
 80022a6:	4698      	mov	r8, r3
 80022a8:	465b      	mov	r3, fp
 80022aa:	4540      	cmp	r0, r8
 80022ac:	41ad      	sbcs	r5, r5
 80022ae:	1ae3      	subs	r3, r4, r3
 80022b0:	426d      	negs	r5, r5
 80022b2:	1b5b      	subs	r3, r3, r5
 80022b4:	2580      	movs	r5, #128	@ 0x80
 80022b6:	042d      	lsls	r5, r5, #16
 80022b8:	422b      	tst	r3, r5
 80022ba:	d100      	bne.n	80022be <__aeabi_dsub+0x2de>
 80022bc:	e14b      	b.n	8002556 <__aeabi_dsub+0x576>
 80022be:	465b      	mov	r3, fp
 80022c0:	1a10      	subs	r0, r2, r0
 80022c2:	4282      	cmp	r2, r0
 80022c4:	4192      	sbcs	r2, r2
 80022c6:	1b1c      	subs	r4, r3, r4
 80022c8:	0007      	movs	r7, r0
 80022ca:	2601      	movs	r6, #1
 80022cc:	4663      	mov	r3, ip
 80022ce:	4252      	negs	r2, r2
 80022d0:	1aa4      	subs	r4, r4, r2
 80022d2:	4327      	orrs	r7, r4
 80022d4:	401e      	ands	r6, r3
 80022d6:	2f00      	cmp	r7, #0
 80022d8:	d100      	bne.n	80022dc <__aeabi_dsub+0x2fc>
 80022da:	e142      	b.n	8002562 <__aeabi_dsub+0x582>
 80022dc:	422c      	tst	r4, r5
 80022de:	d100      	bne.n	80022e2 <__aeabi_dsub+0x302>
 80022e0:	e26d      	b.n	80027be <__aeabi_dsub+0x7de>
 80022e2:	4b19      	ldr	r3, [pc, #100]	@ (8002348 <__aeabi_dsub+0x368>)
 80022e4:	2501      	movs	r5, #1
 80022e6:	401c      	ands	r4, r3
 80022e8:	e71b      	b.n	8002122 <__aeabi_dsub+0x142>
 80022ea:	42bd      	cmp	r5, r7
 80022ec:	d100      	bne.n	80022f0 <__aeabi_dsub+0x310>
 80022ee:	e13b      	b.n	8002568 <__aeabi_dsub+0x588>
 80022f0:	2701      	movs	r7, #1
 80022f2:	2b38      	cmp	r3, #56	@ 0x38
 80022f4:	dd00      	ble.n	80022f8 <__aeabi_dsub+0x318>
 80022f6:	e745      	b.n	8002184 <__aeabi_dsub+0x1a4>
 80022f8:	2780      	movs	r7, #128	@ 0x80
 80022fa:	4659      	mov	r1, fp
 80022fc:	043f      	lsls	r7, r7, #16
 80022fe:	4339      	orrs	r1, r7
 8002300:	468b      	mov	fp, r1
 8002302:	e72a      	b.n	800215a <__aeabi_dsub+0x17a>
 8002304:	2400      	movs	r4, #0
 8002306:	2700      	movs	r7, #0
 8002308:	052d      	lsls	r5, r5, #20
 800230a:	4325      	orrs	r5, r4
 800230c:	07f6      	lsls	r6, r6, #31
 800230e:	4335      	orrs	r5, r6
 8002310:	0038      	movs	r0, r7
 8002312:	0029      	movs	r1, r5
 8002314:	b003      	add	sp, #12
 8002316:	bcf0      	pop	{r4, r5, r6, r7}
 8002318:	46bb      	mov	fp, r7
 800231a:	46b2      	mov	sl, r6
 800231c:	46a9      	mov	r9, r5
 800231e:	46a0      	mov	r8, r4
 8002320:	bdf0      	pop	{r4, r5, r6, r7, pc}
 8002322:	077b      	lsls	r3, r7, #29
 8002324:	d004      	beq.n	8002330 <__aeabi_dsub+0x350>
 8002326:	230f      	movs	r3, #15
 8002328:	403b      	ands	r3, r7
 800232a:	2b04      	cmp	r3, #4
 800232c:	d000      	beq.n	8002330 <__aeabi_dsub+0x350>
 800232e:	e6e7      	b.n	8002100 <__aeabi_dsub+0x120>
 8002330:	002b      	movs	r3, r5
 8002332:	08f8      	lsrs	r0, r7, #3
 8002334:	4a03      	ldr	r2, [pc, #12]	@ (8002344 <__aeabi_dsub+0x364>)
 8002336:	0767      	lsls	r7, r4, #29
 8002338:	4307      	orrs	r7, r0
 800233a:	08e5      	lsrs	r5, r4, #3
 800233c:	4293      	cmp	r3, r2
 800233e:	d100      	bne.n	8002342 <__aeabi_dsub+0x362>
 8002340:	e74a      	b.n	80021d8 <__aeabi_dsub+0x1f8>
 8002342:	e0a5      	b.n	8002490 <__aeabi_dsub+0x4b0>
 8002344:	000007ff 	.word	0x000007ff
 8002348:	ff7fffff 	.word	0xff7fffff
 800234c:	fffff801 	.word	0xfffff801
 8002350:	000007fe 	.word	0x000007fe
 8002354:	0038      	movs	r0, r7
 8002356:	f000 fb45 	bl	80029e4 <__clzsi2>
 800235a:	0003      	movs	r3, r0
 800235c:	3318      	adds	r3, #24
 800235e:	2b1f      	cmp	r3, #31
 8002360:	dc00      	bgt.n	8002364 <__aeabi_dsub+0x384>
 8002362:	e6a7      	b.n	80020b4 <__aeabi_dsub+0xd4>
 8002364:	003a      	movs	r2, r7
 8002366:	3808      	subs	r0, #8
 8002368:	4082      	lsls	r2, r0
 800236a:	429d      	cmp	r5, r3
 800236c:	dd00      	ble.n	8002370 <__aeabi_dsub+0x390>
 800236e:	e08a      	b.n	8002486 <__aeabi_dsub+0x4a6>
 8002370:	1b5b      	subs	r3, r3, r5
 8002372:	1c58      	adds	r0, r3, #1
 8002374:	281f      	cmp	r0, #31
 8002376:	dc00      	bgt.n	800237a <__aeabi_dsub+0x39a>
 8002378:	e1d8      	b.n	800272c <__aeabi_dsub+0x74c>
 800237a:	0017      	movs	r7, r2
 800237c:	3b1f      	subs	r3, #31
 800237e:	40df      	lsrs	r7, r3
 8002380:	2820      	cmp	r0, #32
 8002382:	d005      	beq.n	8002390 <__aeabi_dsub+0x3b0>
 8002384:	2340      	movs	r3, #64	@ 0x40
 8002386:	1a1b      	subs	r3, r3, r0
 8002388:	409a      	lsls	r2, r3
 800238a:	1e53      	subs	r3, r2, #1
 800238c:	419a      	sbcs	r2, r3
 800238e:	4317      	orrs	r7, r2
 8002390:	2500      	movs	r5, #0
 8002392:	2f00      	cmp	r7, #0
 8002394:	d100      	bne.n	8002398 <__aeabi_dsub+0x3b8>
 8002396:	e0e5      	b.n	8002564 <__aeabi_dsub+0x584>
 8002398:	077b      	lsls	r3, r7, #29
 800239a:	d000      	beq.n	800239e <__aeabi_dsub+0x3be>
 800239c:	e6ab      	b.n	80020f6 <__aeabi_dsub+0x116>
 800239e:	002c      	movs	r4, r5
 80023a0:	e7c6      	b.n	8002330 <__aeabi_dsub+0x350>
 80023a2:	08c0      	lsrs	r0, r0, #3
 80023a4:	e7c6      	b.n	8002334 <__aeabi_dsub+0x354>
 80023a6:	2700      	movs	r7, #0
 80023a8:	2400      	movs	r4, #0
 80023aa:	4dd1      	ldr	r5, [pc, #836]	@ (80026f0 <__aeabi_dsub+0x710>)
 80023ac:	e7ac      	b.n	8002308 <__aeabi_dsub+0x328>
 80023ae:	4fd1      	ldr	r7, [pc, #836]	@ (80026f4 <__aeabi_dsub+0x714>)
 80023b0:	1c6b      	adds	r3, r5, #1
 80023b2:	423b      	tst	r3, r7
 80023b4:	d171      	bne.n	800249a <__aeabi_dsub+0x4ba>
 80023b6:	0023      	movs	r3, r4
 80023b8:	4303      	orrs	r3, r0
 80023ba:	2d00      	cmp	r5, #0
 80023bc:	d000      	beq.n	80023c0 <__aeabi_dsub+0x3e0>
 80023be:	e14e      	b.n	800265e <__aeabi_dsub+0x67e>
 80023c0:	4657      	mov	r7, sl
 80023c2:	2b00      	cmp	r3, #0
 80023c4:	d100      	bne.n	80023c8 <__aeabi_dsub+0x3e8>
 80023c6:	e1b5      	b.n	8002734 <__aeabi_dsub+0x754>
 80023c8:	2f00      	cmp	r7, #0
 80023ca:	d00d      	beq.n	80023e8 <__aeabi_dsub+0x408>
 80023cc:	1883      	adds	r3, r0, r2
 80023ce:	4283      	cmp	r3, r0
 80023d0:	4180      	sbcs	r0, r0
 80023d2:	445c      	add	r4, fp
 80023d4:	4240      	negs	r0, r0
 80023d6:	1824      	adds	r4, r4, r0
 80023d8:	0222      	lsls	r2, r4, #8
 80023da:	d500      	bpl.n	80023de <__aeabi_dsub+0x3fe>
 80023dc:	e1c8      	b.n	8002770 <__aeabi_dsub+0x790>
 80023de:	001f      	movs	r7, r3
 80023e0:	4698      	mov	r8, r3
 80023e2:	4327      	orrs	r7, r4
 80023e4:	d100      	bne.n	80023e8 <__aeabi_dsub+0x408>
 80023e6:	e0bc      	b.n	8002562 <__aeabi_dsub+0x582>
 80023e8:	4643      	mov	r3, r8
 80023ea:	0767      	lsls	r7, r4, #29
 80023ec:	08db      	lsrs	r3, r3, #3
 80023ee:	431f      	orrs	r7, r3
 80023f0:	08e5      	lsrs	r5, r4, #3
 80023f2:	2300      	movs	r3, #0
 80023f4:	e04c      	b.n	8002490 <__aeabi_dsub+0x4b0>
 80023f6:	1a83      	subs	r3, r0, r2
 80023f8:	4698      	mov	r8, r3
 80023fa:	465b      	mov	r3, fp
 80023fc:	4540      	cmp	r0, r8
 80023fe:	41bf      	sbcs	r7, r7
 8002400:	1ae3      	subs	r3, r4, r3
 8002402:	427f      	negs	r7, r7
 8002404:	1bdb      	subs	r3, r3, r7
 8002406:	021f      	lsls	r7, r3, #8
 8002408:	d47c      	bmi.n	8002504 <__aeabi_dsub+0x524>
 800240a:	4647      	mov	r7, r8
 800240c:	431f      	orrs	r7, r3
 800240e:	d100      	bne.n	8002412 <__aeabi_dsub+0x432>
 8002410:	e0a6      	b.n	8002560 <__aeabi_dsub+0x580>
 8002412:	001c      	movs	r4, r3
 8002414:	4647      	mov	r7, r8
 8002416:	e645      	b.n	80020a4 <__aeabi_dsub+0xc4>
 8002418:	4cb7      	ldr	r4, [pc, #732]	@ (80026f8 <__aeabi_dsub+0x718>)
 800241a:	1aed      	subs	r5, r5, r3
 800241c:	4014      	ands	r4, r2
 800241e:	077b      	lsls	r3, r7, #29
 8002420:	d000      	beq.n	8002424 <__aeabi_dsub+0x444>
 8002422:	e780      	b.n	8002326 <__aeabi_dsub+0x346>
 8002424:	e784      	b.n	8002330 <__aeabi_dsub+0x350>
 8002426:	464b      	mov	r3, r9
 8002428:	0025      	movs	r5, r4
 800242a:	4305      	orrs	r5, r0
 800242c:	d066      	beq.n	80024fc <__aeabi_dsub+0x51c>
 800242e:	1e5f      	subs	r7, r3, #1
 8002430:	2b01      	cmp	r3, #1
 8002432:	d100      	bne.n	8002436 <__aeabi_dsub+0x456>
 8002434:	e0fc      	b.n	8002630 <__aeabi_dsub+0x650>
 8002436:	4dae      	ldr	r5, [pc, #696]	@ (80026f0 <__aeabi_dsub+0x710>)
 8002438:	42ab      	cmp	r3, r5
 800243a:	d100      	bne.n	800243e <__aeabi_dsub+0x45e>
 800243c:	e15e      	b.n	80026fc <__aeabi_dsub+0x71c>
 800243e:	4666      	mov	r6, ip
 8002440:	2f38      	cmp	r7, #56	@ 0x38
 8002442:	dc00      	bgt.n	8002446 <__aeabi_dsub+0x466>
 8002444:	e0b4      	b.n	80025b0 <__aeabi_dsub+0x5d0>
 8002446:	2001      	movs	r0, #1
 8002448:	1a17      	subs	r7, r2, r0
 800244a:	42ba      	cmp	r2, r7
 800244c:	4192      	sbcs	r2, r2
 800244e:	465b      	mov	r3, fp
 8002450:	4252      	negs	r2, r2
 8002452:	464d      	mov	r5, r9
 8002454:	1a9c      	subs	r4, r3, r2
 8002456:	e620      	b.n	800209a <__aeabi_dsub+0xba>
 8002458:	0767      	lsls	r7, r4, #29
 800245a:	08c0      	lsrs	r0, r0, #3
 800245c:	4307      	orrs	r7, r0
 800245e:	08e5      	lsrs	r5, r4, #3
 8002460:	e6ba      	b.n	80021d8 <__aeabi_dsub+0x1f8>
 8002462:	001f      	movs	r7, r3
 8002464:	4659      	mov	r1, fp
 8002466:	3f20      	subs	r7, #32
 8002468:	40f9      	lsrs	r1, r7
 800246a:	000f      	movs	r7, r1
 800246c:	2b20      	cmp	r3, #32
 800246e:	d005      	beq.n	800247c <__aeabi_dsub+0x49c>
 8002470:	2140      	movs	r1, #64	@ 0x40
 8002472:	1acb      	subs	r3, r1, r3
 8002474:	4659      	mov	r1, fp
 8002476:	4099      	lsls	r1, r3
 8002478:	430a      	orrs	r2, r1
 800247a:	4692      	mov	sl, r2
 800247c:	4653      	mov	r3, sl
 800247e:	1e5a      	subs	r2, r3, #1
 8002480:	4193      	sbcs	r3, r2
 8002482:	431f      	orrs	r7, r3
 8002484:	e604      	b.n	8002090 <__aeabi_dsub+0xb0>
 8002486:	1aeb      	subs	r3, r5, r3
 8002488:	4d9b      	ldr	r5, [pc, #620]	@ (80026f8 <__aeabi_dsub+0x718>)
 800248a:	4015      	ands	r5, r2
 800248c:	076f      	lsls	r7, r5, #29
 800248e:	08ed      	lsrs	r5, r5, #3
 8002490:	032c      	lsls	r4, r5, #12
 8002492:	055d      	lsls	r5, r3, #21
 8002494:	0b24      	lsrs	r4, r4, #12
 8002496:	0d6d      	lsrs	r5, r5, #21
 8002498:	e736      	b.n	8002308 <__aeabi_dsub+0x328>
 800249a:	4d95      	ldr	r5, [pc, #596]	@ (80026f0 <__aeabi_dsub+0x710>)
 800249c:	42ab      	cmp	r3, r5
 800249e:	d100      	bne.n	80024a2 <__aeabi_dsub+0x4c2>
 80024a0:	e0d6      	b.n	8002650 <__aeabi_dsub+0x670>
 80024a2:	1882      	adds	r2, r0, r2
 80024a4:	0021      	movs	r1, r4
 80024a6:	4282      	cmp	r2, r0
 80024a8:	4180      	sbcs	r0, r0
 80024aa:	4459      	add	r1, fp
 80024ac:	4240      	negs	r0, r0
 80024ae:	1808      	adds	r0, r1, r0
 80024b0:	07c7      	lsls	r7, r0, #31
 80024b2:	0852      	lsrs	r2, r2, #1
 80024b4:	4317      	orrs	r7, r2
 80024b6:	0844      	lsrs	r4, r0, #1
 80024b8:	0752      	lsls	r2, r2, #29
 80024ba:	d400      	bmi.n	80024be <__aeabi_dsub+0x4de>
 80024bc:	e185      	b.n	80027ca <__aeabi_dsub+0x7ea>
 80024be:	220f      	movs	r2, #15
 80024c0:	001d      	movs	r5, r3
 80024c2:	403a      	ands	r2, r7
 80024c4:	2a04      	cmp	r2, #4
 80024c6:	d000      	beq.n	80024ca <__aeabi_dsub+0x4ea>
 80024c8:	e61a      	b.n	8002100 <__aeabi_dsub+0x120>
 80024ca:	08ff      	lsrs	r7, r7, #3
 80024cc:	0764      	lsls	r4, r4, #29
 80024ce:	4327      	orrs	r7, r4
 80024d0:	0905      	lsrs	r5, r0, #4
 80024d2:	e7dd      	b.n	8002490 <__aeabi_dsub+0x4b0>
 80024d4:	465b      	mov	r3, fp
 80024d6:	08d2      	lsrs	r2, r2, #3
 80024d8:	075f      	lsls	r7, r3, #29
 80024da:	4317      	orrs	r7, r2
 80024dc:	08dd      	lsrs	r5, r3, #3
 80024de:	e67b      	b.n	80021d8 <__aeabi_dsub+0x1f8>
 80024e0:	2700      	movs	r7, #0
 80024e2:	2400      	movs	r4, #0
 80024e4:	e710      	b.n	8002308 <__aeabi_dsub+0x328>
 80024e6:	2b00      	cmp	r3, #0
 80024e8:	d000      	beq.n	80024ec <__aeabi_dsub+0x50c>
 80024ea:	e0d6      	b.n	800269a <__aeabi_dsub+0x6ba>
 80024ec:	2900      	cmp	r1, #0
 80024ee:	d000      	beq.n	80024f2 <__aeabi_dsub+0x512>
 80024f0:	e12f      	b.n	8002752 <__aeabi_dsub+0x772>
 80024f2:	2480      	movs	r4, #128	@ 0x80
 80024f4:	2600      	movs	r6, #0
 80024f6:	4d7e      	ldr	r5, [pc, #504]	@ (80026f0 <__aeabi_dsub+0x710>)
 80024f8:	0324      	lsls	r4, r4, #12
 80024fa:	e705      	b.n	8002308 <__aeabi_dsub+0x328>
 80024fc:	4666      	mov	r6, ip
 80024fe:	465c      	mov	r4, fp
 8002500:	08d0      	lsrs	r0, r2, #3
 8002502:	e717      	b.n	8002334 <__aeabi_dsub+0x354>
 8002504:	465b      	mov	r3, fp
 8002506:	1a17      	subs	r7, r2, r0
 8002508:	42ba      	cmp	r2, r7
 800250a:	4192      	sbcs	r2, r2
 800250c:	1b1c      	subs	r4, r3, r4
 800250e:	2601      	movs	r6, #1
 8002510:	4663      	mov	r3, ip
 8002512:	4252      	negs	r2, r2
 8002514:	1aa4      	subs	r4, r4, r2
 8002516:	401e      	ands	r6, r3
 8002518:	e5c4      	b.n	80020a4 <__aeabi_dsub+0xc4>
 800251a:	1883      	adds	r3, r0, r2
 800251c:	4283      	cmp	r3, r0
 800251e:	4180      	sbcs	r0, r0
 8002520:	445c      	add	r4, fp
 8002522:	4240      	negs	r0, r0
 8002524:	1825      	adds	r5, r4, r0
 8002526:	022a      	lsls	r2, r5, #8
 8002528:	d400      	bmi.n	800252c <__aeabi_dsub+0x54c>
 800252a:	e0da      	b.n	80026e2 <__aeabi_dsub+0x702>
 800252c:	4a72      	ldr	r2, [pc, #456]	@ (80026f8 <__aeabi_dsub+0x718>)
 800252e:	085b      	lsrs	r3, r3, #1
 8002530:	4015      	ands	r5, r2
 8002532:	07ea      	lsls	r2, r5, #31
 8002534:	431a      	orrs	r2, r3
 8002536:	0869      	lsrs	r1, r5, #1
 8002538:	075b      	lsls	r3, r3, #29
 800253a:	d400      	bmi.n	800253e <__aeabi_dsub+0x55e>
 800253c:	e14a      	b.n	80027d4 <__aeabi_dsub+0x7f4>
 800253e:	230f      	movs	r3, #15
 8002540:	4013      	ands	r3, r2
 8002542:	2b04      	cmp	r3, #4
 8002544:	d100      	bne.n	8002548 <__aeabi_dsub+0x568>
 8002546:	e0fc      	b.n	8002742 <__aeabi_dsub+0x762>
 8002548:	1d17      	adds	r7, r2, #4
 800254a:	4297      	cmp	r7, r2
 800254c:	41a4      	sbcs	r4, r4
 800254e:	4264      	negs	r4, r4
 8002550:	2502      	movs	r5, #2
 8002552:	1864      	adds	r4, r4, r1
 8002554:	e6ec      	b.n	8002330 <__aeabi_dsub+0x350>
 8002556:	4647      	mov	r7, r8
 8002558:	001c      	movs	r4, r3
 800255a:	431f      	orrs	r7, r3
 800255c:	d000      	beq.n	8002560 <__aeabi_dsub+0x580>
 800255e:	e743      	b.n	80023e8 <__aeabi_dsub+0x408>
 8002560:	2600      	movs	r6, #0
 8002562:	2500      	movs	r5, #0
 8002564:	2400      	movs	r4, #0
 8002566:	e6cf      	b.n	8002308 <__aeabi_dsub+0x328>
 8002568:	08c0      	lsrs	r0, r0, #3
 800256a:	0767      	lsls	r7, r4, #29
 800256c:	4307      	orrs	r7, r0
 800256e:	08e5      	lsrs	r5, r4, #3
 8002570:	e632      	b.n	80021d8 <__aeabi_dsub+0x1f8>
 8002572:	1a87      	subs	r7, r0, r2
 8002574:	465b      	mov	r3, fp
 8002576:	42b8      	cmp	r0, r7
 8002578:	4180      	sbcs	r0, r0
 800257a:	1ae4      	subs	r4, r4, r3
 800257c:	4240      	negs	r0, r0
 800257e:	1a24      	subs	r4, r4, r0
 8002580:	0223      	lsls	r3, r4, #8
 8002582:	d428      	bmi.n	80025d6 <__aeabi_dsub+0x5f6>
 8002584:	0763      	lsls	r3, r4, #29
 8002586:	08ff      	lsrs	r7, r7, #3
 8002588:	431f      	orrs	r7, r3
 800258a:	08e5      	lsrs	r5, r4, #3
 800258c:	2301      	movs	r3, #1
 800258e:	e77f      	b.n	8002490 <__aeabi_dsub+0x4b0>
 8002590:	2b00      	cmp	r3, #0
 8002592:	d100      	bne.n	8002596 <__aeabi_dsub+0x5b6>
 8002594:	e673      	b.n	800227e <__aeabi_dsub+0x29e>
 8002596:	464b      	mov	r3, r9
 8002598:	1b5f      	subs	r7, r3, r5
 800259a:	003b      	movs	r3, r7
 800259c:	2d00      	cmp	r5, #0
 800259e:	d100      	bne.n	80025a2 <__aeabi_dsub+0x5c2>
 80025a0:	e742      	b.n	8002428 <__aeabi_dsub+0x448>
 80025a2:	2f38      	cmp	r7, #56	@ 0x38
 80025a4:	dd00      	ble.n	80025a8 <__aeabi_dsub+0x5c8>
 80025a6:	e0ec      	b.n	8002782 <__aeabi_dsub+0x7a2>
 80025a8:	2380      	movs	r3, #128	@ 0x80
 80025aa:	000e      	movs	r6, r1
 80025ac:	041b      	lsls	r3, r3, #16
 80025ae:	431c      	orrs	r4, r3
 80025b0:	2f1f      	cmp	r7, #31
 80025b2:	dc25      	bgt.n	8002600 <__aeabi_dsub+0x620>
 80025b4:	2520      	movs	r5, #32
 80025b6:	0023      	movs	r3, r4
 80025b8:	1bed      	subs	r5, r5, r7
 80025ba:	0001      	movs	r1, r0
 80025bc:	40a8      	lsls	r0, r5
 80025be:	40ab      	lsls	r3, r5
 80025c0:	40f9      	lsrs	r1, r7
 80025c2:	1e45      	subs	r5, r0, #1
 80025c4:	41a8      	sbcs	r0, r5
 80025c6:	430b      	orrs	r3, r1
 80025c8:	40fc      	lsrs	r4, r7
 80025ca:	4318      	orrs	r0, r3
 80025cc:	465b      	mov	r3, fp
 80025ce:	1b1b      	subs	r3, r3, r4
 80025d0:	469b      	mov	fp, r3
 80025d2:	e739      	b.n	8002448 <__aeabi_dsub+0x468>
 80025d4:	4666      	mov	r6, ip
 80025d6:	2501      	movs	r5, #1
 80025d8:	e562      	b.n	80020a0 <__aeabi_dsub+0xc0>
 80025da:	001f      	movs	r7, r3
 80025dc:	4659      	mov	r1, fp
 80025de:	3f20      	subs	r7, #32
 80025e0:	40f9      	lsrs	r1, r7
 80025e2:	468c      	mov	ip, r1
 80025e4:	2b20      	cmp	r3, #32
 80025e6:	d005      	beq.n	80025f4 <__aeabi_dsub+0x614>
 80025e8:	2740      	movs	r7, #64	@ 0x40
 80025ea:	4659      	mov	r1, fp
 80025ec:	1afb      	subs	r3, r7, r3
 80025ee:	4099      	lsls	r1, r3
 80025f0:	430a      	orrs	r2, r1
 80025f2:	4692      	mov	sl, r2
 80025f4:	4657      	mov	r7, sl
 80025f6:	1e7b      	subs	r3, r7, #1
 80025f8:	419f      	sbcs	r7, r3
 80025fa:	4663      	mov	r3, ip
 80025fc:	431f      	orrs	r7, r3
 80025fe:	e5c1      	b.n	8002184 <__aeabi_dsub+0x1a4>
 8002600:	003b      	movs	r3, r7
 8002602:	0025      	movs	r5, r4
 8002604:	3b20      	subs	r3, #32
 8002606:	40dd      	lsrs	r5, r3
 8002608:	2f20      	cmp	r7, #32
 800260a:	d004      	beq.n	8002616 <__aeabi_dsub+0x636>
 800260c:	2340      	movs	r3, #64	@ 0x40
 800260e:	1bdb      	subs	r3, r3, r7
 8002610:	409c      	lsls	r4, r3
 8002612:	4320      	orrs	r0, r4
 8002614:	4680      	mov	r8, r0
 8002616:	4640      	mov	r0, r8
 8002618:	1e43      	subs	r3, r0, #1
 800261a:	4198      	sbcs	r0, r3
 800261c:	4328      	orrs	r0, r5
 800261e:	e713      	b.n	8002448 <__aeabi_dsub+0x468>
 8002620:	2900      	cmp	r1, #0
 8002622:	d09d      	beq.n	8002560 <__aeabi_dsub+0x580>
 8002624:	2601      	movs	r6, #1
 8002626:	4663      	mov	r3, ip
 8002628:	465c      	mov	r4, fp
 800262a:	4690      	mov	r8, r2
 800262c:	401e      	ands	r6, r3
 800262e:	e6db      	b.n	80023e8 <__aeabi_dsub+0x408>
 8002630:	1a17      	subs	r7, r2, r0
 8002632:	465b      	mov	r3, fp
 8002634:	42ba      	cmp	r2, r7
 8002636:	4192      	sbcs	r2, r2
 8002638:	1b1c      	subs	r4, r3, r4
 800263a:	4252      	negs	r2, r2
 800263c:	1aa4      	subs	r4, r4, r2
 800263e:	0223      	lsls	r3, r4, #8
 8002640:	d4c8      	bmi.n	80025d4 <__aeabi_dsub+0x5f4>
 8002642:	0763      	lsls	r3, r4, #29
 8002644:	08ff      	lsrs	r7, r7, #3
 8002646:	431f      	orrs	r7, r3
 8002648:	4666      	mov	r6, ip
 800264a:	2301      	movs	r3, #1
 800264c:	08e5      	lsrs	r5, r4, #3
 800264e:	e71f      	b.n	8002490 <__aeabi_dsub+0x4b0>
 8002650:	001d      	movs	r5, r3
 8002652:	2400      	movs	r4, #0
 8002654:	2700      	movs	r7, #0
 8002656:	e657      	b.n	8002308 <__aeabi_dsub+0x328>
 8002658:	465c      	mov	r4, fp
 800265a:	08d0      	lsrs	r0, r2, #3
 800265c:	e66a      	b.n	8002334 <__aeabi_dsub+0x354>
 800265e:	2b00      	cmp	r3, #0
 8002660:	d100      	bne.n	8002664 <__aeabi_dsub+0x684>
 8002662:	e737      	b.n	80024d4 <__aeabi_dsub+0x4f4>
 8002664:	4653      	mov	r3, sl
 8002666:	08c0      	lsrs	r0, r0, #3
 8002668:	0767      	lsls	r7, r4, #29
 800266a:	4307      	orrs	r7, r0
 800266c:	08e5      	lsrs	r5, r4, #3
 800266e:	2b00      	cmp	r3, #0
 8002670:	d100      	bne.n	8002674 <__aeabi_dsub+0x694>
 8002672:	e5b1      	b.n	80021d8 <__aeabi_dsub+0x1f8>
 8002674:	2380      	movs	r3, #128	@ 0x80
 8002676:	031b      	lsls	r3, r3, #12
 8002678:	421d      	tst	r5, r3
 800267a:	d008      	beq.n	800268e <__aeabi_dsub+0x6ae>
 800267c:	4659      	mov	r1, fp
 800267e:	08c8      	lsrs	r0, r1, #3
 8002680:	4218      	tst	r0, r3
 8002682:	d104      	bne.n	800268e <__aeabi_dsub+0x6ae>
 8002684:	08d2      	lsrs	r2, r2, #3
 8002686:	0749      	lsls	r1, r1, #29
 8002688:	430a      	orrs	r2, r1
 800268a:	0017      	movs	r7, r2
 800268c:	0005      	movs	r5, r0
 800268e:	0f7b      	lsrs	r3, r7, #29
 8002690:	00ff      	lsls	r7, r7, #3
 8002692:	08ff      	lsrs	r7, r7, #3
 8002694:	075b      	lsls	r3, r3, #29
 8002696:	431f      	orrs	r7, r3
 8002698:	e59e      	b.n	80021d8 <__aeabi_dsub+0x1f8>
 800269a:	08c0      	lsrs	r0, r0, #3
 800269c:	0763      	lsls	r3, r4, #29
 800269e:	4318      	orrs	r0, r3
 80026a0:	08e5      	lsrs	r5, r4, #3
 80026a2:	2900      	cmp	r1, #0
 80026a4:	d053      	beq.n	800274e <__aeabi_dsub+0x76e>
 80026a6:	2380      	movs	r3, #128	@ 0x80
 80026a8:	031b      	lsls	r3, r3, #12
 80026aa:	421d      	tst	r5, r3
 80026ac:	d00a      	beq.n	80026c4 <__aeabi_dsub+0x6e4>
 80026ae:	4659      	mov	r1, fp
 80026b0:	08cc      	lsrs	r4, r1, #3
 80026b2:	421c      	tst	r4, r3
 80026b4:	d106      	bne.n	80026c4 <__aeabi_dsub+0x6e4>
 80026b6:	2601      	movs	r6, #1
 80026b8:	4663      	mov	r3, ip
 80026ba:	0025      	movs	r5, r4
 80026bc:	08d0      	lsrs	r0, r2, #3
 80026be:	0749      	lsls	r1, r1, #29
 80026c0:	4308      	orrs	r0, r1
 80026c2:	401e      	ands	r6, r3
 80026c4:	0f47      	lsrs	r7, r0, #29
 80026c6:	00c0      	lsls	r0, r0, #3
 80026c8:	08c0      	lsrs	r0, r0, #3
 80026ca:	077f      	lsls	r7, r7, #29
 80026cc:	4307      	orrs	r7, r0
 80026ce:	e583      	b.n	80021d8 <__aeabi_dsub+0x1f8>
 80026d0:	1883      	adds	r3, r0, r2
 80026d2:	4293      	cmp	r3, r2
 80026d4:	4192      	sbcs	r2, r2
 80026d6:	445c      	add	r4, fp
 80026d8:	4252      	negs	r2, r2
 80026da:	18a5      	adds	r5, r4, r2
 80026dc:	022a      	lsls	r2, r5, #8
 80026de:	d500      	bpl.n	80026e2 <__aeabi_dsub+0x702>
 80026e0:	e724      	b.n	800252c <__aeabi_dsub+0x54c>
 80026e2:	076f      	lsls	r7, r5, #29
 80026e4:	08db      	lsrs	r3, r3, #3
 80026e6:	431f      	orrs	r7, r3
 80026e8:	08ed      	lsrs	r5, r5, #3
 80026ea:	2301      	movs	r3, #1
 80026ec:	e6d0      	b.n	8002490 <__aeabi_dsub+0x4b0>
 80026ee:	46c0      	nop			@ (mov r8, r8)
 80026f0:	000007ff 	.word	0x000007ff
 80026f4:	000007fe 	.word	0x000007fe
 80026f8:	ff7fffff 	.word	0xff7fffff
 80026fc:	465b      	mov	r3, fp
 80026fe:	08d2      	lsrs	r2, r2, #3
 8002700:	075f      	lsls	r7, r3, #29
 8002702:	4666      	mov	r6, ip
 8002704:	4317      	orrs	r7, r2
 8002706:	08dd      	lsrs	r5, r3, #3
 8002708:	e566      	b.n	80021d8 <__aeabi_dsub+0x1f8>
 800270a:	0025      	movs	r5, r4
 800270c:	3b20      	subs	r3, #32
 800270e:	40dd      	lsrs	r5, r3
 8002710:	4663      	mov	r3, ip
 8002712:	2b20      	cmp	r3, #32
 8002714:	d005      	beq.n	8002722 <__aeabi_dsub+0x742>
 8002716:	2340      	movs	r3, #64	@ 0x40
 8002718:	4661      	mov	r1, ip
 800271a:	1a5b      	subs	r3, r3, r1
 800271c:	409c      	lsls	r4, r3
 800271e:	4320      	orrs	r0, r4
 8002720:	4680      	mov	r8, r0
 8002722:	4647      	mov	r7, r8
 8002724:	1e7b      	subs	r3, r7, #1
 8002726:	419f      	sbcs	r7, r3
 8002728:	432f      	orrs	r7, r5
 800272a:	e5a0      	b.n	800226e <__aeabi_dsub+0x28e>
 800272c:	2120      	movs	r1, #32
 800272e:	2700      	movs	r7, #0
 8002730:	1a09      	subs	r1, r1, r0
 8002732:	e4d2      	b.n	80020da <__aeabi_dsub+0xfa>
 8002734:	2f00      	cmp	r7, #0
 8002736:	d100      	bne.n	800273a <__aeabi_dsub+0x75a>
 8002738:	e713      	b.n	8002562 <__aeabi_dsub+0x582>
 800273a:	465c      	mov	r4, fp
 800273c:	0017      	movs	r7, r2
 800273e:	2500      	movs	r5, #0
 8002740:	e5f6      	b.n	8002330 <__aeabi_dsub+0x350>
 8002742:	08d7      	lsrs	r7, r2, #3
 8002744:	0749      	lsls	r1, r1, #29
 8002746:	2302      	movs	r3, #2
 8002748:	430f      	orrs	r7, r1
 800274a:	092d      	lsrs	r5, r5, #4
 800274c:	e6a0      	b.n	8002490 <__aeabi_dsub+0x4b0>
 800274e:	0007      	movs	r7, r0
 8002750:	e542      	b.n	80021d8 <__aeabi_dsub+0x1f8>
 8002752:	465b      	mov	r3, fp
 8002754:	2601      	movs	r6, #1
 8002756:	075f      	lsls	r7, r3, #29
 8002758:	08dd      	lsrs	r5, r3, #3
 800275a:	4663      	mov	r3, ip
 800275c:	08d2      	lsrs	r2, r2, #3
 800275e:	4317      	orrs	r7, r2
 8002760:	401e      	ands	r6, r3
 8002762:	e539      	b.n	80021d8 <__aeabi_dsub+0x1f8>
 8002764:	465b      	mov	r3, fp
 8002766:	08d2      	lsrs	r2, r2, #3
 8002768:	075f      	lsls	r7, r3, #29
 800276a:	4317      	orrs	r7, r2
 800276c:	08dd      	lsrs	r5, r3, #3
 800276e:	e533      	b.n	80021d8 <__aeabi_dsub+0x1f8>
 8002770:	4a1e      	ldr	r2, [pc, #120]	@ (80027ec <__aeabi_dsub+0x80c>)
 8002772:	08db      	lsrs	r3, r3, #3
 8002774:	4022      	ands	r2, r4
 8002776:	0757      	lsls	r7, r2, #29
 8002778:	0252      	lsls	r2, r2, #9
 800277a:	2501      	movs	r5, #1
 800277c:	431f      	orrs	r7, r3
 800277e:	0b14      	lsrs	r4, r2, #12
 8002780:	e5c2      	b.n	8002308 <__aeabi_dsub+0x328>
 8002782:	000e      	movs	r6, r1
 8002784:	2001      	movs	r0, #1
 8002786:	e65f      	b.n	8002448 <__aeabi_dsub+0x468>
 8002788:	2b00      	cmp	r3, #0
 800278a:	d00d      	beq.n	80027a8 <__aeabi_dsub+0x7c8>
 800278c:	464b      	mov	r3, r9
 800278e:	1b5b      	subs	r3, r3, r5
 8002790:	469c      	mov	ip, r3
 8002792:	2d00      	cmp	r5, #0
 8002794:	d100      	bne.n	8002798 <__aeabi_dsub+0x7b8>
 8002796:	e548      	b.n	800222a <__aeabi_dsub+0x24a>
 8002798:	2701      	movs	r7, #1
 800279a:	2b38      	cmp	r3, #56	@ 0x38
 800279c:	dd00      	ble.n	80027a0 <__aeabi_dsub+0x7c0>
 800279e:	e566      	b.n	800226e <__aeabi_dsub+0x28e>
 80027a0:	2380      	movs	r3, #128	@ 0x80
 80027a2:	041b      	lsls	r3, r3, #16
 80027a4:	431c      	orrs	r4, r3
 80027a6:	e550      	b.n	800224a <__aeabi_dsub+0x26a>
 80027a8:	1c6b      	adds	r3, r5, #1
 80027aa:	4d11      	ldr	r5, [pc, #68]	@ (80027f0 <__aeabi_dsub+0x810>)
 80027ac:	422b      	tst	r3, r5
 80027ae:	d000      	beq.n	80027b2 <__aeabi_dsub+0x7d2>
 80027b0:	e673      	b.n	800249a <__aeabi_dsub+0x4ba>
 80027b2:	4659      	mov	r1, fp
 80027b4:	0023      	movs	r3, r4
 80027b6:	4311      	orrs	r1, r2
 80027b8:	468a      	mov	sl, r1
 80027ba:	4303      	orrs	r3, r0
 80027bc:	e600      	b.n	80023c0 <__aeabi_dsub+0x3e0>
 80027be:	0767      	lsls	r7, r4, #29
 80027c0:	08c0      	lsrs	r0, r0, #3
 80027c2:	2300      	movs	r3, #0
 80027c4:	4307      	orrs	r7, r0
 80027c6:	08e5      	lsrs	r5, r4, #3
 80027c8:	e662      	b.n	8002490 <__aeabi_dsub+0x4b0>
 80027ca:	0764      	lsls	r4, r4, #29
 80027cc:	08ff      	lsrs	r7, r7, #3
 80027ce:	4327      	orrs	r7, r4
 80027d0:	0905      	lsrs	r5, r0, #4
 80027d2:	e65d      	b.n	8002490 <__aeabi_dsub+0x4b0>
 80027d4:	08d2      	lsrs	r2, r2, #3
 80027d6:	0749      	lsls	r1, r1, #29
 80027d8:	4311      	orrs	r1, r2
 80027da:	000f      	movs	r7, r1
 80027dc:	2302      	movs	r3, #2
 80027de:	092d      	lsrs	r5, r5, #4
 80027e0:	e656      	b.n	8002490 <__aeabi_dsub+0x4b0>
 80027e2:	0007      	movs	r7, r0
 80027e4:	e5a4      	b.n	8002330 <__aeabi_dsub+0x350>
 80027e6:	0038      	movs	r0, r7
 80027e8:	e48f      	b.n	800210a <__aeabi_dsub+0x12a>
 80027ea:	46c0      	nop			@ (mov r8, r8)
 80027ec:	ff7fffff 	.word	0xff7fffff
 80027f0:	000007fe 	.word	0x000007fe

080027f4 <__aeabi_dcmpun>:
 80027f4:	b5f0      	push	{r4, r5, r6, r7, lr}
 80027f6:	46c6      	mov	lr, r8
 80027f8:	031e      	lsls	r6, r3, #12
 80027fa:	0b36      	lsrs	r6, r6, #12
 80027fc:	46b0      	mov	r8, r6
 80027fe:	4e0d      	ldr	r6, [pc, #52]	@ (8002834 <__aeabi_dcmpun+0x40>)
 8002800:	030c      	lsls	r4, r1, #12
 8002802:	004d      	lsls	r5, r1, #1
 8002804:	005f      	lsls	r7, r3, #1
 8002806:	b500      	push	{lr}
 8002808:	0b24      	lsrs	r4, r4, #12
 800280a:	0d6d      	lsrs	r5, r5, #21
 800280c:	0d7f      	lsrs	r7, r7, #21
 800280e:	42b5      	cmp	r5, r6
 8002810:	d00b      	beq.n	800282a <__aeabi_dcmpun+0x36>
 8002812:	4908      	ldr	r1, [pc, #32]	@ (8002834 <__aeabi_dcmpun+0x40>)
 8002814:	2000      	movs	r0, #0
 8002816:	428f      	cmp	r7, r1
 8002818:	d104      	bne.n	8002824 <__aeabi_dcmpun+0x30>
 800281a:	4646      	mov	r6, r8
 800281c:	4316      	orrs	r6, r2
 800281e:	0030      	movs	r0, r6
 8002820:	1e43      	subs	r3, r0, #1
 8002822:	4198      	sbcs	r0, r3
 8002824:	bc80      	pop	{r7}
 8002826:	46b8      	mov	r8, r7
 8002828:	bdf0      	pop	{r4, r5, r6, r7, pc}
 800282a:	4304      	orrs	r4, r0
 800282c:	2001      	movs	r0, #1
 800282e:	2c00      	cmp	r4, #0
 8002830:	d1f8      	bne.n	8002824 <__aeabi_dcmpun+0x30>
 8002832:	e7ee      	b.n	8002812 <__aeabi_dcmpun+0x1e>
 8002834:	000007ff 	.word	0x000007ff

08002838 <__aeabi_d2iz>:
 8002838:	000b      	movs	r3, r1
 800283a:	0002      	movs	r2, r0
 800283c:	b570      	push	{r4, r5, r6, lr}
 800283e:	4d16      	ldr	r5, [pc, #88]	@ (8002898 <__aeabi_d2iz+0x60>)
 8002840:	030c      	lsls	r4, r1, #12
 8002842:	b082      	sub	sp, #8
 8002844:	0049      	lsls	r1, r1, #1
 8002846:	2000      	movs	r0, #0
 8002848:	9200      	str	r2, [sp, #0]
 800284a:	9301      	str	r3, [sp, #4]
 800284c:	0b24      	lsrs	r4, r4, #12
 800284e:	0d49      	lsrs	r1, r1, #21
 8002850:	0fde      	lsrs	r6, r3, #31
 8002852:	42a9      	cmp	r1, r5
 8002854:	dd04      	ble.n	8002860 <__aeabi_d2iz+0x28>
 8002856:	4811      	ldr	r0, [pc, #68]	@ (800289c <__aeabi_d2iz+0x64>)
 8002858:	4281      	cmp	r1, r0
 800285a:	dd03      	ble.n	8002864 <__aeabi_d2iz+0x2c>
 800285c:	4b10      	ldr	r3, [pc, #64]	@ (80028a0 <__aeabi_d2iz+0x68>)
 800285e:	18f0      	adds	r0, r6, r3
 8002860:	b002      	add	sp, #8
 8002862:	bd70      	pop	{r4, r5, r6, pc}
 8002864:	2080      	movs	r0, #128	@ 0x80
 8002866:	0340      	lsls	r0, r0, #13
 8002868:	4320      	orrs	r0, r4
 800286a:	4c0e      	ldr	r4, [pc, #56]	@ (80028a4 <__aeabi_d2iz+0x6c>)
 800286c:	1a64      	subs	r4, r4, r1
 800286e:	2c1f      	cmp	r4, #31
 8002870:	dd08      	ble.n	8002884 <__aeabi_d2iz+0x4c>
 8002872:	4b0d      	ldr	r3, [pc, #52]	@ (80028a8 <__aeabi_d2iz+0x70>)
 8002874:	1a5b      	subs	r3, r3, r1
 8002876:	40d8      	lsrs	r0, r3
 8002878:	0003      	movs	r3, r0
 800287a:	4258      	negs	r0, r3
 800287c:	2e00      	cmp	r6, #0
 800287e:	d1ef      	bne.n	8002860 <__aeabi_d2iz+0x28>
 8002880:	0018      	movs	r0, r3
 8002882:	e7ed      	b.n	8002860 <__aeabi_d2iz+0x28>
 8002884:	4b09      	ldr	r3, [pc, #36]	@ (80028ac <__aeabi_d2iz+0x74>)
 8002886:	9a00      	ldr	r2, [sp, #0]
 8002888:	469c      	mov	ip, r3
 800288a:	0003      	movs	r3, r0
 800288c:	4461      	add	r1, ip
 800288e:	408b      	lsls	r3, r1
 8002890:	40e2      	lsrs	r2, r4
 8002892:	4313      	orrs	r3, r2
 8002894:	e7f1      	b.n	800287a <__aeabi_d2iz+0x42>
 8002896:	46c0      	nop			@ (mov r8, r8)
 8002898:	000003fe 	.word	0x000003fe
 800289c:	0000041d 	.word	0x0000041d
 80028a0:	7fffffff 	.word	0x7fffffff
 80028a4:	00000433 	.word	0x00000433
 80028a8:	00000413 	.word	0x00000413
 80028ac:	fffffbed 	.word	0xfffffbed

080028b0 <__aeabi_i2d>:
 80028b0:	b570      	push	{r4, r5, r6, lr}
 80028b2:	2800      	cmp	r0, #0
 80028b4:	d016      	beq.n	80028e4 <__aeabi_i2d+0x34>
 80028b6:	17c3      	asrs	r3, r0, #31
 80028b8:	18c5      	adds	r5, r0, r3
 80028ba:	405d      	eors	r5, r3
 80028bc:	0fc4      	lsrs	r4, r0, #31
 80028be:	0028      	movs	r0, r5
 80028c0:	f000 f890 	bl	80029e4 <__clzsi2>
 80028c4:	4b10      	ldr	r3, [pc, #64]	@ (8002908 <__aeabi_i2d+0x58>)
 80028c6:	1a1b      	subs	r3, r3, r0
 80028c8:	055b      	lsls	r3, r3, #21
 80028ca:	0d5b      	lsrs	r3, r3, #21
 80028cc:	280a      	cmp	r0, #10
 80028ce:	dc14      	bgt.n	80028fa <__aeabi_i2d+0x4a>
 80028d0:	0002      	movs	r2, r0
 80028d2:	002e      	movs	r6, r5
 80028d4:	3215      	adds	r2, #21
 80028d6:	4096      	lsls	r6, r2
 80028d8:	220b      	movs	r2, #11
 80028da:	1a12      	subs	r2, r2, r0
 80028dc:	40d5      	lsrs	r5, r2
 80028de:	032d      	lsls	r5, r5, #12
 80028e0:	0b2d      	lsrs	r5, r5, #12
 80028e2:	e003      	b.n	80028ec <__aeabi_i2d+0x3c>
 80028e4:	2400      	movs	r4, #0
 80028e6:	2300      	movs	r3, #0
 80028e8:	2500      	movs	r5, #0
 80028ea:	2600      	movs	r6, #0
 80028ec:	051b      	lsls	r3, r3, #20
 80028ee:	432b      	orrs	r3, r5
 80028f0:	07e4      	lsls	r4, r4, #31
 80028f2:	4323      	orrs	r3, r4
 80028f4:	0030      	movs	r0, r6
 80028f6:	0019      	movs	r1, r3
 80028f8:	bd70      	pop	{r4, r5, r6, pc}
 80028fa:	380b      	subs	r0, #11
 80028fc:	4085      	lsls	r5, r0
 80028fe:	032d      	lsls	r5, r5, #12
 8002900:	2600      	movs	r6, #0
 8002902:	0b2d      	lsrs	r5, r5, #12
 8002904:	e7f2      	b.n	80028ec <__aeabi_i2d+0x3c>
 8002906:	46c0      	nop			@ (mov r8, r8)
 8002908:	0000041e 	.word	0x0000041e

0800290c <__aeabi_ui2d>:
 800290c:	b510      	push	{r4, lr}
 800290e:	1e04      	subs	r4, r0, #0
 8002910:	d010      	beq.n	8002934 <__aeabi_ui2d+0x28>
 8002912:	f000 f867 	bl	80029e4 <__clzsi2>
 8002916:	4b0e      	ldr	r3, [pc, #56]	@ (8002950 <__aeabi_ui2d+0x44>)
 8002918:	1a1b      	subs	r3, r3, r0
 800291a:	055b      	lsls	r3, r3, #21
 800291c:	0d5b      	lsrs	r3, r3, #21
 800291e:	280a      	cmp	r0, #10
 8002920:	dc0f      	bgt.n	8002942 <__aeabi_ui2d+0x36>
 8002922:	220b      	movs	r2, #11
 8002924:	0021      	movs	r1, r4
 8002926:	1a12      	subs	r2, r2, r0
 8002928:	40d1      	lsrs	r1, r2
 800292a:	3015      	adds	r0, #21
 800292c:	030a      	lsls	r2, r1, #12
 800292e:	4084      	lsls	r4, r0
 8002930:	0b12      	lsrs	r2, r2, #12
 8002932:	e001      	b.n	8002938 <__aeabi_ui2d+0x2c>
 8002934:	2300      	movs	r3, #0
 8002936:	2200      	movs	r2, #0
 8002938:	051b      	lsls	r3, r3, #20
 800293a:	4313      	orrs	r3, r2
 800293c:	0020      	movs	r0, r4
 800293e:	0019      	movs	r1, r3
 8002940:	bd10      	pop	{r4, pc}
 8002942:	0022      	movs	r2, r4
 8002944:	380b      	subs	r0, #11
 8002946:	4082      	lsls	r2, r0
 8002948:	0312      	lsls	r2, r2, #12
 800294a:	2400      	movs	r4, #0
 800294c:	0b12      	lsrs	r2, r2, #12
 800294e:	e7f3      	b.n	8002938 <__aeabi_ui2d+0x2c>
 8002950:	0000041e 	.word	0x0000041e

08002954 <__aeabi_f2d>:
 8002954:	b570      	push	{r4, r5, r6, lr}
 8002956:	0242      	lsls	r2, r0, #9
 8002958:	0043      	lsls	r3, r0, #1
 800295a:	0fc4      	lsrs	r4, r0, #31
 800295c:	20fe      	movs	r0, #254	@ 0xfe
 800295e:	0e1b      	lsrs	r3, r3, #24
 8002960:	1c59      	adds	r1, r3, #1
 8002962:	0a55      	lsrs	r5, r2, #9
 8002964:	4208      	tst	r0, r1
 8002966:	d00c      	beq.n	8002982 <__aeabi_f2d+0x2e>
 8002968:	21e0      	movs	r1, #224	@ 0xe0
 800296a:	0089      	lsls	r1, r1, #2
 800296c:	468c      	mov	ip, r1
 800296e:	076d      	lsls	r5, r5, #29
 8002970:	0b12      	lsrs	r2, r2, #12
 8002972:	4463      	add	r3, ip
 8002974:	051b      	lsls	r3, r3, #20
 8002976:	4313      	orrs	r3, r2
 8002978:	07e4      	lsls	r4, r4, #31
 800297a:	4323      	orrs	r3, r4
 800297c:	0028      	movs	r0, r5
 800297e:	0019      	movs	r1, r3
 8002980:	bd70      	pop	{r4, r5, r6, pc}
 8002982:	2b00      	cmp	r3, #0
 8002984:	d114      	bne.n	80029b0 <__aeabi_f2d+0x5c>
 8002986:	2d00      	cmp	r5, #0
 8002988:	d01b      	beq.n	80029c2 <__aeabi_f2d+0x6e>
 800298a:	0028      	movs	r0, r5
 800298c:	f000 f82a 	bl	80029e4 <__clzsi2>
 8002990:	280a      	cmp	r0, #10
 8002992:	dc1c      	bgt.n	80029ce <__aeabi_f2d+0x7a>
 8002994:	230b      	movs	r3, #11
 8002996:	002a      	movs	r2, r5
 8002998:	1a1b      	subs	r3, r3, r0
 800299a:	40da      	lsrs	r2, r3
 800299c:	0003      	movs	r3, r0
 800299e:	3315      	adds	r3, #21
 80029a0:	409d      	lsls	r5, r3
 80029a2:	4b0e      	ldr	r3, [pc, #56]	@ (80029dc <__aeabi_f2d+0x88>)
 80029a4:	0312      	lsls	r2, r2, #12
 80029a6:	1a1b      	subs	r3, r3, r0
 80029a8:	055b      	lsls	r3, r3, #21
 80029aa:	0b12      	lsrs	r2, r2, #12
 80029ac:	0d5b      	lsrs	r3, r3, #21
 80029ae:	e7e1      	b.n	8002974 <__aeabi_f2d+0x20>
 80029b0:	2d00      	cmp	r5, #0
 80029b2:	d009      	beq.n	80029c8 <__aeabi_f2d+0x74>
 80029b4:	0b13      	lsrs	r3, r2, #12
 80029b6:	2280      	movs	r2, #128	@ 0x80
 80029b8:	0312      	lsls	r2, r2, #12
 80029ba:	431a      	orrs	r2, r3
 80029bc:	076d      	lsls	r5, r5, #29
 80029be:	4b08      	ldr	r3, [pc, #32]	@ (80029e0 <__aeabi_f2d+0x8c>)
 80029c0:	e7d8      	b.n	8002974 <__aeabi_f2d+0x20>
 80029c2:	2300      	movs	r3, #0
 80029c4:	2200      	movs	r2, #0
 80029c6:	e7d5      	b.n	8002974 <__aeabi_f2d+0x20>
 80029c8:	2200      	movs	r2, #0
 80029ca:	4b05      	ldr	r3, [pc, #20]	@ (80029e0 <__aeabi_f2d+0x8c>)
 80029cc:	e7d2      	b.n	8002974 <__aeabi_f2d+0x20>
 80029ce:	0003      	movs	r3, r0
 80029d0:	002a      	movs	r2, r5
 80029d2:	3b0b      	subs	r3, #11
 80029d4:	409a      	lsls	r2, r3
 80029d6:	2500      	movs	r5, #0
 80029d8:	e7e3      	b.n	80029a2 <__aeabi_f2d+0x4e>
 80029da:	46c0      	nop			@ (mov r8, r8)
 80029dc:	00000389 	.word	0x00000389
 80029e0:	000007ff 	.word	0x000007ff

080029e4 <__clzsi2>:
 80029e4:	211c      	movs	r1, #28
 80029e6:	2301      	movs	r3, #1
 80029e8:	041b      	lsls	r3, r3, #16
 80029ea:	4298      	cmp	r0, r3
 80029ec:	d301      	bcc.n	80029f2 <__clzsi2+0xe>
 80029ee:	0c00      	lsrs	r0, r0, #16
 80029f0:	3910      	subs	r1, #16
 80029f2:	0a1b      	lsrs	r3, r3, #8
 80029f4:	4298      	cmp	r0, r3
 80029f6:	d301      	bcc.n	80029fc <__clzsi2+0x18>
 80029f8:	0a00      	lsrs	r0, r0, #8
 80029fa:	3908      	subs	r1, #8
 80029fc:	091b      	lsrs	r3, r3, #4
 80029fe:	4298      	cmp	r0, r3
 8002a00:	d301      	bcc.n	8002a06 <__clzsi2+0x22>
 8002a02:	0900      	lsrs	r0, r0, #4
 8002a04:	3904      	subs	r1, #4
 8002a06:	a202      	add	r2, pc, #8	@ (adr r2, 8002a10 <__clzsi2+0x2c>)
 8002a08:	5c10      	ldrb	r0, [r2, r0]
 8002a0a:	1840      	adds	r0, r0, r1
 8002a0c:	4770      	bx	lr
 8002a0e:	46c0      	nop			@ (mov r8, r8)
 8002a10:	02020304 	.word	0x02020304
 8002a14:	01010101 	.word	0x01010101
	...

08002a20 <MX_ADC_Init>:

ADC_HandleTypeDef hadc;

/* ADC init function */
void MX_ADC_Init(void)
{
 8002a20:	b580      	push	{r7, lr}
 8002a22:	b082      	sub	sp, #8
 8002a24:	af00      	add	r7, sp, #0

  /* USER CODE BEGIN ADC_Init 0 */

  /* USER CODE END ADC_Init 0 */

  ADC_ChannelConfTypeDef sConfig = {0};
 8002a26:	003b      	movs	r3, r7
 8002a28:	0018      	movs	r0, r3
 8002a2a:	2308      	movs	r3, #8
 8002a2c:	001a      	movs	r2, r3
 8002a2e:	2100      	movs	r1, #0
 8002a30:	f003 fc0c 	bl	800624c <memset>

  /* USER CODE END ADC_Init 1 */

  /** Configure the global features of the ADC (Clock, Resolution, Data Alignment and number of conversion)
  */
  hadc.Instance = ADC1;
 8002a34:	4b2a      	ldr	r3, [pc, #168]	@ (8002ae0 <MX_ADC_Init+0xc0>)
 8002a36:	4a2b      	ldr	r2, [pc, #172]	@ (8002ae4 <MX_ADC_Init+0xc4>)
 8002a38:	601a      	str	r2, [r3, #0]
  hadc.Init.OversamplingMode = DISABLE;
 8002a3a:	4b29      	ldr	r3, [pc, #164]	@ (8002ae0 <MX_ADC_Init+0xc0>)
 8002a3c:	2200      	movs	r2, #0
 8002a3e:	63da      	str	r2, [r3, #60]	@ 0x3c
  hadc.Init.ClockPrescaler = ADC_CLOCK_SYNC_PCLK_DIV1;
 8002a40:	4b27      	ldr	r3, [pc, #156]	@ (8002ae0 <MX_ADC_Init+0xc0>)
 8002a42:	22c0      	movs	r2, #192	@ 0xc0
 8002a44:	0612      	lsls	r2, r2, #24
 8002a46:	605a      	str	r2, [r3, #4]
  hadc.Init.Resolution = ADC_RESOLUTION_12B;
 8002a48:	4b25      	ldr	r3, [pc, #148]	@ (8002ae0 <MX_ADC_Init+0xc0>)
 8002a4a:	2200      	movs	r2, #0
 8002a4c:	609a      	str	r2, [r3, #8]
  hadc.Init.SamplingTime = ADC_SAMPLETIME_1CYCLE_5;
 8002a4e:	4b24      	ldr	r3, [pc, #144]	@ (8002ae0 <MX_ADC_Init+0xc0>)
 8002a50:	2200      	movs	r2, #0
 8002a52:	639a      	str	r2, [r3, #56]	@ 0x38
  hadc.Init.ScanConvMode = ADC_SCAN_DIRECTION_FORWARD;
 8002a54:	4b22      	ldr	r3, [pc, #136]	@ (8002ae0 <MX_ADC_Init+0xc0>)
 8002a56:	2201      	movs	r2, #1
 8002a58:	611a      	str	r2, [r3, #16]
  hadc.Init.DataAlign = ADC_DATAALIGN_RIGHT;
 8002a5a:	4b21      	ldr	r3, [pc, #132]	@ (8002ae0 <MX_ADC_Init+0xc0>)
 8002a5c:	2200      	movs	r2, #0
 8002a5e:	60da      	str	r2, [r3, #12]
  hadc.Init.ContinuousConvMode = DISABLE;
 8002a60:	4b1f      	ldr	r3, [pc, #124]	@ (8002ae0 <MX_ADC_Init+0xc0>)
 8002a62:	2220      	movs	r2, #32
 8002a64:	2100      	movs	r1, #0
 8002a66:	5499      	strb	r1, [r3, r2]
  hadc.Init.DiscontinuousConvMode = DISABLE;
 8002a68:	4b1d      	ldr	r3, [pc, #116]	@ (8002ae0 <MX_ADC_Init+0xc0>)
 8002a6a:	2221      	movs	r2, #33	@ 0x21
 8002a6c:	2100      	movs	r1, #0
 8002a6e:	5499      	strb	r1, [r3, r2]
  hadc.Init.ExternalTrigConvEdge = ADC_EXTERNALTRIGCONVEDGE_NONE;
 8002a70:	4b1b      	ldr	r3, [pc, #108]	@ (8002ae0 <MX_ADC_Init+0xc0>)
 8002a72:	2200      	movs	r2, #0
 8002a74:	629a      	str	r2, [r3, #40]	@ 0x28
  hadc.Init.ExternalTrigConv = ADC_SOFTWARE_START;
 8002a76:	4b1a      	ldr	r3, [pc, #104]	@ (8002ae0 <MX_ADC_Init+0xc0>)
 8002a78:	22c2      	movs	r2, #194	@ 0xc2
 8002a7a:	32ff      	adds	r2, #255	@ 0xff
 8002a7c:	625a      	str	r2, [r3, #36]	@ 0x24
  hadc.Init.DMAContinuousRequests = DISABLE;
 8002a7e:	4b18      	ldr	r3, [pc, #96]	@ (8002ae0 <MX_ADC_Init+0xc0>)
 8002a80:	222c      	movs	r2, #44	@ 0x2c
 8002a82:	2100      	movs	r1, #0
 8002a84:	5499      	strb	r1, [r3, r2]
  hadc.Init.EOCSelection = ADC_EOC_SINGLE_CONV;
 8002a86:	4b16      	ldr	r3, [pc, #88]	@ (8002ae0 <MX_ADC_Init+0xc0>)
 8002a88:	2204      	movs	r2, #4
 8002a8a:	615a      	str	r2, [r3, #20]
  hadc.Init.Overrun = ADC_OVR_DATA_PRESERVED;
 8002a8c:	4b14      	ldr	r3, [pc, #80]	@ (8002ae0 <MX_ADC_Init+0xc0>)
 8002a8e:	2200      	movs	r2, #0
 8002a90:	631a      	str	r2, [r3, #48]	@ 0x30
  hadc.Init.LowPowerAutoWait = DISABLE;
 8002a92:	4b13      	ldr	r3, [pc, #76]	@ (8002ae0 <MX_ADC_Init+0xc0>)
 8002a94:	2200      	movs	r2, #0
 8002a96:	619a      	str	r2, [r3, #24]
  hadc.Init.LowPowerFrequencyMode = DISABLE;
 8002a98:	4b11      	ldr	r3, [pc, #68]	@ (8002ae0 <MX_ADC_Init+0xc0>)
 8002a9a:	2200      	movs	r2, #0
 8002a9c:	635a      	str	r2, [r3, #52]	@ 0x34
  hadc.Init.LowPowerAutoPowerOff = DISABLE;
 8002a9e:	4b10      	ldr	r3, [pc, #64]	@ (8002ae0 <MX_ADC_Init+0xc0>)
 8002aa0:	2200      	movs	r2, #0
 8002aa2:	61da      	str	r2, [r3, #28]
  if (HAL_ADC_Init(&hadc) != HAL_OK)
 8002aa4:	4b0e      	ldr	r3, [pc, #56]	@ (8002ae0 <MX_ADC_Init+0xc0>)
 8002aa6:	0018      	movs	r0, r3
 8002aa8:	f000 ff1a 	bl	80038e0 <HAL_ADC_Init>
 8002aac:	1e03      	subs	r3, r0, #0
 8002aae:	d001      	beq.n	8002ab4 <MX_ADC_Init+0x94>
  {
    Error_Handler();
 8002ab0:	f000 faa8 	bl	8003004 <Error_Handler>
  }

  /** Configure for the selected ADC regular channel to be converted.
  */
  sConfig.Channel = ADC_CHANNEL_1;
 8002ab4:	003b      	movs	r3, r7
 8002ab6:	4a0c      	ldr	r2, [pc, #48]	@ (8002ae8 <MX_ADC_Init+0xc8>)
 8002ab8:	601a      	str	r2, [r3, #0]
  sConfig.Rank = ADC_RANK_CHANNEL_NUMBER;
 8002aba:	003b      	movs	r3, r7
 8002abc:	2280      	movs	r2, #128	@ 0x80
 8002abe:	0152      	lsls	r2, r2, #5
 8002ac0:	605a      	str	r2, [r3, #4]
  if (HAL_ADC_ConfigChannel(&hadc, &sConfig) != HAL_OK)
 8002ac2:	003a      	movs	r2, r7
 8002ac4:	4b06      	ldr	r3, [pc, #24]	@ (8002ae0 <MX_ADC_Init+0xc0>)
 8002ac6:	0011      	movs	r1, r2
 8002ac8:	0018      	movs	r0, r3
 8002aca:	f001 f979 	bl	8003dc0 <HAL_ADC_ConfigChannel>
 8002ace:	1e03      	subs	r3, r0, #0
 8002ad0:	d001      	beq.n	8002ad6 <MX_ADC_Init+0xb6>
  {
    Error_Handler();
 8002ad2:	f000 fa97 	bl	8003004 <Error_Handler>
  }
  /* USER CODE BEGIN ADC_Init 2 */

  /* USER CODE END ADC_Init 2 */

}
 8002ad6:	46c0      	nop			@ (mov r8, r8)
 8002ad8:	46bd      	mov	sp, r7
 8002ada:	b002      	add	sp, #8
 8002adc:	bd80      	pop	{r7, pc}
 8002ade:	46c0      	nop			@ (mov r8, r8)
 8002ae0:	200001f0 	.word	0x200001f0
 8002ae4:	40012400 	.word	0x40012400
 8002ae8:	04000002 	.word	0x04000002

08002aec <HAL_ADC_MspInit>:

void HAL_ADC_MspInit(ADC_HandleTypeDef* adcHandle)
{
 8002aec:	b590      	push	{r4, r7, lr}
 8002aee:	b089      	sub	sp, #36	@ 0x24
 8002af0:	af00      	add	r7, sp, #0
 8002af2:	6078      	str	r0, [r7, #4]

  GPIO_InitTypeDef GPIO_InitStruct = {0};
 8002af4:	240c      	movs	r4, #12
 8002af6:	193b      	adds	r3, r7, r4
 8002af8:	0018      	movs	r0, r3
 8002afa:	2314      	movs	r3, #20
 8002afc:	001a      	movs	r2, r3
 8002afe:	2100      	movs	r1, #0
 8002b00:	f003 fba4 	bl	800624c <memset>
  if(adcHandle->Instance==ADC1)
 8002b04:	687b      	ldr	r3, [r7, #4]
 8002b06:	681b      	ldr	r3, [r3, #0]
 8002b08:	4a14      	ldr	r2, [pc, #80]	@ (8002b5c <HAL_ADC_MspInit+0x70>)
 8002b0a:	4293      	cmp	r3, r2
 8002b0c:	d122      	bne.n	8002b54 <HAL_ADC_MspInit+0x68>
  {
  /* USER CODE BEGIN ADC1_MspInit 0 */

  /* USER CODE END ADC1_MspInit 0 */
    /* ADC1 clock enable */
    __HAL_RCC_ADC1_CLK_ENABLE();
 8002b0e:	4b14      	ldr	r3, [pc, #80]	@ (8002b60 <HAL_ADC_MspInit+0x74>)
 8002b10:	6b5a      	ldr	r2, [r3, #52]	@ 0x34
 8002b12:	4b13      	ldr	r3, [pc, #76]	@ (8002b60 <HAL_ADC_MspInit+0x74>)
 8002b14:	2180      	movs	r1, #128	@ 0x80
 8002b16:	0089      	lsls	r1, r1, #2
 8002b18:	430a      	orrs	r2, r1
 8002b1a:	635a      	str	r2, [r3, #52]	@ 0x34

    __HAL_RCC_GPIOA_CLK_ENABLE();
 8002b1c:	4b10      	ldr	r3, [pc, #64]	@ (8002b60 <HAL_ADC_MspInit+0x74>)
 8002b1e:	6ada      	ldr	r2, [r3, #44]	@ 0x2c
 8002b20:	4b0f      	ldr	r3, [pc, #60]	@ (8002b60 <HAL_ADC_MspInit+0x74>)
 8002b22:	2101      	movs	r1, #1
 8002b24:	430a      	orrs	r2, r1
 8002b26:	62da      	str	r2, [r3, #44]	@ 0x2c
 8002b28:	4b0d      	ldr	r3, [pc, #52]	@ (8002b60 <HAL_ADC_MspInit+0x74>)
 8002b2a:	6adb      	ldr	r3, [r3, #44]	@ 0x2c
 8002b2c:	2201      	movs	r2, #1
 8002b2e:	4013      	ands	r3, r2
 8002b30:	60bb      	str	r3, [r7, #8]
 8002b32:	68bb      	ldr	r3, [r7, #8]
    /**ADC GPIO Configuration
    PA1     ------> ADC_IN1
    */
    GPIO_InitStruct.Pin = GPIO_PIN_1;
 8002b34:	193b      	adds	r3, r7, r4
 8002b36:	2202      	movs	r2, #2
 8002b38:	601a      	str	r2, [r3, #0]
    GPIO_InitStruct.Mode = GPIO_MODE_ANALOG;
 8002b3a:	193b      	adds	r3, r7, r4
 8002b3c:	2203      	movs	r2, #3
 8002b3e:	605a      	str	r2, [r3, #4]
    GPIO_InitStruct.Pull = GPIO_NOPULL;
 8002b40:	193b      	adds	r3, r7, r4
 8002b42:	2200      	movs	r2, #0
 8002b44:	609a      	str	r2, [r3, #8]
    HAL_GPIO_Init(GPIOA, &GPIO_InitStruct);
 8002b46:	193a      	adds	r2, r7, r4
 8002b48:	23a0      	movs	r3, #160	@ 0xa0
 8002b4a:	05db      	lsls	r3, r3, #23
 8002b4c:	0011      	movs	r1, r2
 8002b4e:	0018      	movs	r0, r3
 8002b50:	f001 fbb0 	bl	80042b4 <HAL_GPIO_Init>

  /* USER CODE BEGIN ADC1_MspInit 1 */

  /* USER CODE END ADC1_MspInit 1 */
  }
}
 8002b54:	46c0      	nop			@ (mov r8, r8)
 8002b56:	46bd      	mov	sp, r7
 8002b58:	b009      	add	sp, #36	@ 0x24
 8002b5a:	bd90      	pop	{r4, r7, pc}
 8002b5c:	40012400 	.word	0x40012400
 8002b60:	40021000 	.word	0x40021000

08002b64 <MX_GPIO_Init>:
        * Output
        * EVENT_OUT
        * EXTI
*/
void MX_GPIO_Init(void)
{
 8002b64:	b590      	push	{r4, r7, lr}
 8002b66:	b089      	sub	sp, #36	@ 0x24
 8002b68:	af00      	add	r7, sp, #0

  GPIO_InitTypeDef GPIO_InitStruct = {0};
 8002b6a:	240c      	movs	r4, #12
 8002b6c:	193b      	adds	r3, r7, r4
 8002b6e:	0018      	movs	r0, r3
 8002b70:	2314      	movs	r3, #20
 8002b72:	001a      	movs	r2, r3
 8002b74:	2100      	movs	r1, #0
 8002b76:	f003 fb69 	bl	800624c <memset>

  /* GPIO Ports Clock Enable */
  __HAL_RCC_GPIOC_CLK_ENABLE();
 8002b7a:	4b37      	ldr	r3, [pc, #220]	@ (8002c58 <MX_GPIO_Init+0xf4>)
 8002b7c:	6ada      	ldr	r2, [r3, #44]	@ 0x2c
 8002b7e:	4b36      	ldr	r3, [pc, #216]	@ (8002c58 <MX_GPIO_Init+0xf4>)
 8002b80:	2104      	movs	r1, #4
 8002b82:	430a      	orrs	r2, r1
 8002b84:	62da      	str	r2, [r3, #44]	@ 0x2c
 8002b86:	4b34      	ldr	r3, [pc, #208]	@ (8002c58 <MX_GPIO_Init+0xf4>)
 8002b88:	6adb      	ldr	r3, [r3, #44]	@ 0x2c
 8002b8a:	2204      	movs	r2, #4
 8002b8c:	4013      	ands	r3, r2
 8002b8e:	60bb      	str	r3, [r7, #8]
 8002b90:	68bb      	ldr	r3, [r7, #8]
  __HAL_RCC_GPIOH_CLK_ENABLE();
 8002b92:	4b31      	ldr	r3, [pc, #196]	@ (8002c58 <MX_GPIO_Init+0xf4>)
 8002b94:	6ada      	ldr	r2, [r3, #44]	@ 0x2c
 8002b96:	4b30      	ldr	r3, [pc, #192]	@ (8002c58 <MX_GPIO_Init+0xf4>)
 8002b98:	2180      	movs	r1, #128	@ 0x80
 8002b9a:	430a      	orrs	r2, r1
 8002b9c:	62da      	str	r2, [r3, #44]	@ 0x2c
 8002b9e:	4b2e      	ldr	r3, [pc, #184]	@ (8002c58 <MX_GPIO_Init+0xf4>)
 8002ba0:	6adb      	ldr	r3, [r3, #44]	@ 0x2c
 8002ba2:	2280      	movs	r2, #128	@ 0x80
 8002ba4:	4013      	ands	r3, r2
 8002ba6:	607b      	str	r3, [r7, #4]
 8002ba8:	687b      	ldr	r3, [r7, #4]
  __HAL_RCC_GPIOA_CLK_ENABLE();
 8002baa:	4b2b      	ldr	r3, [pc, #172]	@ (8002c58 <MX_GPIO_Init+0xf4>)
 8002bac:	6ada      	ldr	r2, [r3, #44]	@ 0x2c
 8002bae:	4b2a      	ldr	r3, [pc, #168]	@ (8002c58 <MX_GPIO_Init+0xf4>)
 8002bb0:	2101      	movs	r1, #1
 8002bb2:	430a      	orrs	r2, r1
 8002bb4:	62da      	str	r2, [r3, #44]	@ 0x2c
 8002bb6:	4b28      	ldr	r3, [pc, #160]	@ (8002c58 <MX_GPIO_Init+0xf4>)
 8002bb8:	6adb      	ldr	r3, [r3, #44]	@ 0x2c
 8002bba:	2201      	movs	r2, #1
 8002bbc:	4013      	ands	r3, r2
 8002bbe:	603b      	str	r3, [r7, #0]
 8002bc0:	683b      	ldr	r3, [r7, #0]

  /*Configure GPIO pin Output Level */
  HAL_GPIO_WritePin(GPIOA, GPIO_PIN_0, GPIO_PIN_SET);
 8002bc2:	23a0      	movs	r3, #160	@ 0xa0
 8002bc4:	05db      	lsls	r3, r3, #23
 8002bc6:	2201      	movs	r2, #1
 8002bc8:	2101      	movs	r1, #1
 8002bca:	0018      	movs	r0, r3
 8002bcc:	f001 fcf0 	bl	80045b0 <HAL_GPIO_WritePin>

  /*Configure GPIO pin Output Level */
  HAL_GPIO_WritePin(LD2_GPIO_Port, LD2_Pin, GPIO_PIN_RESET);
 8002bd0:	23a0      	movs	r3, #160	@ 0xa0
 8002bd2:	05db      	lsls	r3, r3, #23
 8002bd4:	2200      	movs	r2, #0
 8002bd6:	2120      	movs	r1, #32
 8002bd8:	0018      	movs	r0, r3
 8002bda:	f001 fce9 	bl	80045b0 <HAL_GPIO_WritePin>

  /*Configure GPIO pin : B1_Pin */
  GPIO_InitStruct.Pin = B1_Pin;
 8002bde:	193b      	adds	r3, r7, r4
 8002be0:	2280      	movs	r2, #128	@ 0x80
 8002be2:	0192      	lsls	r2, r2, #6
 8002be4:	601a      	str	r2, [r3, #0]
  GPIO_InitStruct.Mode = GPIO_MODE_IT_FALLING;
 8002be6:	193b      	adds	r3, r7, r4
 8002be8:	2284      	movs	r2, #132	@ 0x84
 8002bea:	0392      	lsls	r2, r2, #14
 8002bec:	605a      	str	r2, [r3, #4]
  GPIO_InitStruct.Pull = GPIO_NOPULL;
 8002bee:	193b      	adds	r3, r7, r4
 8002bf0:	2200      	movs	r2, #0
 8002bf2:	609a      	str	r2, [r3, #8]
  HAL_GPIO_Init(B1_GPIO_Port, &GPIO_InitStruct);
 8002bf4:	193b      	adds	r3, r7, r4
 8002bf6:	4a19      	ldr	r2, [pc, #100]	@ (8002c5c <MX_GPIO_Init+0xf8>)
 8002bf8:	0019      	movs	r1, r3
 8002bfa:	0010      	movs	r0, r2
 8002bfc:	f001 fb5a 	bl	80042b4 <HAL_GPIO_Init>

  /*Configure GPIO pin : PA0 */
  GPIO_InitStruct.Pin = GPIO_PIN_0;
 8002c00:	193b      	adds	r3, r7, r4
 8002c02:	2201      	movs	r2, #1
 8002c04:	601a      	str	r2, [r3, #0]
  GPIO_InitStruct.Mode = GPIO_MODE_OUTPUT_OD;
 8002c06:	193b      	adds	r3, r7, r4
 8002c08:	2211      	movs	r2, #17
 8002c0a:	605a      	str	r2, [r3, #4]
  GPIO_InitStruct.Pull = GPIO_NOPULL;
 8002c0c:	193b      	adds	r3, r7, r4
 8002c0e:	2200      	movs	r2, #0
 8002c10:	609a      	str	r2, [r3, #8]
  GPIO_InitStruct.Speed = GPIO_SPEED_FREQ_LOW;
 8002c12:	193b      	adds	r3, r7, r4
 8002c14:	2200      	movs	r2, #0
 8002c16:	60da      	str	r2, [r3, #12]
  HAL_GPIO_Init(GPIOA, &GPIO_InitStruct);
 8002c18:	193a      	adds	r2, r7, r4
 8002c1a:	23a0      	movs	r3, #160	@ 0xa0
 8002c1c:	05db      	lsls	r3, r3, #23
 8002c1e:	0011      	movs	r1, r2
 8002c20:	0018      	movs	r0, r3
 8002c22:	f001 fb47 	bl	80042b4 <HAL_GPIO_Init>

  /*Configure GPIO pin : LD2_Pin */
  GPIO_InitStruct.Pin = LD2_Pin;
 8002c26:	0021      	movs	r1, r4
 8002c28:	187b      	adds	r3, r7, r1
 8002c2a:	2220      	movs	r2, #32
 8002c2c:	601a      	str	r2, [r3, #0]
  GPIO_InitStruct.Mode = GPIO_MODE_OUTPUT_PP;
 8002c2e:	187b      	adds	r3, r7, r1
 8002c30:	2201      	movs	r2, #1
 8002c32:	605a      	str	r2, [r3, #4]
  GPIO_InitStruct.Pull = GPIO_NOPULL;
 8002c34:	187b      	adds	r3, r7, r1
 8002c36:	2200      	movs	r2, #0
 8002c38:	609a      	str	r2, [r3, #8]
  GPIO_InitStruct.Speed = GPIO_SPEED_FREQ_LOW;
 8002c3a:	187b      	adds	r3, r7, r1
 8002c3c:	2200      	movs	r2, #0
 8002c3e:	60da      	str	r2, [r3, #12]
  HAL_GPIO_Init(LD2_GPIO_Port, &GPIO_InitStruct);
 8002c40:	187a      	adds	r2, r7, r1
 8002c42:	23a0      	movs	r3, #160	@ 0xa0
 8002c44:	05db      	lsls	r3, r3, #23
 8002c46:	0011      	movs	r1, r2
 8002c48:	0018      	movs	r0, r3
 8002c4a:	f001 fb33 	bl	80042b4 <HAL_GPIO_Init>

}
 8002c4e:	46c0      	nop			@ (mov r8, r8)
 8002c50:	46bd      	mov	sp, r7
 8002c52:	b009      	add	sp, #36	@ 0x24
 8002c54:	bd90      	pop	{r4, r7, pc}
 8002c56:	46c0      	nop			@ (mov r8, r8)
 8002c58:	40021000 	.word	0x40021000
 8002c5c:	50000800 	.word	0x50000800

08002c60 <LL_RCC_HSI_Enable>:
  * @brief  Enable HSI oscillator
  * @rmtoll CR           HSION         LL_RCC_HSI_Enable
  * @retval None
  */
__STATIC_INLINE void LL_RCC_HSI_Enable(void)
{
 8002c60:	b580      	push	{r7, lr}
 8002c62:	af00      	add	r7, sp, #0
  SET_BIT(RCC->CR, RCC_CR_HSION);
 8002c64:	4b04      	ldr	r3, [pc, #16]	@ (8002c78 <LL_RCC_HSI_Enable+0x18>)
 8002c66:	681a      	ldr	r2, [r3, #0]
 8002c68:	4b03      	ldr	r3, [pc, #12]	@ (8002c78 <LL_RCC_HSI_Enable+0x18>)
 8002c6a:	2101      	movs	r1, #1
 8002c6c:	430a      	orrs	r2, r1
 8002c6e:	601a      	str	r2, [r3, #0]
}
 8002c70:	46c0      	nop			@ (mov r8, r8)
 8002c72:	46bd      	mov	sp, r7
 8002c74:	bd80      	pop	{r7, pc}
 8002c76:	46c0      	nop			@ (mov r8, r8)
 8002c78:	40021000 	.word	0x40021000

08002c7c <LL_RCC_HSI_IsReady>:
  * @brief  Check if HSI clock is ready
  * @rmtoll CR           HSIRDY        LL_RCC_HSI_IsReady
  * @retval State of bit (1 or 0).
  */
__STATIC_INLINE uint32_t LL_RCC_HSI_IsReady(void)
{
 8002c7c:	b580      	push	{r7, lr}
 8002c7e:	af00      	add	r7, sp, #0
  return ((READ_BIT(RCC->CR, RCC_CR_HSIRDY) == RCC_CR_HSIRDY) ? 1UL : 0UL);
 8002c80:	4b05      	ldr	r3, [pc, #20]	@ (8002c98 <LL_RCC_HSI_IsReady+0x1c>)
 8002c82:	681b      	ldr	r3, [r3, #0]
 8002c84:	2204      	movs	r2, #4
 8002c86:	4013      	ands	r3, r2
 8002c88:	2b04      	cmp	r3, #4
 8002c8a:	d101      	bne.n	8002c90 <LL_RCC_HSI_IsReady+0x14>
 8002c8c:	2301      	movs	r3, #1
 8002c8e:	e000      	b.n	8002c92 <LL_RCC_HSI_IsReady+0x16>
 8002c90:	2300      	movs	r3, #0
}
 8002c92:	0018      	movs	r0, r3
 8002c94:	46bd      	mov	sp, r7
 8002c96:	bd80      	pop	{r7, pc}
 8002c98:	40021000 	.word	0x40021000

08002c9c <LL_RCC_HSI_SetCalibTrimming>:
  * @rmtoll ICSCR        HSITRIM       LL_RCC_HSI_SetCalibTrimming
  * @param  Value between Min_Data = 0x00 and Max_Data = 0x1F
  * @retval None
  */
__STATIC_INLINE void LL_RCC_HSI_SetCalibTrimming(uint32_t Value)
{
 8002c9c:	b580      	push	{r7, lr}
 8002c9e:	b082      	sub	sp, #8
 8002ca0:	af00      	add	r7, sp, #0
 8002ca2:	6078      	str	r0, [r7, #4]
  MODIFY_REG(RCC->ICSCR, RCC_ICSCR_HSITRIM, Value << RCC_ICSCR_HSITRIM_Pos);
 8002ca4:	4b06      	ldr	r3, [pc, #24]	@ (8002cc0 <LL_RCC_HSI_SetCalibTrimming+0x24>)
 8002ca6:	685b      	ldr	r3, [r3, #4]
 8002ca8:	4a06      	ldr	r2, [pc, #24]	@ (8002cc4 <LL_RCC_HSI_SetCalibTrimming+0x28>)
 8002caa:	4013      	ands	r3, r2
 8002cac:	0019      	movs	r1, r3
 8002cae:	687b      	ldr	r3, [r7, #4]
 8002cb0:	021a      	lsls	r2, r3, #8
 8002cb2:	4b03      	ldr	r3, [pc, #12]	@ (8002cc0 <LL_RCC_HSI_SetCalibTrimming+0x24>)
 8002cb4:	430a      	orrs	r2, r1
 8002cb6:	605a      	str	r2, [r3, #4]
}
 8002cb8:	46c0      	nop			@ (mov r8, r8)
 8002cba:	46bd      	mov	sp, r7
 8002cbc:	b002      	add	sp, #8
 8002cbe:	bd80      	pop	{r7, pc}
 8002cc0:	40021000 	.word	0x40021000
 8002cc4:	ffffe0ff 	.word	0xffffe0ff

08002cc8 <LL_RCC_SetSysClkSource>:
  *         @arg @ref LL_RCC_SYS_CLKSOURCE_HSE
  *         @arg @ref LL_RCC_SYS_CLKSOURCE_PLL
  * @retval None
  */
__STATIC_INLINE void LL_RCC_SetSysClkSource(uint32_t Source)
{
 8002cc8:	b580      	push	{r7, lr}
 8002cca:	b082      	sub	sp, #8
 8002ccc:	af00      	add	r7, sp, #0
 8002cce:	6078      	str	r0, [r7, #4]
  MODIFY_REG(RCC->CFGR, RCC_CFGR_SW, Source);
 8002cd0:	4b06      	ldr	r3, [pc, #24]	@ (8002cec <LL_RCC_SetSysClkSource+0x24>)
 8002cd2:	68db      	ldr	r3, [r3, #12]
 8002cd4:	2203      	movs	r2, #3
 8002cd6:	4393      	bics	r3, r2
 8002cd8:	0019      	movs	r1, r3
 8002cda:	4b04      	ldr	r3, [pc, #16]	@ (8002cec <LL_RCC_SetSysClkSource+0x24>)
 8002cdc:	687a      	ldr	r2, [r7, #4]
 8002cde:	430a      	orrs	r2, r1
 8002ce0:	60da      	str	r2, [r3, #12]
}
 8002ce2:	46c0      	nop			@ (mov r8, r8)
 8002ce4:	46bd      	mov	sp, r7
 8002ce6:	b002      	add	sp, #8
 8002ce8:	bd80      	pop	{r7, pc}
 8002cea:	46c0      	nop			@ (mov r8, r8)
 8002cec:	40021000 	.word	0x40021000

08002cf0 <LL_RCC_GetSysClkSource>:
  *         @arg @ref LL_RCC_SYS_CLKSOURCE_STATUS_HSI
  *         @arg @ref LL_RCC_SYS_CLKSOURCE_STATUS_HSE
  *         @arg @ref LL_RCC_SYS_CLKSOURCE_STATUS_PLL
  */
__STATIC_INLINE uint32_t LL_RCC_GetSysClkSource(void)
{
 8002cf0:	b580      	push	{r7, lr}
 8002cf2:	af00      	add	r7, sp, #0
  return (uint32_t)(READ_BIT(RCC->CFGR, RCC_CFGR_SWS));
 8002cf4:	4b03      	ldr	r3, [pc, #12]	@ (8002d04 <LL_RCC_GetSysClkSource+0x14>)
 8002cf6:	68db      	ldr	r3, [r3, #12]
 8002cf8:	220c      	movs	r2, #12
 8002cfa:	4013      	ands	r3, r2
}
 8002cfc:	0018      	movs	r0, r3
 8002cfe:	46bd      	mov	sp, r7
 8002d00:	bd80      	pop	{r7, pc}
 8002d02:	46c0      	nop			@ (mov r8, r8)
 8002d04:	40021000 	.word	0x40021000

08002d08 <LL_RCC_SetAHBPrescaler>:
  *         @arg @ref LL_RCC_SYSCLK_DIV_256
  *         @arg @ref LL_RCC_SYSCLK_DIV_512
  * @retval None
  */
__STATIC_INLINE void LL_RCC_SetAHBPrescaler(uint32_t Prescaler)
{
 8002d08:	b580      	push	{r7, lr}
 8002d0a:	b082      	sub	sp, #8
 8002d0c:	af00      	add	r7, sp, #0
 8002d0e:	6078      	str	r0, [r7, #4]
  MODIFY_REG(RCC->CFGR, RCC_CFGR_HPRE, Prescaler);
 8002d10:	4b06      	ldr	r3, [pc, #24]	@ (8002d2c <LL_RCC_SetAHBPrescaler+0x24>)
 8002d12:	68db      	ldr	r3, [r3, #12]
 8002d14:	22f0      	movs	r2, #240	@ 0xf0
 8002d16:	4393      	bics	r3, r2
 8002d18:	0019      	movs	r1, r3
 8002d1a:	4b04      	ldr	r3, [pc, #16]	@ (8002d2c <LL_RCC_SetAHBPrescaler+0x24>)
 8002d1c:	687a      	ldr	r2, [r7, #4]
 8002d1e:	430a      	orrs	r2, r1
 8002d20:	60da      	str	r2, [r3, #12]
}
 8002d22:	46c0      	nop			@ (mov r8, r8)
 8002d24:	46bd      	mov	sp, r7
 8002d26:	b002      	add	sp, #8
 8002d28:	bd80      	pop	{r7, pc}
 8002d2a:	46c0      	nop			@ (mov r8, r8)
 8002d2c:	40021000 	.word	0x40021000

08002d30 <LL_RCC_SetAPB1Prescaler>:
  *         @arg @ref LL_RCC_APB1_DIV_8
  *         @arg @ref LL_RCC_APB1_DIV_16
  * @retval None
  */
__STATIC_INLINE void LL_RCC_SetAPB1Prescaler(uint32_t Prescaler)
{
 8002d30:	b580      	push	{r7, lr}
 8002d32:	b082      	sub	sp, #8
 8002d34:	af00      	add	r7, sp, #0
 8002d36:	6078      	str	r0, [r7, #4]
  MODIFY_REG(RCC->CFGR, RCC_CFGR_PPRE1, Prescaler);
 8002d38:	4b06      	ldr	r3, [pc, #24]	@ (8002d54 <LL_RCC_SetAPB1Prescaler+0x24>)
 8002d3a:	68db      	ldr	r3, [r3, #12]
 8002d3c:	4a06      	ldr	r2, [pc, #24]	@ (8002d58 <LL_RCC_SetAPB1Prescaler+0x28>)
 8002d3e:	4013      	ands	r3, r2
 8002d40:	0019      	movs	r1, r3
 8002d42:	4b04      	ldr	r3, [pc, #16]	@ (8002d54 <LL_RCC_SetAPB1Prescaler+0x24>)
 8002d44:	687a      	ldr	r2, [r7, #4]
 8002d46:	430a      	orrs	r2, r1
 8002d48:	60da      	str	r2, [r3, #12]
}
 8002d4a:	46c0      	nop			@ (mov r8, r8)
 8002d4c:	46bd      	mov	sp, r7
 8002d4e:	b002      	add	sp, #8
 8002d50:	bd80      	pop	{r7, pc}
 8002d52:	46c0      	nop			@ (mov r8, r8)
 8002d54:	40021000 	.word	0x40021000
 8002d58:	fffff8ff 	.word	0xfffff8ff

08002d5c <LL_RCC_SetAPB2Prescaler>:
  *         @arg @ref LL_RCC_APB2_DIV_8
  *         @arg @ref LL_RCC_APB2_DIV_16
  * @retval None
  */
__STATIC_INLINE void LL_RCC_SetAPB2Prescaler(uint32_t Prescaler)
{
 8002d5c:	b580      	push	{r7, lr}
 8002d5e:	b082      	sub	sp, #8
 8002d60:	af00      	add	r7, sp, #0
 8002d62:	6078      	str	r0, [r7, #4]
  MODIFY_REG(RCC->CFGR, RCC_CFGR_PPRE2, Prescaler);
 8002d64:	4b06      	ldr	r3, [pc, #24]	@ (8002d80 <LL_RCC_SetAPB2Prescaler+0x24>)
 8002d66:	68db      	ldr	r3, [r3, #12]
 8002d68:	4a06      	ldr	r2, [pc, #24]	@ (8002d84 <LL_RCC_SetAPB2Prescaler+0x28>)
 8002d6a:	4013      	ands	r3, r2
 8002d6c:	0019      	movs	r1, r3
 8002d6e:	4b04      	ldr	r3, [pc, #16]	@ (8002d80 <LL_RCC_SetAPB2Prescaler+0x24>)
 8002d70:	687a      	ldr	r2, [r7, #4]
 8002d72:	430a      	orrs	r2, r1
 8002d74:	60da      	str	r2, [r3, #12]
}
 8002d76:	46c0      	nop			@ (mov r8, r8)
 8002d78:	46bd      	mov	sp, r7
 8002d7a:	b002      	add	sp, #8
 8002d7c:	bd80      	pop	{r7, pc}
 8002d7e:	46c0      	nop			@ (mov r8, r8)
 8002d80:	40021000 	.word	0x40021000
 8002d84:	ffffc7ff 	.word	0xffffc7ff

08002d88 <LL_RCC_SetUSARTClockSource>:
  *
  *         (*) value not defined in all devices.
  * @retval None
  */
__STATIC_INLINE void LL_RCC_SetUSARTClockSource(uint32_t USARTxSource)
{
 8002d88:	b580      	push	{r7, lr}
 8002d8a:	b082      	sub	sp, #8
 8002d8c:	af00      	add	r7, sp, #0
 8002d8e:	6078      	str	r0, [r7, #4]
  MODIFY_REG(RCC->CCIPR, (USARTxSource >> 16U), (USARTxSource & 0x0000FFFFU));
 8002d90:	4b08      	ldr	r3, [pc, #32]	@ (8002db4 <LL_RCC_SetUSARTClockSource+0x2c>)
 8002d92:	6cdb      	ldr	r3, [r3, #76]	@ 0x4c
 8002d94:	687a      	ldr	r2, [r7, #4]
 8002d96:	0c12      	lsrs	r2, r2, #16
 8002d98:	43d2      	mvns	r2, r2
 8002d9a:	401a      	ands	r2, r3
 8002d9c:	0011      	movs	r1, r2
 8002d9e:	687b      	ldr	r3, [r7, #4]
 8002da0:	041b      	lsls	r3, r3, #16
 8002da2:	0c1a      	lsrs	r2, r3, #16
 8002da4:	4b03      	ldr	r3, [pc, #12]	@ (8002db4 <LL_RCC_SetUSARTClockSource+0x2c>)
 8002da6:	430a      	orrs	r2, r1
 8002da8:	64da      	str	r2, [r3, #76]	@ 0x4c
}
 8002daa:	46c0      	nop			@ (mov r8, r8)
 8002dac:	46bd      	mov	sp, r7
 8002dae:	b002      	add	sp, #8
 8002db0:	bd80      	pop	{r7, pc}
 8002db2:	46c0      	nop			@ (mov r8, r8)
 8002db4:	40021000 	.word	0x40021000

08002db8 <LL_FLASH_SetLatency>:
  *         @arg @ref LL_FLASH_LATENCY_0
  *         @arg @ref LL_FLASH_LATENCY_1
  * @retval None
  */
__STATIC_INLINE void LL_FLASH_SetLatency(uint32_t Latency)
{
 8002db8:	b580      	push	{r7, lr}
 8002dba:	b082      	sub	sp, #8
 8002dbc:	af00      	add	r7, sp, #0
 8002dbe:	6078      	str	r0, [r7, #4]
  MODIFY_REG(FLASH->ACR, FLASH_ACR_LATENCY, Latency);
 8002dc0:	4b06      	ldr	r3, [pc, #24]	@ (8002ddc <LL_FLASH_SetLatency+0x24>)
 8002dc2:	681b      	ldr	r3, [r3, #0]
 8002dc4:	2201      	movs	r2, #1
 8002dc6:	4393      	bics	r3, r2
 8002dc8:	0019      	movs	r1, r3
 8002dca:	4b04      	ldr	r3, [pc, #16]	@ (8002ddc <LL_FLASH_SetLatency+0x24>)
 8002dcc:	687a      	ldr	r2, [r7, #4]
 8002dce:	430a      	orrs	r2, r1
 8002dd0:	601a      	str	r2, [r3, #0]
}
 8002dd2:	46c0      	nop			@ (mov r8, r8)
 8002dd4:	46bd      	mov	sp, r7
 8002dd6:	b002      	add	sp, #8
 8002dd8:	bd80      	pop	{r7, pc}
 8002dda:	46c0      	nop			@ (mov r8, r8)
 8002ddc:	40022000 	.word	0x40022000

08002de0 <LL_FLASH_GetLatency>:
  * @retval Returned value can be one of the following values:
  *         @arg @ref LL_FLASH_LATENCY_0
  *         @arg @ref LL_FLASH_LATENCY_1
  */
__STATIC_INLINE uint32_t LL_FLASH_GetLatency(void)
{
 8002de0:	b580      	push	{r7, lr}
 8002de2:	af00      	add	r7, sp, #0
  return (uint32_t)(READ_BIT(FLASH->ACR, FLASH_ACR_LATENCY));
 8002de4:	4b03      	ldr	r3, [pc, #12]	@ (8002df4 <LL_FLASH_GetLatency+0x14>)
 8002de6:	681b      	ldr	r3, [r3, #0]
 8002de8:	2201      	movs	r2, #1
 8002dea:	4013      	ands	r3, r2
}
 8002dec:	0018      	movs	r0, r3
 8002dee:	46bd      	mov	sp, r7
 8002df0:	bd80      	pop	{r7, pc}
 8002df2:	46c0      	nop			@ (mov r8, r8)
 8002df4:	40022000 	.word	0x40022000

08002df8 <LL_SYSTICK_EnableIT>:
  * @brief  Enable SysTick exception request
  * @rmtoll STK_CTRL     TICKINT       LL_SYSTICK_EnableIT
  * @retval None
  */
__STATIC_INLINE void LL_SYSTICK_EnableIT(void)
{
 8002df8:	b580      	push	{r7, lr}
 8002dfa:	af00      	add	r7, sp, #0
  SET_BIT(SysTick->CTRL, SysTick_CTRL_TICKINT_Msk);
 8002dfc:	4b04      	ldr	r3, [pc, #16]	@ (8002e10 <LL_SYSTICK_EnableIT+0x18>)
 8002dfe:	681a      	ldr	r2, [r3, #0]
 8002e00:	4b03      	ldr	r3, [pc, #12]	@ (8002e10 <LL_SYSTICK_EnableIT+0x18>)
 8002e02:	2102      	movs	r1, #2
 8002e04:	430a      	orrs	r2, r1
 8002e06:	601a      	str	r2, [r3, #0]
}
 8002e08:	46c0      	nop			@ (mov r8, r8)
 8002e0a:	46bd      	mov	sp, r7
 8002e0c:	bd80      	pop	{r7, pc}
 8002e0e:	46c0      	nop			@ (mov r8, r8)
 8002e10:	e000e010 	.word	0xe000e010

08002e14 <LL_PWR_SetRegulVoltageScaling>:
  *         @arg @ref LL_PWR_REGU_VOLTAGE_SCALE2
  *         @arg @ref LL_PWR_REGU_VOLTAGE_SCALE3
  * @retval None
  */
__STATIC_INLINE void LL_PWR_SetRegulVoltageScaling(uint32_t VoltageScaling)
{
 8002e14:	b580      	push	{r7, lr}
 8002e16:	b082      	sub	sp, #8
 8002e18:	af00      	add	r7, sp, #0
 8002e1a:	6078      	str	r0, [r7, #4]
  MODIFY_REG(PWR->CR, PWR_CR_VOS, VoltageScaling);
 8002e1c:	4b06      	ldr	r3, [pc, #24]	@ (8002e38 <LL_PWR_SetRegulVoltageScaling+0x24>)
 8002e1e:	681b      	ldr	r3, [r3, #0]
 8002e20:	4a06      	ldr	r2, [pc, #24]	@ (8002e3c <LL_PWR_SetRegulVoltageScaling+0x28>)
 8002e22:	4013      	ands	r3, r2
 8002e24:	0019      	movs	r1, r3
 8002e26:	4b04      	ldr	r3, [pc, #16]	@ (8002e38 <LL_PWR_SetRegulVoltageScaling+0x24>)
 8002e28:	687a      	ldr	r2, [r7, #4]
 8002e2a:	430a      	orrs	r2, r1
 8002e2c:	601a      	str	r2, [r3, #0]
}
 8002e2e:	46c0      	nop			@ (mov r8, r8)
 8002e30:	46bd      	mov	sp, r7
 8002e32:	b002      	add	sp, #8
 8002e34:	bd80      	pop	{r7, pc}
 8002e36:	46c0      	nop			@ (mov r8, r8)
 8002e38:	40007000 	.word	0x40007000
 8002e3c:	ffffe7ff 	.word	0xffffe7ff

08002e40 <LL_PWR_IsActiveFlag_VOS>:
  * @brief  Indicate whether the regulator is ready in the selected voltage range or if its output voltage is still changing to the required voltage level
  * @rmtoll CSR   VOSF       LL_PWR_IsActiveFlag_VOS
  * @retval State of bit (1 or 0).
  */
__STATIC_INLINE uint32_t LL_PWR_IsActiveFlag_VOS(void)
{
 8002e40:	b580      	push	{r7, lr}
 8002e42:	af00      	add	r7, sp, #0
  return (READ_BIT(PWR->CSR, LL_PWR_CSR_VOS) == (LL_PWR_CSR_VOS));
 8002e44:	4b05      	ldr	r3, [pc, #20]	@ (8002e5c <LL_PWR_IsActiveFlag_VOS+0x1c>)
 8002e46:	685b      	ldr	r3, [r3, #4]
 8002e48:	2210      	movs	r2, #16
 8002e4a:	4013      	ands	r3, r2
 8002e4c:	3b10      	subs	r3, #16
 8002e4e:	425a      	negs	r2, r3
 8002e50:	4153      	adcs	r3, r2
 8002e52:	b2db      	uxtb	r3, r3
}
 8002e54:	0018      	movs	r0, r3
 8002e56:	46bd      	mov	sp, r7
 8002e58:	bd80      	pop	{r7, pc}
 8002e5a:	46c0      	nop			@ (mov r8, r8)
 8002e5c:	40007000 	.word	0x40007000

08002e60 <LL_USART_EnableIT_RXNE>:
  * @rmtoll CR1          RXNEIE        LL_USART_EnableIT_RXNE
  * @param  USARTx USART Instance
  * @retval None
  */
__STATIC_INLINE void LL_USART_EnableIT_RXNE(USART_TypeDef *USARTx)
{
 8002e60:	b580      	push	{r7, lr}
 8002e62:	b086      	sub	sp, #24
 8002e64:	af00      	add	r7, sp, #0
 8002e66:	6078      	str	r0, [r7, #4]
 */
__STATIC_FORCEINLINE uint32_t __get_PRIMASK(void)
{
  uint32_t result;

  __ASM volatile ("MRS %0, primask" : "=r" (result) :: "memory");
 8002e68:	f3ef 8310 	mrs	r3, PRIMASK
 8002e6c:	60bb      	str	r3, [r7, #8]
  return(result);
 8002e6e:	68bb      	ldr	r3, [r7, #8]
  ATOMIC_SET_BIT(USARTx->CR1, USART_CR1_RXNEIE);
 8002e70:	617b      	str	r3, [r7, #20]
 8002e72:	2301      	movs	r3, #1
 8002e74:	60fb      	str	r3, [r7, #12]
  \details Assigns the given value to the Priority Mask Register.
  \param [in]    priMask  Priority Mask
 */
__STATIC_FORCEINLINE void __set_PRIMASK(uint32_t priMask)
{
  __ASM volatile ("MSR primask, %0" : : "r" (priMask) : "memory");
 8002e76:	68fb      	ldr	r3, [r7, #12]
 8002e78:	f383 8810 	msr	PRIMASK, r3
}
 8002e7c:	46c0      	nop			@ (mov r8, r8)
 8002e7e:	687b      	ldr	r3, [r7, #4]
 8002e80:	681b      	ldr	r3, [r3, #0]
 8002e82:	2220      	movs	r2, #32
 8002e84:	431a      	orrs	r2, r3
 8002e86:	687b      	ldr	r3, [r7, #4]
 8002e88:	601a      	str	r2, [r3, #0]
 8002e8a:	697b      	ldr	r3, [r7, #20]
 8002e8c:	613b      	str	r3, [r7, #16]
  __ASM volatile ("MSR primask, %0" : : "r" (priMask) : "memory");
 8002e8e:	693b      	ldr	r3, [r7, #16]
 8002e90:	f383 8810 	msr	PRIMASK, r3
}
 8002e94:	46c0      	nop			@ (mov r8, r8)
}
 8002e96:	46c0      	nop			@ (mov r8, r8)
 8002e98:	46bd      	mov	sp, r7
 8002e9a:	b006      	add	sp, #24
 8002e9c:	bd80      	pop	{r7, pc}
	...

08002ea0 <main>:
/**
  * @brief  The application entry point.
  * @retval int
  */
int main(void)
{
 8002ea0:	b580      	push	{r7, lr}
 8002ea2:	b082      	sub	sp, #8
 8002ea4:	af00      	add	r7, sp, #0
  /* USER CODE END 1 */

  /* MCU Configuration--------------------------------------------------------*/

  /* Reset of all peripherals, Initializes the Flash interface and the Systick. */
  HAL_Init();
 8002ea6:	f000 fc87 	bl	80037b8 <HAL_Init>

  /* USER CODE BEGIN Init */
  /* USER CODE END Init */

  /* Configure the system clock */
  SystemClock_Config();
 8002eaa:	f000 f865 	bl	8002f78 <SystemClock_Config>

  /* USER CODE BEGIN SysInit */
  /* USER CODE END SysInit */

  /* Initialize all configured peripherals */
  MX_GPIO_Init();
 8002eae:	f7ff fe59 	bl	8002b64 <MX_GPIO_Init>
  MX_USART2_UART_Init();
 8002eb2:	f000 fbd9 	bl	8003668 <MX_USART2_UART_Init>
  MX_TIM2_Init();
 8002eb6:	f000 fa49 	bl	800334c <MX_TIM2_Init>
  MX_TIM6_Init();
 8002eba:	f000 fa9b 	bl	80033f4 <MX_TIM6_Init>
  MX_ADC_Init();
 8002ebe:	f7ff fdaf 	bl	8002a20 <MX_ADC_Init>
  /* USER CODE BEGIN 2 */
  RetargetInit(USART2);
 8002ec2:	4b25      	ldr	r3, [pc, #148]	@ (8002f58 <main+0xb8>)
 8002ec4:	0018      	movs	r0, r3
 8002ec6:	f000 f8c3 	bl	8003050 <RetargetInit>
  getchInit();
 8002eca:	f000 f9f9 	bl	80032c0 <getchInit>
  LL_USART_EnableIT_RXNE(USART2);
 8002ece:	4b22      	ldr	r3, [pc, #136]	@ (8002f58 <main+0xb8>)
 8002ed0:	0018      	movs	r0, r3
 8002ed2:	f7ff ffc5 	bl	8002e60 <LL_USART_EnableIT_RXNE>
  LL_SYSTICK_EnableIT();
 8002ed6:	f7ff ff8f 	bl	8002df8 <LL_SYSTICK_EnableIT>
  HAL_TIM_Base_Start(&htim6);
 8002eda:	4b20      	ldr	r3, [pc, #128]	@ (8002f5c <main+0xbc>)
 8002edc:	0018      	movs	r0, r3
 8002ede:	f001 fbc5 	bl	800466c <HAL_TIM_Base_Start>
  HAL_ADCEx_Calibration_Start(&hadc, ADC_SINGLE_ENDED);
 8002ee2:	4b1f      	ldr	r3, [pc, #124]	@ (8002f60 <main+0xc0>)
 8002ee4:	2100      	movs	r1, #0
 8002ee6:	0018      	movs	r0, r3
 8002ee8:	f001 f892 	bl	8004010 <HAL_ADCEx_Calibration_Start>

  printf("\r\n=== SYS3046 - Station Meteo ===\r\n");
 8002eec:	4b1d      	ldr	r3, [pc, #116]	@ (8002f64 <main+0xc4>)
 8002eee:	0018      	movs	r0, r3
 8002ef0:	f003 f800 	bl	8005ef4 <puts>
  printf("Commandes : 1=LED ON, 0=LED OFF, t=Tests, d=Duree 2s, b=Blink, c=Blink 5s, v=Tick, m=Meteo\r\n\r\n");
 8002ef4:	4b1c      	ldr	r3, [pc, #112]	@ (8002f68 <main+0xc8>)
 8002ef6:	0018      	movs	r0, r3
 8002ef8:	f002 fffc 	bl	8005ef4 <puts>
//	  printf("humidité : %f\r\n ", Humidity);
//	  printf("temperature : %f\r\n ", Temperature);


	  /* --- Lecture photorésistance PA1 --- */
	  HAL_ADC_Start(&hadc);
 8002efc:	4b18      	ldr	r3, [pc, #96]	@ (8002f60 <main+0xc0>)
 8002efe:	0018      	movs	r0, r3
 8002f00:	f000 fe62 	bl	8003bc8 <HAL_ADC_Start>
	  HAL_ADC_PollForConversion(&hadc, 100);
 8002f04:	4b16      	ldr	r3, [pc, #88]	@ (8002f60 <main+0xc0>)
 8002f06:	2164      	movs	r1, #100	@ 0x64
 8002f08:	0018      	movs	r0, r3
 8002f0a:	f000 feb1 	bl	8003c70 <HAL_ADC_PollForConversion>
	  uint32_t adc_val = HAL_ADC_GetValue(&hadc);
 8002f0e:	4b14      	ldr	r3, [pc, #80]	@ (8002f60 <main+0xc0>)
 8002f10:	0018      	movs	r0, r3
 8002f12:	f000 ff49 	bl	8003da8 <HAL_ADC_GetValue>
 8002f16:	0003      	movs	r3, r0
 8002f18:	607b      	str	r3, [r7, #4]
	  float tension = (adc_val / 4095.0f) * 3.3f;
 8002f1a:	6878      	ldr	r0, [r7, #4]
 8002f1c:	f7fd fd34 	bl	8000988 <__aeabi_ui2f>
 8002f20:	1c03      	adds	r3, r0, #0
 8002f22:	4912      	ldr	r1, [pc, #72]	@ (8002f6c <main+0xcc>)
 8002f24:	1c18      	adds	r0, r3, #0
 8002f26:	f7fd fabf 	bl	80004a8 <__aeabi_fdiv>
 8002f2a:	1c03      	adds	r3, r0, #0
 8002f2c:	4910      	ldr	r1, [pc, #64]	@ (8002f70 <main+0xd0>)
 8002f2e:	1c18      	adds	r0, r3, #0
 8002f30:	f7fd fbd0 	bl	80006d4 <__aeabi_fmul>
 8002f34:	1c03      	adds	r3, r0, #0
 8002f36:	603b      	str	r3, [r7, #0]

	  printf("Luminosite (ADC PA1) : %4lu  |  Tension : %.2f V\r\n", adc_val, tension);
 8002f38:	6838      	ldr	r0, [r7, #0]
 8002f3a:	f7ff fd0b 	bl	8002954 <__aeabi_f2d>
 8002f3e:	0002      	movs	r2, r0
 8002f40:	000b      	movs	r3, r1
 8002f42:	6879      	ldr	r1, [r7, #4]
 8002f44:	480b      	ldr	r0, [pc, #44]	@ (8002f74 <main+0xd4>)
 8002f46:	f002 ff6f 	bl	8005e28 <iprintf>
	  HAL_Delay(500);
 8002f4a:	23fa      	movs	r3, #250	@ 0xfa
 8002f4c:	005b      	lsls	r3, r3, #1
 8002f4e:	0018      	movs	r0, r3
 8002f50:	f000 fca2 	bl	8003898 <HAL_Delay>
  {
 8002f54:	46c0      	nop			@ (mov r8, r8)
 8002f56:	e7d1      	b.n	8002efc <main+0x5c>
 8002f58:	40004400 	.word	0x40004400
 8002f5c:	2000029c 	.word	0x2000029c
 8002f60:	200001f0 	.word	0x200001f0
 8002f64:	080080b8 	.word	0x080080b8
 8002f68:	080080dc 	.word	0x080080dc
 8002f6c:	457ff000 	.word	0x457ff000
 8002f70:	40533333 	.word	0x40533333
 8002f74:	0800813c 	.word	0x0800813c

08002f78 <SystemClock_Config>:
/**
  * @brief System Clock Configuration
  * @retval None
  */
void SystemClock_Config(void)
{
 8002f78:	b580      	push	{r7, lr}
 8002f7a:	af00      	add	r7, sp, #0
  LL_FLASH_SetLatency(LL_FLASH_LATENCY_0);
 8002f7c:	2000      	movs	r0, #0
 8002f7e:	f7ff ff1b 	bl	8002db8 <LL_FLASH_SetLatency>
  while(LL_FLASH_GetLatency()!= LL_FLASH_LATENCY_0)
 8002f82:	46c0      	nop			@ (mov r8, r8)
 8002f84:	f7ff ff2c 	bl	8002de0 <LL_FLASH_GetLatency>
 8002f88:	1e03      	subs	r3, r0, #0
 8002f8a:	d1fb      	bne.n	8002f84 <SystemClock_Config+0xc>
  {
  }
  LL_PWR_SetRegulVoltageScaling(LL_PWR_REGU_VOLTAGE_SCALE1);
 8002f8c:	2380      	movs	r3, #128	@ 0x80
 8002f8e:	011b      	lsls	r3, r3, #4
 8002f90:	0018      	movs	r0, r3
 8002f92:	f7ff ff3f 	bl	8002e14 <LL_PWR_SetRegulVoltageScaling>
  while (LL_PWR_IsActiveFlag_VOS() != 0)
 8002f96:	46c0      	nop			@ (mov r8, r8)
 8002f98:	f7ff ff52 	bl	8002e40 <LL_PWR_IsActiveFlag_VOS>
 8002f9c:	1e03      	subs	r3, r0, #0
 8002f9e:	d1fb      	bne.n	8002f98 <SystemClock_Config+0x20>
  {
  }
  LL_RCC_HSI_Enable();
 8002fa0:	f7ff fe5e 	bl	8002c60 <LL_RCC_HSI_Enable>

   /* Wait till HSI is ready */
  while(LL_RCC_HSI_IsReady() != 1)
 8002fa4:	46c0      	nop			@ (mov r8, r8)
 8002fa6:	f7ff fe69 	bl	8002c7c <LL_RCC_HSI_IsReady>
 8002faa:	0003      	movs	r3, r0
 8002fac:	2b01      	cmp	r3, #1
 8002fae:	d1fa      	bne.n	8002fa6 <SystemClock_Config+0x2e>
  {

  }
  LL_RCC_HSI_SetCalibTrimming(16);
 8002fb0:	2010      	movs	r0, #16
 8002fb2:	f7ff fe73 	bl	8002c9c <LL_RCC_HSI_SetCalibTrimming>
  LL_RCC_SetAHBPrescaler(LL_RCC_SYSCLK_DIV_1);
 8002fb6:	2000      	movs	r0, #0
 8002fb8:	f7ff fea6 	bl	8002d08 <LL_RCC_SetAHBPrescaler>
  LL_RCC_SetAPB1Prescaler(LL_RCC_APB1_DIV_1);
 8002fbc:	2000      	movs	r0, #0
 8002fbe:	f7ff feb7 	bl	8002d30 <LL_RCC_SetAPB1Prescaler>
  LL_RCC_SetAPB2Prescaler(LL_RCC_APB2_DIV_1);
 8002fc2:	2000      	movs	r0, #0
 8002fc4:	f7ff feca 	bl	8002d5c <LL_RCC_SetAPB2Prescaler>
  LL_RCC_SetSysClkSource(LL_RCC_SYS_CLKSOURCE_HSI);
 8002fc8:	2001      	movs	r0, #1
 8002fca:	f7ff fe7d 	bl	8002cc8 <LL_RCC_SetSysClkSource>

   /* Wait till System clock is ready */
  while(LL_RCC_GetSysClkSource() != LL_RCC_SYS_CLKSOURCE_STATUS_HSI)
 8002fce:	46c0      	nop			@ (mov r8, r8)
 8002fd0:	f7ff fe8e 	bl	8002cf0 <LL_RCC_GetSysClkSource>
 8002fd4:	0003      	movs	r3, r0
 8002fd6:	2b04      	cmp	r3, #4
 8002fd8:	d1fa      	bne.n	8002fd0 <SystemClock_Config+0x58>
  {

  }
  LL_SetSystemCoreClock(16000000);
 8002fda:	4b09      	ldr	r3, [pc, #36]	@ (8003000 <SystemClock_Config+0x88>)
 8002fdc:	0018      	movs	r0, r3
 8002fde:	f002 f9f1 	bl	80053c4 <LL_SetSystemCoreClock>

   /* Update the time base */
  if (HAL_InitTick (TICK_INT_PRIORITY) != HAL_OK)
 8002fe2:	2000      	movs	r0, #0
 8002fe4:	f000 fc08 	bl	80037f8 <HAL_InitTick>
 8002fe8:	1e03      	subs	r3, r0, #0
 8002fea:	d001      	beq.n	8002ff0 <SystemClock_Config+0x78>
  {
    Error_Handler();
 8002fec:	f000 f80a 	bl	8003004 <Error_Handler>
  }
  LL_RCC_SetUSARTClockSource(LL_RCC_USART2_CLKSOURCE_PCLK1);
 8002ff0:	23c0      	movs	r3, #192	@ 0xc0
 8002ff2:	031b      	lsls	r3, r3, #12
 8002ff4:	0018      	movs	r0, r3
 8002ff6:	f7ff fec7 	bl	8002d88 <LL_RCC_SetUSARTClockSource>
}
 8002ffa:	46c0      	nop			@ (mov r8, r8)
 8002ffc:	46bd      	mov	sp, r7
 8002ffe:	bd80      	pop	{r7, pc}
 8003000:	00f42400 	.word	0x00f42400

08003004 <Error_Handler>:
/**
  * @brief  This function is executed in case of error occurrence.
  * @retval None
  */
void Error_Handler(void)
{
 8003004:	b580      	push	{r7, lr}
 8003006:	af00      	add	r7, sp, #0
  __ASM volatile ("cpsid i" : : : "memory");
 8003008:	b672      	cpsid	i
}
 800300a:	46c0      	nop			@ (mov r8, r8)
  /* USER CODE BEGIN Error_Handler_Debug */
  __disable_irq();
  while (1) {}
 800300c:	46c0      	nop			@ (mov r8, r8)
 800300e:	e7fd      	b.n	800300c <Error_Handler+0x8>

08003010 <LL_USART_IsActiveFlag_TXE>:
{
 8003010:	b580      	push	{r7, lr}
 8003012:	b082      	sub	sp, #8
 8003014:	af00      	add	r7, sp, #0
 8003016:	6078      	str	r0, [r7, #4]
  return ((READ_BIT(USARTx->ISR, USART_ISR_TXE) == (USART_ISR_TXE)) ? 1UL : 0UL);
 8003018:	687b      	ldr	r3, [r7, #4]
 800301a:	69db      	ldr	r3, [r3, #28]
 800301c:	2280      	movs	r2, #128	@ 0x80
 800301e:	4013      	ands	r3, r2
 8003020:	2b80      	cmp	r3, #128	@ 0x80
 8003022:	d101      	bne.n	8003028 <LL_USART_IsActiveFlag_TXE+0x18>
 8003024:	2301      	movs	r3, #1
 8003026:	e000      	b.n	800302a <LL_USART_IsActiveFlag_TXE+0x1a>
 8003028:	2300      	movs	r3, #0
}
 800302a:	0018      	movs	r0, r3
 800302c:	46bd      	mov	sp, r7
 800302e:	b002      	add	sp, #8
 8003030:	bd80      	pop	{r7, pc}

08003032 <LL_USART_TransmitData8>:
  * @param  USARTx USART Instance
  * @param  Value between Min_Data=0x00 and Max_Data=0xFF
  * @retval None
  */
__STATIC_INLINE void LL_USART_TransmitData8(USART_TypeDef *USARTx, uint8_t Value)
{
 8003032:	b580      	push	{r7, lr}
 8003034:	b082      	sub	sp, #8
 8003036:	af00      	add	r7, sp, #0
 8003038:	6078      	str	r0, [r7, #4]
 800303a:	000a      	movs	r2, r1
 800303c:	1cfb      	adds	r3, r7, #3
 800303e:	701a      	strb	r2, [r3, #0]
  USARTx->TDR = Value;
 8003040:	1cfb      	adds	r3, r7, #3
 8003042:	781a      	ldrb	r2, [r3, #0]
 8003044:	687b      	ldr	r3, [r7, #4]
 8003046:	629a      	str	r2, [r3, #40]	@ 0x28
}
 8003048:	46c0      	nop			@ (mov r8, r8)
 800304a:	46bd      	mov	sp, r7
 800304c:	b002      	add	sp, #8
 800304e:	bd80      	pop	{r7, pc}

08003050 <RetargetInit>:
#define STDERR_FILENO 2

USART_TypeDef *gHuart;
extern  uint8_t g_rxCarUSART2;

void RetargetInit(USART_TypeDef *huart) {
 8003050:	b580      	push	{r7, lr}
 8003052:	b082      	sub	sp, #8
 8003054:	af00      	add	r7, sp, #0
 8003056:	6078      	str	r0, [r7, #4]
  gHuart = huart;
 8003058:	4b07      	ldr	r3, [pc, #28]	@ (8003078 <RetargetInit+0x28>)
 800305a:	687a      	ldr	r2, [r7, #4]
 800305c:	601a      	str	r2, [r3, #0]

  /* Disable I/O buffering for STDOUT stream, so that
   * chars are sent out as soon as they are printed. */
  setvbuf(stdout, NULL, _IONBF, 0);
 800305e:	4b07      	ldr	r3, [pc, #28]	@ (800307c <RetargetInit+0x2c>)
 8003060:	681b      	ldr	r3, [r3, #0]
 8003062:	6898      	ldr	r0, [r3, #8]
 8003064:	2300      	movs	r3, #0
 8003066:	2202      	movs	r2, #2
 8003068:	2100      	movs	r1, #0
 800306a:	f002 ff4d 	bl	8005f08 <setvbuf>
}
 800306e:	46c0      	nop			@ (mov r8, r8)
 8003070:	46bd      	mov	sp, r7
 8003072:	b002      	add	sp, #8
 8003074:	bd80      	pop	{r7, pc}
 8003076:	46c0      	nop			@ (mov r8, r8)
 8003078:	2000024c 	.word	0x2000024c
 800307c:	20000018 	.word	0x20000018

08003080 <_isatty>:

int _isatty(int fd) {
 8003080:	b580      	push	{r7, lr}
 8003082:	b082      	sub	sp, #8
 8003084:	af00      	add	r7, sp, #0
 8003086:	6078      	str	r0, [r7, #4]
  if (fd >= STDIN_FILENO && fd <= STDERR_FILENO)
 8003088:	687b      	ldr	r3, [r7, #4]
 800308a:	2b00      	cmp	r3, #0
 800308c:	db04      	blt.n	8003098 <_isatty+0x18>
 800308e:	687b      	ldr	r3, [r7, #4]
 8003090:	2b02      	cmp	r3, #2
 8003092:	dc01      	bgt.n	8003098 <_isatty+0x18>
    return 1;
 8003094:	2301      	movs	r3, #1
 8003096:	e005      	b.n	80030a4 <_isatty+0x24>

  errno = EBADF;
 8003098:	f003 f932 	bl	8006300 <__errno>
 800309c:	0003      	movs	r3, r0
 800309e:	2209      	movs	r2, #9
 80030a0:	601a      	str	r2, [r3, #0]
  return 0;
 80030a2:	2300      	movs	r3, #0
}
 80030a4:	0018      	movs	r0, r3
 80030a6:	46bd      	mov	sp, r7
 80030a8:	b002      	add	sp, #8
 80030aa:	bd80      	pop	{r7, pc}

080030ac <_write>:

int _write(int fd, char* ptr, int len) {
 80030ac:	b580      	push	{r7, lr}
 80030ae:	b086      	sub	sp, #24
 80030b0:	af00      	add	r7, sp, #0
 80030b2:	60f8      	str	r0, [r7, #12]
 80030b4:	60b9      	str	r1, [r7, #8]
 80030b6:	607a      	str	r2, [r7, #4]

  if (fd == STDOUT_FILENO || fd == STDERR_FILENO) {
 80030b8:	68fb      	ldr	r3, [r7, #12]
 80030ba:	2b01      	cmp	r3, #1
 80030bc:	d002      	beq.n	80030c4 <_write+0x18>
 80030be:	68fb      	ldr	r3, [r7, #12]
 80030c0:	2b02      	cmp	r3, #2
 80030c2:	d11c      	bne.n	80030fe <_write+0x52>
      for (int i=0; i<len;i++)
 80030c4:	2300      	movs	r3, #0
 80030c6:	617b      	str	r3, [r7, #20]
 80030c8:	e013      	b.n	80030f2 <_write+0x46>
      {
        while(LL_USART_IsActiveFlag_TXE(USART2)==0);
 80030ca:	46c0      	nop			@ (mov r8, r8)
 80030cc:	4b11      	ldr	r3, [pc, #68]	@ (8003114 <_write+0x68>)
 80030ce:	0018      	movs	r0, r3
 80030d0:	f7ff ff9e 	bl	8003010 <LL_USART_IsActiveFlag_TXE>
 80030d4:	1e03      	subs	r3, r0, #0
 80030d6:	d0f9      	beq.n	80030cc <_write+0x20>
        LL_USART_TransmitData8(USART2,*ptr);
 80030d8:	68bb      	ldr	r3, [r7, #8]
 80030da:	781b      	ldrb	r3, [r3, #0]
 80030dc:	4a0d      	ldr	r2, [pc, #52]	@ (8003114 <_write+0x68>)
 80030de:	0019      	movs	r1, r3
 80030e0:	0010      	movs	r0, r2
 80030e2:	f7ff ffa6 	bl	8003032 <LL_USART_TransmitData8>
        ptr++;
 80030e6:	68bb      	ldr	r3, [r7, #8]
 80030e8:	3301      	adds	r3, #1
 80030ea:	60bb      	str	r3, [r7, #8]
      for (int i=0; i<len;i++)
 80030ec:	697b      	ldr	r3, [r7, #20]
 80030ee:	3301      	adds	r3, #1
 80030f0:	617b      	str	r3, [r7, #20]
 80030f2:	697a      	ldr	r2, [r7, #20]
 80030f4:	687b      	ldr	r3, [r7, #4]
 80030f6:	429a      	cmp	r2, r3
 80030f8:	dbe7      	blt.n	80030ca <_write+0x1e>
      }
    return len;
 80030fa:	687b      	ldr	r3, [r7, #4]
 80030fc:	e006      	b.n	800310c <_write+0x60>
  }
  errno = EBADF;
 80030fe:	f003 f8ff 	bl	8006300 <__errno>
 8003102:	0003      	movs	r3, r0
 8003104:	2209      	movs	r2, #9
 8003106:	601a      	str	r2, [r3, #0]
  return -1;
 8003108:	2301      	movs	r3, #1
 800310a:	425b      	negs	r3, r3
}
 800310c:	0018      	movs	r0, r3
 800310e:	46bd      	mov	sp, r7
 8003110:	b006      	add	sp, #24
 8003112:	bd80      	pop	{r7, pc}
 8003114:	40004400 	.word	0x40004400

08003118 <_close>:

int _close(int fd) {
 8003118:	b580      	push	{r7, lr}
 800311a:	b082      	sub	sp, #8
 800311c:	af00      	add	r7, sp, #0
 800311e:	6078      	str	r0, [r7, #4]
  if (fd >= STDIN_FILENO && fd <= STDERR_FILENO)
 8003120:	687b      	ldr	r3, [r7, #4]
 8003122:	2b00      	cmp	r3, #0
 8003124:	db04      	blt.n	8003130 <_close+0x18>
 8003126:	687b      	ldr	r3, [r7, #4]
 8003128:	2b02      	cmp	r3, #2
 800312a:	dc01      	bgt.n	8003130 <_close+0x18>
    return 0;
 800312c:	2300      	movs	r3, #0
 800312e:	e006      	b.n	800313e <_close+0x26>

  errno = EBADF;
 8003130:	f003 f8e6 	bl	8006300 <__errno>
 8003134:	0003      	movs	r3, r0
 8003136:	2209      	movs	r2, #9
 8003138:	601a      	str	r2, [r3, #0]
  return -1;
 800313a:	2301      	movs	r3, #1
 800313c:	425b      	negs	r3, r3
}
 800313e:	0018      	movs	r0, r3
 8003140:	46bd      	mov	sp, r7
 8003142:	b002      	add	sp, #8
 8003144:	bd80      	pop	{r7, pc}

08003146 <_lseek>:

int _lseek(int fd, int ptr, int dir) {
 8003146:	b580      	push	{r7, lr}
 8003148:	b084      	sub	sp, #16
 800314a:	af00      	add	r7, sp, #0
 800314c:	60f8      	str	r0, [r7, #12]
 800314e:	60b9      	str	r1, [r7, #8]
 8003150:	607a      	str	r2, [r7, #4]
  (void) fd;
  (void) ptr;
  (void) dir;

  errno = EBADF;
 8003152:	f003 f8d5 	bl	8006300 <__errno>
 8003156:	0003      	movs	r3, r0
 8003158:	2209      	movs	r2, #9
 800315a:	601a      	str	r2, [r3, #0]
  return -1;
 800315c:	2301      	movs	r3, #1
 800315e:	425b      	negs	r3, r3
}
 8003160:	0018      	movs	r0, r3
 8003162:	46bd      	mov	sp, r7
 8003164:	b004      	add	sp, #16
 8003166:	bd80      	pop	{r7, pc}

08003168 <_read>:

int _read(int fd, char* ptr, int len) {
 8003168:	b580      	push	{r7, lr}
 800316a:	b084      	sub	sp, #16
 800316c:	af00      	add	r7, sp, #0
 800316e:	60f8      	str	r0, [r7, #12]
 8003170:	60b9      	str	r1, [r7, #8]
 8003172:	607a      	str	r2, [r7, #4]

  if (fd == STDIN_FILENO) {
 8003174:	68fb      	ldr	r3, [r7, #12]
 8003176:	2b00      	cmp	r3, #0
 8003178:	d111      	bne.n	800319e <_read+0x36>
      do
      {
    	if (g_rxCarUSART2==255)
 800317a:	4b0e      	ldr	r3, [pc, #56]	@ (80031b4 <_read+0x4c>)
 800317c:	781b      	ldrb	r3, [r3, #0]
 800317e:	2bff      	cmp	r3, #255	@ 0xff
 8003180:	d100      	bne.n	8003184 <_read+0x1c>
    	{
    	  __WFI(); //wait for interrupt (for a key ==> data RX)
 8003182:	bf30      	wfi
    	}
      }
      while(g_rxCarUSART2==255); //while no char received
 8003184:	4b0b      	ldr	r3, [pc, #44]	@ (80031b4 <_read+0x4c>)
 8003186:	781b      	ldrb	r3, [r3, #0]
 8003188:	2bff      	cmp	r3, #255	@ 0xff
 800318a:	d0f6      	beq.n	800317a <_read+0x12>
      *ptr=g_rxCarUSART2;  //save received data
 800318c:	4b09      	ldr	r3, [pc, #36]	@ (80031b4 <_read+0x4c>)
 800318e:	781a      	ldrb	r2, [r3, #0]
 8003190:	68bb      	ldr	r3, [r7, #8]
 8003192:	701a      	strb	r2, [r3, #0]
      g_rxCarUSART2=255; //clear char received
 8003194:	4b07      	ldr	r3, [pc, #28]	@ (80031b4 <_read+0x4c>)
 8003196:	22ff      	movs	r2, #255	@ 0xff
 8003198:	701a      	strb	r2, [r3, #0]
      return 1;
 800319a:	2301      	movs	r3, #1
 800319c:	e006      	b.n	80031ac <_read+0x44>
  }
  errno = EBADF;
 800319e:	f003 f8af 	bl	8006300 <__errno>
 80031a2:	0003      	movs	r3, r0
 80031a4:	2209      	movs	r2, #9
 80031a6:	601a      	str	r2, [r3, #0]
  return -1;
 80031a8:	2301      	movs	r3, #1
 80031aa:	425b      	negs	r3, r3
}
 80031ac:	0018      	movs	r0, r3
 80031ae:	46bd      	mov	sp, r7
 80031b0:	b004      	add	sp, #16
 80031b2:	bd80      	pop	{r7, pc}
 80031b4:	20000250 	.word	0x20000250

080031b8 <_fstat>:

int _fstat(int fd, struct stat* st) {
 80031b8:	b580      	push	{r7, lr}
 80031ba:	b082      	sub	sp, #8
 80031bc:	af00      	add	r7, sp, #0
 80031be:	6078      	str	r0, [r7, #4]
 80031c0:	6039      	str	r1, [r7, #0]
  if (fd >= STDIN_FILENO && fd <= STDERR_FILENO) {
 80031c2:	687b      	ldr	r3, [r7, #4]
 80031c4:	2b00      	cmp	r3, #0
 80031c6:	db08      	blt.n	80031da <_fstat+0x22>
 80031c8:	687b      	ldr	r3, [r7, #4]
 80031ca:	2b02      	cmp	r3, #2
 80031cc:	dc05      	bgt.n	80031da <_fstat+0x22>
    st->st_mode = S_IFCHR;
 80031ce:	683b      	ldr	r3, [r7, #0]
 80031d0:	2280      	movs	r2, #128	@ 0x80
 80031d2:	0192      	lsls	r2, r2, #6
 80031d4:	605a      	str	r2, [r3, #4]
    return 0;
 80031d6:	2300      	movs	r3, #0
 80031d8:	e005      	b.n	80031e6 <_fstat+0x2e>
  }

  errno = EBADF;
 80031da:	f003 f891 	bl	8006300 <__errno>
 80031de:	0003      	movs	r3, r0
 80031e0:	2209      	movs	r2, #9
 80031e2:	601a      	str	r2, [r3, #0]
  return 0;
 80031e4:	2300      	movs	r3, #0
}
 80031e6:	0018      	movs	r0, r3
 80031e8:	46bd      	mov	sp, r7
 80031ea:	b002      	add	sp, #8
 80031ec:	bd80      	pop	{r7, pc}
	...

080031f0 <HAL_MspInit>:
/* USER CODE END 0 */
/**
  * Initializes the Global MSP.
  */
void HAL_MspInit(void)
{
 80031f0:	b580      	push	{r7, lr}
 80031f2:	af00      	add	r7, sp, #0

  /* USER CODE BEGIN MspInit 0 */

  /* USER CODE END MspInit 0 */

  __HAL_RCC_SYSCFG_CLK_ENABLE();
 80031f4:	4b07      	ldr	r3, [pc, #28]	@ (8003214 <HAL_MspInit+0x24>)
 80031f6:	6b5a      	ldr	r2, [r3, #52]	@ 0x34
 80031f8:	4b06      	ldr	r3, [pc, #24]	@ (8003214 <HAL_MspInit+0x24>)
 80031fa:	2101      	movs	r1, #1
 80031fc:	430a      	orrs	r2, r1
 80031fe:	635a      	str	r2, [r3, #52]	@ 0x34
  __HAL_RCC_PWR_CLK_ENABLE();
 8003200:	4b04      	ldr	r3, [pc, #16]	@ (8003214 <HAL_MspInit+0x24>)
 8003202:	6b9a      	ldr	r2, [r3, #56]	@ 0x38
 8003204:	4b03      	ldr	r3, [pc, #12]	@ (8003214 <HAL_MspInit+0x24>)
 8003206:	2180      	movs	r1, #128	@ 0x80
 8003208:	0549      	lsls	r1, r1, #21
 800320a:	430a      	orrs	r2, r1
 800320c:	639a      	str	r2, [r3, #56]	@ 0x38
  /* System interrupt init*/

  /* USER CODE BEGIN MspInit 1 */

  /* USER CODE END MspInit 1 */
}
 800320e:	46c0      	nop			@ (mov r8, r8)
 8003210:	46bd      	mov	sp, r7
 8003212:	bd80      	pop	{r7, pc}
 8003214:	40021000 	.word	0x40021000

08003218 <LL_USART_IsActiveFlag_RXNE>:
{
 8003218:	b580      	push	{r7, lr}
 800321a:	b082      	sub	sp, #8
 800321c:	af00      	add	r7, sp, #0
 800321e:	6078      	str	r0, [r7, #4]
  return ((READ_BIT(USARTx->ISR, USART_ISR_RXNE) == (USART_ISR_RXNE)) ? 1UL : 0UL);
 8003220:	687b      	ldr	r3, [r7, #4]
 8003222:	69db      	ldr	r3, [r3, #28]
 8003224:	2220      	movs	r2, #32
 8003226:	4013      	ands	r3, r2
 8003228:	2b20      	cmp	r3, #32
 800322a:	d101      	bne.n	8003230 <LL_USART_IsActiveFlag_RXNE+0x18>
 800322c:	2301      	movs	r3, #1
 800322e:	e000      	b.n	8003232 <LL_USART_IsActiveFlag_RXNE+0x1a>
 8003230:	2300      	movs	r3, #0
}
 8003232:	0018      	movs	r0, r3
 8003234:	46bd      	mov	sp, r7
 8003236:	b002      	add	sp, #8
 8003238:	bd80      	pop	{r7, pc}

0800323a <LL_USART_ReceiveData8>:
{
 800323a:	b580      	push	{r7, lr}
 800323c:	b082      	sub	sp, #8
 800323e:	af00      	add	r7, sp, #0
 8003240:	6078      	str	r0, [r7, #4]
  return (uint8_t)(READ_BIT(USARTx->RDR, USART_RDR_RDR) & 0xFFU);
 8003242:	687b      	ldr	r3, [r7, #4]
 8003244:	6a5b      	ldr	r3, [r3, #36]	@ 0x24
 8003246:	b2db      	uxtb	r3, r3
}
 8003248:	0018      	movs	r0, r3
 800324a:	46bd      	mov	sp, r7
 800324c:	b002      	add	sp, #8
 800324e:	bd80      	pop	{r7, pc}

08003250 <NMI_Handler>:
/******************************************************************************/
/**
  * @brief This function handles Non maskable Interrupt.
  */
void NMI_Handler(void)
{
 8003250:	b580      	push	{r7, lr}
 8003252:	af00      	add	r7, sp, #0
  /* USER CODE BEGIN NonMaskableInt_IRQn 0 */

  /* USER CODE END NonMaskableInt_IRQn 0 */
  /* USER CODE BEGIN NonMaskableInt_IRQn 1 */
  while (1)
 8003254:	46c0      	nop			@ (mov r8, r8)
 8003256:	e7fd      	b.n	8003254 <NMI_Handler+0x4>

08003258 <HardFault_Handler>:

/**
  * @brief This function handles Hard fault interrupt.
  */
void HardFault_Handler(void)
{
 8003258:	b580      	push	{r7, lr}
 800325a:	af00      	add	r7, sp, #0
  /* USER CODE BEGIN HardFault_IRQn 0 */

  /* USER CODE END HardFault_IRQn 0 */
  while (1)
 800325c:	46c0      	nop			@ (mov r8, r8)
 800325e:	e7fd      	b.n	800325c <HardFault_Handler+0x4>

08003260 <SVC_Handler>:

/**
  * @brief This function handles System service call via SWI instruction.
  */
void SVC_Handler(void)
{
 8003260:	b580      	push	{r7, lr}
 8003262:	af00      	add	r7, sp, #0

  /* USER CODE END SVC_IRQn 0 */
  /* USER CODE BEGIN SVC_IRQn 1 */

  /* USER CODE END SVC_IRQn 1 */
}
 8003264:	46c0      	nop			@ (mov r8, r8)
 8003266:	46bd      	mov	sp, r7
 8003268:	bd80      	pop	{r7, pc}

0800326a <PendSV_Handler>:

/**
  * @brief This function handles Pendable request for system service.
  */
void PendSV_Handler(void)
{
 800326a:	b580      	push	{r7, lr}
 800326c:	af00      	add	r7, sp, #0

  /* USER CODE END PendSV_IRQn 0 */
  /* USER CODE BEGIN PendSV_IRQn 1 */

  /* USER CODE END PendSV_IRQn 1 */
}
 800326e:	46c0      	nop			@ (mov r8, r8)
 8003270:	46bd      	mov	sp, r7
 8003272:	bd80      	pop	{r7, pc}

08003274 <SysTick_Handler>:

/**
  * @brief This function handles System tick timer.
  */
void SysTick_Handler(void)
{
 8003274:	b580      	push	{r7, lr}
 8003276:	af00      	add	r7, sp, #0
  /* USER CODE BEGIN SysTick_IRQn 0 */
	get_tick++;
 8003278:	4b04      	ldr	r3, [pc, #16]	@ (800328c <SysTick_Handler+0x18>)
 800327a:	681b      	ldr	r3, [r3, #0]
 800327c:	1c5a      	adds	r2, r3, #1
 800327e:	4b03      	ldr	r3, [pc, #12]	@ (800328c <SysTick_Handler+0x18>)
 8003280:	601a      	str	r2, [r3, #0]
  /* USER CODE END SysTick_IRQn 0 */
  HAL_IncTick();
 8003282:	f000 faed 	bl	8003860 <HAL_IncTick>
  /* USER CODE BEGIN SysTick_IRQn 1 */

  /* USER CODE END SysTick_IRQn 1 */
}
 8003286:	46c0      	nop			@ (mov r8, r8)
 8003288:	46bd      	mov	sp, r7
 800328a:	bd80      	pop	{r7, pc}
 800328c:	20000254 	.word	0x20000254

08003290 <USART2_IRQHandler>:

/**
  * @brief This function handles USART2 global interrupt / USART2 wake-up interrupt through EXTI line 26.
  */
void USART2_IRQHandler(void)
{
 8003290:	b580      	push	{r7, lr}
 8003292:	af00      	add	r7, sp, #0
  /* USER CODE BEGIN USART2_IRQn 0 */
  if (LL_USART_IsActiveFlag_RXNE(USART2))
 8003294:	4b08      	ldr	r3, [pc, #32]	@ (80032b8 <USART2_IRQHandler+0x28>)
 8003296:	0018      	movs	r0, r3
 8003298:	f7ff ffbe 	bl	8003218 <LL_USART_IsActiveFlag_RXNE>
 800329c:	1e03      	subs	r3, r0, #0
 800329e:	d007      	beq.n	80032b0 <USART2_IRQHandler+0x20>
  {
    g_rxCarUSART2=LL_USART_ReceiveData8(USART2);
 80032a0:	4b05      	ldr	r3, [pc, #20]	@ (80032b8 <USART2_IRQHandler+0x28>)
 80032a2:	0018      	movs	r0, r3
 80032a4:	f7ff ffc9 	bl	800323a <LL_USART_ReceiveData8>
 80032a8:	0003      	movs	r3, r0
 80032aa:	001a      	movs	r2, r3
 80032ac:	4b03      	ldr	r3, [pc, #12]	@ (80032bc <USART2_IRQHandler+0x2c>)
 80032ae:	701a      	strb	r2, [r3, #0]
  }
  /* USER CODE END USART2_IRQn 0 */
  /* USER CODE BEGIN USART2_IRQn 1 */

  /* USER CODE END USART2_IRQn 1 */
}
 80032b0:	46c0      	nop			@ (mov r8, r8)
 80032b2:	46bd      	mov	sp, r7
 80032b4:	bd80      	pop	{r7, pc}
 80032b6:	46c0      	nop			@ (mov r8, r8)
 80032b8:	40004400 	.word	0x40004400
 80032bc:	20000250 	.word	0x20000250

080032c0 <getchInit>:

/* USER CODE BEGIN 1 */
void getchInit(void)
{
 80032c0:	b580      	push	{r7, lr}
 80032c2:	af00      	add	r7, sp, #0
	g_rxCarUSART2=255; //no char received
 80032c4:	4b02      	ldr	r3, [pc, #8]	@ (80032d0 <getchInit+0x10>)
 80032c6:	22ff      	movs	r2, #255	@ 0xff
 80032c8:	701a      	strb	r2, [r3, #0]
}
 80032ca:	46c0      	nop			@ (mov r8, r8)
 80032cc:	46bd      	mov	sp, r7
 80032ce:	bd80      	pop	{r7, pc}
 80032d0:	20000250 	.word	0x20000250

080032d4 <_sbrk>:
 *
 * @param incr Memory size
 * @return Pointer to allocated memory
 */
void *_sbrk(ptrdiff_t incr)
{
 80032d4:	b580      	push	{r7, lr}
 80032d6:	b086      	sub	sp, #24
 80032d8:	af00      	add	r7, sp, #0
 80032da:	6078      	str	r0, [r7, #4]
  extern uint8_t _end; /* Symbol defined in the linker script */
  extern uint8_t _estack; /* Symbol defined in the linker script */
  extern uint32_t _Min_Stack_Size; /* Symbol defined in the linker script */
  const uint32_t stack_limit = (uint32_t)&_estack - (uint32_t)&_Min_Stack_Size;
 80032dc:	4a14      	ldr	r2, [pc, #80]	@ (8003330 <_sbrk+0x5c>)
 80032de:	4b15      	ldr	r3, [pc, #84]	@ (8003334 <_sbrk+0x60>)
 80032e0:	1ad3      	subs	r3, r2, r3
 80032e2:	617b      	str	r3, [r7, #20]
  const uint8_t *max_heap = (uint8_t *)stack_limit;
 80032e4:	697b      	ldr	r3, [r7, #20]
 80032e6:	613b      	str	r3, [r7, #16]
  uint8_t *prev_heap_end;

  /* Initialize heap end at first call */
  if (NULL == __sbrk_heap_end)
 80032e8:	4b13      	ldr	r3, [pc, #76]	@ (8003338 <_sbrk+0x64>)
 80032ea:	681b      	ldr	r3, [r3, #0]
 80032ec:	2b00      	cmp	r3, #0
 80032ee:	d102      	bne.n	80032f6 <_sbrk+0x22>
  {
    __sbrk_heap_end = &_end;
 80032f0:	4b11      	ldr	r3, [pc, #68]	@ (8003338 <_sbrk+0x64>)
 80032f2:	4a12      	ldr	r2, [pc, #72]	@ (800333c <_sbrk+0x68>)
 80032f4:	601a      	str	r2, [r3, #0]
  }

  /* Protect heap from growing into the reserved MSP stack */
  if (__sbrk_heap_end + incr > max_heap)
 80032f6:	4b10      	ldr	r3, [pc, #64]	@ (8003338 <_sbrk+0x64>)
 80032f8:	681a      	ldr	r2, [r3, #0]
 80032fa:	687b      	ldr	r3, [r7, #4]
 80032fc:	18d3      	adds	r3, r2, r3
 80032fe:	693a      	ldr	r2, [r7, #16]
 8003300:	429a      	cmp	r2, r3
 8003302:	d207      	bcs.n	8003314 <_sbrk+0x40>
  {
    errno = ENOMEM;
 8003304:	f002 fffc 	bl	8006300 <__errno>
 8003308:	0003      	movs	r3, r0
 800330a:	220c      	movs	r2, #12
 800330c:	601a      	str	r2, [r3, #0]
    return (void *)-1;
 800330e:	2301      	movs	r3, #1
 8003310:	425b      	negs	r3, r3
 8003312:	e009      	b.n	8003328 <_sbrk+0x54>
  }

  prev_heap_end = __sbrk_heap_end;
 8003314:	4b08      	ldr	r3, [pc, #32]	@ (8003338 <_sbrk+0x64>)
 8003316:	681b      	ldr	r3, [r3, #0]
 8003318:	60fb      	str	r3, [r7, #12]
  __sbrk_heap_end += incr;
 800331a:	4b07      	ldr	r3, [pc, #28]	@ (8003338 <_sbrk+0x64>)
 800331c:	681a      	ldr	r2, [r3, #0]
 800331e:	687b      	ldr	r3, [r7, #4]
 8003320:	18d2      	adds	r2, r2, r3
 8003322:	4b05      	ldr	r3, [pc, #20]	@ (8003338 <_sbrk+0x64>)
 8003324:	601a      	str	r2, [r3, #0]

  return (void *)prev_heap_end;
 8003326:	68fb      	ldr	r3, [r7, #12]
}
 8003328:	0018      	movs	r0, r3
 800332a:	46bd      	mov	sp, r7
 800332c:	b006      	add	sp, #24
 800332e:	bd80      	pop	{r7, pc}
 8003330:	20005000 	.word	0x20005000
 8003334:	00000400 	.word	0x00000400
 8003338:	20000258 	.word	0x20000258
 800333c:	20000430 	.word	0x20000430

08003340 <SystemInit>:
  * @brief  Setup the microcontroller system.
  * @param  None
  * @retval None
  */
void SystemInit (void)
{
 8003340:	b580      	push	{r7, lr}
 8003342:	af00      	add	r7, sp, #0
  /* Configure the Vector Table location add offset address ------------------*/
#if defined (USER_VECT_TAB_ADDRESS)
  SCB->VTOR = VECT_TAB_BASE_ADDRESS | VECT_TAB_OFFSET; /* Vector Table Relocation in Internal SRAM */
#endif /* USER_VECT_TAB_ADDRESS */
}
 8003344:	46c0      	nop			@ (mov r8, r8)
 8003346:	46bd      	mov	sp, r7
 8003348:	bd80      	pop	{r7, pc}
	...

0800334c <MX_TIM2_Init>:
TIM_HandleTypeDef htim2;
TIM_HandleTypeDef htim6;

/* TIM2 init function */
void MX_TIM2_Init(void)
{
 800334c:	b580      	push	{r7, lr}
 800334e:	b086      	sub	sp, #24
 8003350:	af00      	add	r7, sp, #0

  /* USER CODE BEGIN TIM2_Init 0 */

  /* USER CODE END TIM2_Init 0 */

  TIM_ClockConfigTypeDef sClockSourceConfig = {0};
 8003352:	2308      	movs	r3, #8
 8003354:	18fb      	adds	r3, r7, r3
 8003356:	0018      	movs	r0, r3
 8003358:	2310      	movs	r3, #16
 800335a:	001a      	movs	r2, r3
 800335c:	2100      	movs	r1, #0
 800335e:	f002 ff75 	bl	800624c <memset>
  TIM_MasterConfigTypeDef sMasterConfig = {0};
 8003362:	003b      	movs	r3, r7
 8003364:	0018      	movs	r0, r3
 8003366:	2308      	movs	r3, #8
 8003368:	001a      	movs	r2, r3
 800336a:	2100      	movs	r1, #0
 800336c:	f002 ff6e 	bl	800624c <memset>

  /* USER CODE BEGIN TIM2_Init 1 */

  /* USER CODE END TIM2_Init 1 */
  htim2.Instance = TIM2;
 8003370:	4b1e      	ldr	r3, [pc, #120]	@ (80033ec <MX_TIM2_Init+0xa0>)
 8003372:	2280      	movs	r2, #128	@ 0x80
 8003374:	05d2      	lsls	r2, r2, #23
 8003376:	601a      	str	r2, [r3, #0]
  htim2.Init.Prescaler = 15;
 8003378:	4b1c      	ldr	r3, [pc, #112]	@ (80033ec <MX_TIM2_Init+0xa0>)
 800337a:	220f      	movs	r2, #15
 800337c:	605a      	str	r2, [r3, #4]
  htim2.Init.CounterMode = TIM_COUNTERMODE_UP;
 800337e:	4b1b      	ldr	r3, [pc, #108]	@ (80033ec <MX_TIM2_Init+0xa0>)
 8003380:	2200      	movs	r2, #0
 8003382:	609a      	str	r2, [r3, #8]
  htim2.Init.Period = 65535;
 8003384:	4b19      	ldr	r3, [pc, #100]	@ (80033ec <MX_TIM2_Init+0xa0>)
 8003386:	4a1a      	ldr	r2, [pc, #104]	@ (80033f0 <MX_TIM2_Init+0xa4>)
 8003388:	60da      	str	r2, [r3, #12]
  htim2.Init.ClockDivision = TIM_CLOCKDIVISION_DIV1;
 800338a:	4b18      	ldr	r3, [pc, #96]	@ (80033ec <MX_TIM2_Init+0xa0>)
 800338c:	2200      	movs	r2, #0
 800338e:	611a      	str	r2, [r3, #16]
  htim2.Init.AutoReloadPreload = TIM_AUTORELOAD_PRELOAD_DISABLE;
 8003390:	4b16      	ldr	r3, [pc, #88]	@ (80033ec <MX_TIM2_Init+0xa0>)
 8003392:	2200      	movs	r2, #0
 8003394:	615a      	str	r2, [r3, #20]
  if (HAL_TIM_Base_Init(&htim2) != HAL_OK)
 8003396:	4b15      	ldr	r3, [pc, #84]	@ (80033ec <MX_TIM2_Init+0xa0>)
 8003398:	0018      	movs	r0, r3
 800339a:	f001 f926 	bl	80045ea <HAL_TIM_Base_Init>
 800339e:	1e03      	subs	r3, r0, #0
 80033a0:	d001      	beq.n	80033a6 <MX_TIM2_Init+0x5a>
  {
    Error_Handler();
 80033a2:	f7ff fe2f 	bl	8003004 <Error_Handler>
  }
  sClockSourceConfig.ClockSource = TIM_CLOCKSOURCE_INTERNAL;
 80033a6:	2108      	movs	r1, #8
 80033a8:	187b      	adds	r3, r7, r1
 80033aa:	2280      	movs	r2, #128	@ 0x80
 80033ac:	0152      	lsls	r2, r2, #5
 80033ae:	601a      	str	r2, [r3, #0]
  if (HAL_TIM_ConfigClockSource(&htim2, &sClockSourceConfig) != HAL_OK)
 80033b0:	187a      	adds	r2, r7, r1
 80033b2:	4b0e      	ldr	r3, [pc, #56]	@ (80033ec <MX_TIM2_Init+0xa0>)
 80033b4:	0011      	movs	r1, r2
 80033b6:	0018      	movs	r0, r3
 80033b8:	f001 f9a2 	bl	8004700 <HAL_TIM_ConfigClockSource>
 80033bc:	1e03      	subs	r3, r0, #0
 80033be:	d001      	beq.n	80033c4 <MX_TIM2_Init+0x78>
  {
    Error_Handler();
 80033c0:	f7ff fe20 	bl	8003004 <Error_Handler>
  }
  sMasterConfig.MasterOutputTrigger = TIM_TRGO_RESET;
 80033c4:	003b      	movs	r3, r7
 80033c6:	2200      	movs	r2, #0
 80033c8:	601a      	str	r2, [r3, #0]
  sMasterConfig.MasterSlaveMode = TIM_MASTERSLAVEMODE_DISABLE;
 80033ca:	003b      	movs	r3, r7
 80033cc:	2200      	movs	r2, #0
 80033ce:	605a      	str	r2, [r3, #4]
  if (HAL_TIMEx_MasterConfigSynchronization(&htim2, &sMasterConfig) != HAL_OK)
 80033d0:	003a      	movs	r2, r7
 80033d2:	4b06      	ldr	r3, [pc, #24]	@ (80033ec <MX_TIM2_Init+0xa0>)
 80033d4:	0011      	movs	r1, r2
 80033d6:	0018      	movs	r0, r3
 80033d8:	f001 fb64 	bl	8004aa4 <HAL_TIMEx_MasterConfigSynchronization>
 80033dc:	1e03      	subs	r3, r0, #0
 80033de:	d001      	beq.n	80033e4 <MX_TIM2_Init+0x98>
  {
    Error_Handler();
 80033e0:	f7ff fe10 	bl	8003004 <Error_Handler>
  }
  /* USER CODE BEGIN TIM2_Init 2 */

  /* USER CODE END TIM2_Init 2 */

}
 80033e4:	46c0      	nop			@ (mov r8, r8)
 80033e6:	46bd      	mov	sp, r7
 80033e8:	b006      	add	sp, #24
 80033ea:	bd80      	pop	{r7, pc}
 80033ec:	2000025c 	.word	0x2000025c
 80033f0:	0000ffff 	.word	0x0000ffff

080033f4 <MX_TIM6_Init>:
/* TIM6 init function */
void MX_TIM6_Init(void)
{
 80033f4:	b580      	push	{r7, lr}
 80033f6:	b082      	sub	sp, #8
 80033f8:	af00      	add	r7, sp, #0

  /* USER CODE BEGIN TIM6_Init 0 */

  /* USER CODE END TIM6_Init 0 */

  TIM_MasterConfigTypeDef sMasterConfig = {0};
 80033fa:	003b      	movs	r3, r7
 80033fc:	0018      	movs	r0, r3
 80033fe:	2308      	movs	r3, #8
 8003400:	001a      	movs	r2, r3
 8003402:	2100      	movs	r1, #0
 8003404:	f002 ff22 	bl	800624c <memset>

  /* USER CODE BEGIN TIM6_Init 1 */

  /* USER CODE END TIM6_Init 1 */
  htim6.Instance = TIM6;
 8003408:	4b15      	ldr	r3, [pc, #84]	@ (8003460 <MX_TIM6_Init+0x6c>)
 800340a:	4a16      	ldr	r2, [pc, #88]	@ (8003464 <MX_TIM6_Init+0x70>)
 800340c:	601a      	str	r2, [r3, #0]
  htim6.Init.Prescaler = 15;
 800340e:	4b14      	ldr	r3, [pc, #80]	@ (8003460 <MX_TIM6_Init+0x6c>)
 8003410:	220f      	movs	r2, #15
 8003412:	605a      	str	r2, [r3, #4]
  htim6.Init.CounterMode = TIM_COUNTERMODE_UP;
 8003414:	4b12      	ldr	r3, [pc, #72]	@ (8003460 <MX_TIM6_Init+0x6c>)
 8003416:	2200      	movs	r2, #0
 8003418:	609a      	str	r2, [r3, #8]
  htim6.Init.Period = 65535;
 800341a:	4b11      	ldr	r3, [pc, #68]	@ (8003460 <MX_TIM6_Init+0x6c>)
 800341c:	4a12      	ldr	r2, [pc, #72]	@ (8003468 <MX_TIM6_Init+0x74>)
 800341e:	60da      	str	r2, [r3, #12]
  htim6.Init.AutoReloadPreload = TIM_AUTORELOAD_PRELOAD_DISABLE;
 8003420:	4b0f      	ldr	r3, [pc, #60]	@ (8003460 <MX_TIM6_Init+0x6c>)
 8003422:	2200      	movs	r2, #0
 8003424:	615a      	str	r2, [r3, #20]
  if (HAL_TIM_Base_Init(&htim6) != HAL_OK)
 8003426:	4b0e      	ldr	r3, [pc, #56]	@ (8003460 <MX_TIM6_Init+0x6c>)
 8003428:	0018      	movs	r0, r3
 800342a:	f001 f8de 	bl	80045ea <HAL_TIM_Base_Init>
 800342e:	1e03      	subs	r3, r0, #0
 8003430:	d001      	beq.n	8003436 <MX_TIM6_Init+0x42>
  {
    Error_Handler();
 8003432:	f7ff fde7 	bl	8003004 <Error_Handler>
  }
  sMasterConfig.MasterOutputTrigger = TIM_TRGO_RESET;
 8003436:	003b      	movs	r3, r7
 8003438:	2200      	movs	r2, #0
 800343a:	601a      	str	r2, [r3, #0]
  sMasterConfig.MasterSlaveMode = TIM_MASTERSLAVEMODE_DISABLE;
 800343c:	003b      	movs	r3, r7
 800343e:	2200      	movs	r2, #0
 8003440:	605a      	str	r2, [r3, #4]
  if (HAL_TIMEx_MasterConfigSynchronization(&htim6, &sMasterConfig) != HAL_OK)
 8003442:	003a      	movs	r2, r7
 8003444:	4b06      	ldr	r3, [pc, #24]	@ (8003460 <MX_TIM6_Init+0x6c>)
 8003446:	0011      	movs	r1, r2
 8003448:	0018      	movs	r0, r3
 800344a:	f001 fb2b 	bl	8004aa4 <HAL_TIMEx_MasterConfigSynchronization>
 800344e:	1e03      	subs	r3, r0, #0
 8003450:	d001      	beq.n	8003456 <MX_TIM6_Init+0x62>
  {
    Error_Handler();
 8003452:	f7ff fdd7 	bl	8003004 <Error_Handler>
  }
  /* USER CODE BEGIN TIM6_Init 2 */

  /* USER CODE END TIM6_Init 2 */

}
 8003456:	46c0      	nop			@ (mov r8, r8)
 8003458:	46bd      	mov	sp, r7
 800345a:	b002      	add	sp, #8
 800345c:	bd80      	pop	{r7, pc}
 800345e:	46c0      	nop			@ (mov r8, r8)
 8003460:	2000029c 	.word	0x2000029c
 8003464:	40001000 	.word	0x40001000
 8003468:	0000ffff 	.word	0x0000ffff

0800346c <HAL_TIM_Base_MspInit>:

void HAL_TIM_Base_MspInit(TIM_HandleTypeDef* tim_baseHandle)
{
 800346c:	b580      	push	{r7, lr}
 800346e:	b082      	sub	sp, #8
 8003470:	af00      	add	r7, sp, #0
 8003472:	6078      	str	r0, [r7, #4]

  if(tim_baseHandle->Instance==TIM2)
 8003474:	687b      	ldr	r3, [r7, #4]
 8003476:	681a      	ldr	r2, [r3, #0]
 8003478:	2380      	movs	r3, #128	@ 0x80
 800347a:	05db      	lsls	r3, r3, #23
 800347c:	429a      	cmp	r2, r3
 800347e:	d106      	bne.n	800348e <HAL_TIM_Base_MspInit+0x22>
  {
  /* USER CODE BEGIN TIM2_MspInit 0 */

  /* USER CODE END TIM2_MspInit 0 */
    /* TIM2 clock enable */
    __HAL_RCC_TIM2_CLK_ENABLE();
 8003480:	4b0a      	ldr	r3, [pc, #40]	@ (80034ac <HAL_TIM_Base_MspInit+0x40>)
 8003482:	6b9a      	ldr	r2, [r3, #56]	@ 0x38
 8003484:	4b09      	ldr	r3, [pc, #36]	@ (80034ac <HAL_TIM_Base_MspInit+0x40>)
 8003486:	2101      	movs	r1, #1
 8003488:	430a      	orrs	r2, r1
 800348a:	639a      	str	r2, [r3, #56]	@ 0x38
    __HAL_RCC_TIM6_CLK_ENABLE();
  /* USER CODE BEGIN TIM6_MspInit 1 */

  /* USER CODE END TIM6_MspInit 1 */
  }
}
 800348c:	e00a      	b.n	80034a4 <HAL_TIM_Base_MspInit+0x38>
  else if(tim_baseHandle->Instance==TIM6)
 800348e:	687b      	ldr	r3, [r7, #4]
 8003490:	681b      	ldr	r3, [r3, #0]
 8003492:	4a07      	ldr	r2, [pc, #28]	@ (80034b0 <HAL_TIM_Base_MspInit+0x44>)
 8003494:	4293      	cmp	r3, r2
 8003496:	d105      	bne.n	80034a4 <HAL_TIM_Base_MspInit+0x38>
    __HAL_RCC_TIM6_CLK_ENABLE();
 8003498:	4b04      	ldr	r3, [pc, #16]	@ (80034ac <HAL_TIM_Base_MspInit+0x40>)
 800349a:	6b9a      	ldr	r2, [r3, #56]	@ 0x38
 800349c:	4b03      	ldr	r3, [pc, #12]	@ (80034ac <HAL_TIM_Base_MspInit+0x40>)
 800349e:	2110      	movs	r1, #16
 80034a0:	430a      	orrs	r2, r1
 80034a2:	639a      	str	r2, [r3, #56]	@ 0x38
}
 80034a4:	46c0      	nop			@ (mov r8, r8)
 80034a6:	46bd      	mov	sp, r7
 80034a8:	b002      	add	sp, #8
 80034aa:	bd80      	pop	{r7, pc}
 80034ac:	40021000 	.word	0x40021000
 80034b0:	40001000 	.word	0x40001000

080034b4 <__NVIC_EnableIRQ>:
  \details Enables a device specific interrupt in the NVIC interrupt controller.
  \param [in]      IRQn  Device specific interrupt number.
  \note    IRQn must not be negative.
 */
__STATIC_INLINE void __NVIC_EnableIRQ(IRQn_Type IRQn)
{
 80034b4:	b580      	push	{r7, lr}
 80034b6:	b082      	sub	sp, #8
 80034b8:	af00      	add	r7, sp, #0
 80034ba:	0002      	movs	r2, r0
 80034bc:	1dfb      	adds	r3, r7, #7
 80034be:	701a      	strb	r2, [r3, #0]
  if ((int32_t)(IRQn) >= 0)
 80034c0:	1dfb      	adds	r3, r7, #7
 80034c2:	781b      	ldrb	r3, [r3, #0]
 80034c4:	2b7f      	cmp	r3, #127	@ 0x7f
 80034c6:	d809      	bhi.n	80034dc <__NVIC_EnableIRQ+0x28>
  {
    NVIC->ISER[0U] = (uint32_t)(1UL << (((uint32_t)IRQn) & 0x1FUL));
 80034c8:	1dfb      	adds	r3, r7, #7
 80034ca:	781b      	ldrb	r3, [r3, #0]
 80034cc:	001a      	movs	r2, r3
 80034ce:	231f      	movs	r3, #31
 80034d0:	401a      	ands	r2, r3
 80034d2:	4b04      	ldr	r3, [pc, #16]	@ (80034e4 <__NVIC_EnableIRQ+0x30>)
 80034d4:	2101      	movs	r1, #1
 80034d6:	4091      	lsls	r1, r2
 80034d8:	000a      	movs	r2, r1
 80034da:	601a      	str	r2, [r3, #0]
  }
}
 80034dc:	46c0      	nop			@ (mov r8, r8)
 80034de:	46bd      	mov	sp, r7
 80034e0:	b002      	add	sp, #8
 80034e2:	bd80      	pop	{r7, pc}
 80034e4:	e000e100 	.word	0xe000e100

080034e8 <__NVIC_SetPriority>:
  \param [in]      IRQn  Interrupt number.
  \param [in]  priority  Priority to set.
  \note    The priority cannot be set for every processor exception.
 */
__STATIC_INLINE void __NVIC_SetPriority(IRQn_Type IRQn, uint32_t priority)
{
 80034e8:	b590      	push	{r4, r7, lr}
 80034ea:	b083      	sub	sp, #12
 80034ec:	af00      	add	r7, sp, #0
 80034ee:	0002      	movs	r2, r0
 80034f0:	6039      	str	r1, [r7, #0]
 80034f2:	1dfb      	adds	r3, r7, #7
 80034f4:	701a      	strb	r2, [r3, #0]
  if ((int32_t)(IRQn) >= 0)
 80034f6:	1dfb      	adds	r3, r7, #7
 80034f8:	781b      	ldrb	r3, [r3, #0]
 80034fa:	2b7f      	cmp	r3, #127	@ 0x7f
 80034fc:	d828      	bhi.n	8003550 <__NVIC_SetPriority+0x68>
  {
    NVIC->IP[_IP_IDX(IRQn)]  = ((uint32_t)(NVIC->IP[_IP_IDX(IRQn)]  & ~(0xFFUL << _BIT_SHIFT(IRQn))) |
 80034fe:	4a2f      	ldr	r2, [pc, #188]	@ (80035bc <__NVIC_SetPriority+0xd4>)
 8003500:	1dfb      	adds	r3, r7, #7
 8003502:	781b      	ldrb	r3, [r3, #0]
 8003504:	b25b      	sxtb	r3, r3
 8003506:	089b      	lsrs	r3, r3, #2
 8003508:	33c0      	adds	r3, #192	@ 0xc0
 800350a:	009b      	lsls	r3, r3, #2
 800350c:	589b      	ldr	r3, [r3, r2]
 800350e:	1dfa      	adds	r2, r7, #7
 8003510:	7812      	ldrb	r2, [r2, #0]
 8003512:	0011      	movs	r1, r2
 8003514:	2203      	movs	r2, #3
 8003516:	400a      	ands	r2, r1
 8003518:	00d2      	lsls	r2, r2, #3
 800351a:	21ff      	movs	r1, #255	@ 0xff
 800351c:	4091      	lsls	r1, r2
 800351e:	000a      	movs	r2, r1
 8003520:	43d2      	mvns	r2, r2
 8003522:	401a      	ands	r2, r3
 8003524:	0011      	movs	r1, r2
       (((priority << (8U - __NVIC_PRIO_BITS)) & (uint32_t)0xFFUL) << _BIT_SHIFT(IRQn)));
 8003526:	683b      	ldr	r3, [r7, #0]
 8003528:	019b      	lsls	r3, r3, #6
 800352a:	22ff      	movs	r2, #255	@ 0xff
 800352c:	401a      	ands	r2, r3
 800352e:	1dfb      	adds	r3, r7, #7
 8003530:	781b      	ldrb	r3, [r3, #0]
 8003532:	0018      	movs	r0, r3
 8003534:	2303      	movs	r3, #3
 8003536:	4003      	ands	r3, r0
 8003538:	00db      	lsls	r3, r3, #3
 800353a:	409a      	lsls	r2, r3
    NVIC->IP[_IP_IDX(IRQn)]  = ((uint32_t)(NVIC->IP[_IP_IDX(IRQn)]  & ~(0xFFUL << _BIT_SHIFT(IRQn))) |
 800353c:	481f      	ldr	r0, [pc, #124]	@ (80035bc <__NVIC_SetPriority+0xd4>)
 800353e:	1dfb      	adds	r3, r7, #7
 8003540:	781b      	ldrb	r3, [r3, #0]
 8003542:	b25b      	sxtb	r3, r3
 8003544:	089b      	lsrs	r3, r3, #2
 8003546:	430a      	orrs	r2, r1
 8003548:	33c0      	adds	r3, #192	@ 0xc0
 800354a:	009b      	lsls	r3, r3, #2
 800354c:	501a      	str	r2, [r3, r0]
  else
  {
    SCB->SHP[_SHP_IDX(IRQn)] = ((uint32_t)(SCB->SHP[_SHP_IDX(IRQn)] & ~(0xFFUL << _BIT_SHIFT(IRQn))) |
       (((priority << (8U - __NVIC_PRIO_BITS)) & (uint32_t)0xFFUL) << _BIT_SHIFT(IRQn)));
  }
}
 800354e:	e031      	b.n	80035b4 <__NVIC_SetPriority+0xcc>
    SCB->SHP[_SHP_IDX(IRQn)] = ((uint32_t)(SCB->SHP[_SHP_IDX(IRQn)] & ~(0xFFUL << _BIT_SHIFT(IRQn))) |
 8003550:	4a1b      	ldr	r2, [pc, #108]	@ (80035c0 <__NVIC_SetPriority+0xd8>)
 8003552:	1dfb      	adds	r3, r7, #7
 8003554:	781b      	ldrb	r3, [r3, #0]
 8003556:	0019      	movs	r1, r3
 8003558:	230f      	movs	r3, #15
 800355a:	400b      	ands	r3, r1
 800355c:	3b08      	subs	r3, #8
 800355e:	089b      	lsrs	r3, r3, #2
 8003560:	3306      	adds	r3, #6
 8003562:	009b      	lsls	r3, r3, #2
 8003564:	18d3      	adds	r3, r2, r3
 8003566:	3304      	adds	r3, #4
 8003568:	681b      	ldr	r3, [r3, #0]
 800356a:	1dfa      	adds	r2, r7, #7
 800356c:	7812      	ldrb	r2, [r2, #0]
 800356e:	0011      	movs	r1, r2
 8003570:	2203      	movs	r2, #3
 8003572:	400a      	ands	r2, r1
 8003574:	00d2      	lsls	r2, r2, #3
 8003576:	21ff      	movs	r1, #255	@ 0xff
 8003578:	4091      	lsls	r1, r2
 800357a:	000a      	movs	r2, r1
 800357c:	43d2      	mvns	r2, r2
 800357e:	401a      	ands	r2, r3
 8003580:	0011      	movs	r1, r2
       (((priority << (8U - __NVIC_PRIO_BITS)) & (uint32_t)0xFFUL) << _BIT_SHIFT(IRQn)));
 8003582:	683b      	ldr	r3, [r7, #0]
 8003584:	019b      	lsls	r3, r3, #6
 8003586:	22ff      	movs	r2, #255	@ 0xff
 8003588:	401a      	ands	r2, r3
 800358a:	1dfb      	adds	r3, r7, #7
 800358c:	781b      	ldrb	r3, [r3, #0]
 800358e:	0018      	movs	r0, r3
 8003590:	2303      	movs	r3, #3
 8003592:	4003      	ands	r3, r0
 8003594:	00db      	lsls	r3, r3, #3
 8003596:	409a      	lsls	r2, r3
    SCB->SHP[_SHP_IDX(IRQn)] = ((uint32_t)(SCB->SHP[_SHP_IDX(IRQn)] & ~(0xFFUL << _BIT_SHIFT(IRQn))) |
 8003598:	4809      	ldr	r0, [pc, #36]	@ (80035c0 <__NVIC_SetPriority+0xd8>)
 800359a:	1dfb      	adds	r3, r7, #7
 800359c:	781b      	ldrb	r3, [r3, #0]
 800359e:	001c      	movs	r4, r3
 80035a0:	230f      	movs	r3, #15
 80035a2:	4023      	ands	r3, r4
 80035a4:	3b08      	subs	r3, #8
 80035a6:	089b      	lsrs	r3, r3, #2
 80035a8:	430a      	orrs	r2, r1
 80035aa:	3306      	adds	r3, #6
 80035ac:	009b      	lsls	r3, r3, #2
 80035ae:	18c3      	adds	r3, r0, r3
 80035b0:	3304      	adds	r3, #4
 80035b2:	601a      	str	r2, [r3, #0]
}
 80035b4:	46c0      	nop			@ (mov r8, r8)
 80035b6:	46bd      	mov	sp, r7
 80035b8:	b003      	add	sp, #12
 80035ba:	bd90      	pop	{r4, r7, pc}
 80035bc:	e000e100 	.word	0xe000e100
 80035c0:	e000ed00 	.word	0xe000ed00

080035c4 <LL_APB1_GRP1_EnableClock>:
  *
  *         (*) value not defined in all devices.
  * @retval None
*/
__STATIC_INLINE void LL_APB1_GRP1_EnableClock(uint32_t Periphs)
{
 80035c4:	b580      	push	{r7, lr}
 80035c6:	b084      	sub	sp, #16
 80035c8:	af00      	add	r7, sp, #0
 80035ca:	6078      	str	r0, [r7, #4]
  __IO uint32_t tmpreg;
  SET_BIT(RCC->APB1ENR, Periphs);
 80035cc:	4b07      	ldr	r3, [pc, #28]	@ (80035ec <LL_APB1_GRP1_EnableClock+0x28>)
 80035ce:	6b99      	ldr	r1, [r3, #56]	@ 0x38
 80035d0:	4b06      	ldr	r3, [pc, #24]	@ (80035ec <LL_APB1_GRP1_EnableClock+0x28>)
 80035d2:	687a      	ldr	r2, [r7, #4]
 80035d4:	430a      	orrs	r2, r1
 80035d6:	639a      	str	r2, [r3, #56]	@ 0x38
  /* Delay after an RCC peripheral clock enabling */
  tmpreg = READ_BIT(RCC->APB1ENR, Periphs);
 80035d8:	4b04      	ldr	r3, [pc, #16]	@ (80035ec <LL_APB1_GRP1_EnableClock+0x28>)
 80035da:	6b9b      	ldr	r3, [r3, #56]	@ 0x38
 80035dc:	687a      	ldr	r2, [r7, #4]
 80035de:	4013      	ands	r3, r2
 80035e0:	60fb      	str	r3, [r7, #12]
  (void)tmpreg;
 80035e2:	68fb      	ldr	r3, [r7, #12]
}
 80035e4:	46c0      	nop			@ (mov r8, r8)
 80035e6:	46bd      	mov	sp, r7
 80035e8:	b004      	add	sp, #16
 80035ea:	bd80      	pop	{r7, pc}
 80035ec:	40021000 	.word	0x40021000

080035f0 <LL_IOP_GRP1_EnableClock>:
  *
  *         (*) value not defined in all devices.
  * @retval None
*/
__STATIC_INLINE void LL_IOP_GRP1_EnableClock(uint32_t Periphs)
{
 80035f0:	b580      	push	{r7, lr}
 80035f2:	b084      	sub	sp, #16
 80035f4:	af00      	add	r7, sp, #0
 80035f6:	6078      	str	r0, [r7, #4]
  __IO uint32_t tmpreg;
  SET_BIT(RCC->IOPENR, Periphs);
 80035f8:	4b07      	ldr	r3, [pc, #28]	@ (8003618 <LL_IOP_GRP1_EnableClock+0x28>)
 80035fa:	6ad9      	ldr	r1, [r3, #44]	@ 0x2c
 80035fc:	4b06      	ldr	r3, [pc, #24]	@ (8003618 <LL_IOP_GRP1_EnableClock+0x28>)
 80035fe:	687a      	ldr	r2, [r7, #4]
 8003600:	430a      	orrs	r2, r1
 8003602:	62da      	str	r2, [r3, #44]	@ 0x2c
  /* Delay after an RCC peripheral clock enabling */
  tmpreg = READ_BIT(RCC->IOPENR, Periphs);
 8003604:	4b04      	ldr	r3, [pc, #16]	@ (8003618 <LL_IOP_GRP1_EnableClock+0x28>)
 8003606:	6adb      	ldr	r3, [r3, #44]	@ 0x2c
 8003608:	687a      	ldr	r2, [r7, #4]
 800360a:	4013      	ands	r3, r2
 800360c:	60fb      	str	r3, [r7, #12]
  (void)tmpreg;
 800360e:	68fb      	ldr	r3, [r7, #12]
}
 8003610:	46c0      	nop			@ (mov r8, r8)
 8003612:	46bd      	mov	sp, r7
 8003614:	b004      	add	sp, #16
 8003616:	bd80      	pop	{r7, pc}
 8003618:	40021000 	.word	0x40021000

0800361c <LL_USART_Enable>:
{
 800361c:	b580      	push	{r7, lr}
 800361e:	b082      	sub	sp, #8
 8003620:	af00      	add	r7, sp, #0
 8003622:	6078      	str	r0, [r7, #4]
  SET_BIT(USARTx->CR1, USART_CR1_UE);
 8003624:	687b      	ldr	r3, [r7, #4]
 8003626:	681b      	ldr	r3, [r3, #0]
 8003628:	2201      	movs	r2, #1
 800362a:	431a      	orrs	r2, r3
 800362c:	687b      	ldr	r3, [r7, #4]
 800362e:	601a      	str	r2, [r3, #0]
}
 8003630:	46c0      	nop			@ (mov r8, r8)
 8003632:	46bd      	mov	sp, r7
 8003634:	b002      	add	sp, #8
 8003636:	bd80      	pop	{r7, pc}

08003638 <LL_USART_ConfigAsyncMode>:
{
 8003638:	b580      	push	{r7, lr}
 800363a:	b082      	sub	sp, #8
 800363c:	af00      	add	r7, sp, #0
 800363e:	6078      	str	r0, [r7, #4]
  CLEAR_BIT(USARTx->CR2, (USART_CR2_LINEN | USART_CR2_CLKEN));
 8003640:	687b      	ldr	r3, [r7, #4]
 8003642:	685b      	ldr	r3, [r3, #4]
 8003644:	4a07      	ldr	r2, [pc, #28]	@ (8003664 <LL_USART_ConfigAsyncMode+0x2c>)
 8003646:	401a      	ands	r2, r3
 8003648:	687b      	ldr	r3, [r7, #4]
 800364a:	605a      	str	r2, [r3, #4]
  CLEAR_BIT(USARTx->CR3, (USART_CR3_SCEN | USART_CR3_IREN | USART_CR3_HDSEL));
 800364c:	687b      	ldr	r3, [r7, #4]
 800364e:	689b      	ldr	r3, [r3, #8]
 8003650:	222a      	movs	r2, #42	@ 0x2a
 8003652:	4393      	bics	r3, r2
 8003654:	001a      	movs	r2, r3
 8003656:	687b      	ldr	r3, [r7, #4]
 8003658:	609a      	str	r2, [r3, #8]
}
 800365a:	46c0      	nop			@ (mov r8, r8)
 800365c:	46bd      	mov	sp, r7
 800365e:	b002      	add	sp, #8
 8003660:	bd80      	pop	{r7, pc}
 8003662:	46c0      	nop			@ (mov r8, r8)
 8003664:	ffffb7ff 	.word	0xffffb7ff

08003668 <MX_USART2_UART_Init>:
/* USER CODE END 0 */

/* USART2 init function */

void MX_USART2_UART_Init(void)
{
 8003668:	b590      	push	{r4, r7, lr}
 800366a:	b08f      	sub	sp, #60	@ 0x3c
 800366c:	af00      	add	r7, sp, #0

  /* USER CODE BEGIN USART2_Init 0 */

  /* USER CODE END USART2_Init 0 */

  LL_USART_InitTypeDef USART_InitStruct = {0};
 800366e:	241c      	movs	r4, #28
 8003670:	193b      	adds	r3, r7, r4
 8003672:	0018      	movs	r0, r3
 8003674:	231c      	movs	r3, #28
 8003676:	001a      	movs	r2, r3
 8003678:	2100      	movs	r1, #0
 800367a:	f002 fde7 	bl	800624c <memset>

  LL_GPIO_InitTypeDef GPIO_InitStruct = {0};
 800367e:	1d3b      	adds	r3, r7, #4
 8003680:	0018      	movs	r0, r3
 8003682:	2318      	movs	r3, #24
 8003684:	001a      	movs	r2, r3
 8003686:	2100      	movs	r1, #0
 8003688:	f002 fde0 	bl	800624c <memset>

  /* Peripheral clock enable */
  LL_APB1_GRP1_EnableClock(LL_APB1_GRP1_PERIPH_USART2);
 800368c:	2380      	movs	r3, #128	@ 0x80
 800368e:	029b      	lsls	r3, r3, #10
 8003690:	0018      	movs	r0, r3
 8003692:	f7ff ff97 	bl	80035c4 <LL_APB1_GRP1_EnableClock>

  LL_IOP_GRP1_EnableClock(LL_IOP_GRP1_PERIPH_GPIOA);
 8003696:	2001      	movs	r0, #1
 8003698:	f7ff ffaa 	bl	80035f0 <LL_IOP_GRP1_EnableClock>
  /**USART2 GPIO Configuration
  PA2   ------> USART2_TX
  PA3   ------> USART2_RX
  */
  GPIO_InitStruct.Pin = LL_GPIO_PIN_2;
 800369c:	1d3b      	adds	r3, r7, #4
 800369e:	2204      	movs	r2, #4
 80036a0:	601a      	str	r2, [r3, #0]
  GPIO_InitStruct.Mode = LL_GPIO_MODE_ALTERNATE;
 80036a2:	1d3b      	adds	r3, r7, #4
 80036a4:	2202      	movs	r2, #2
 80036a6:	605a      	str	r2, [r3, #4]
  GPIO_InitStruct.Speed = LL_GPIO_SPEED_FREQ_VERY_HIGH;
 80036a8:	1d3b      	adds	r3, r7, #4
 80036aa:	2203      	movs	r2, #3
 80036ac:	609a      	str	r2, [r3, #8]
  GPIO_InitStruct.OutputType = LL_GPIO_OUTPUT_PUSHPULL;
 80036ae:	1d3b      	adds	r3, r7, #4
 80036b0:	2200      	movs	r2, #0
 80036b2:	60da      	str	r2, [r3, #12]
  GPIO_InitStruct.Pull = LL_GPIO_PULL_NO;
 80036b4:	1d3b      	adds	r3, r7, #4
 80036b6:	2200      	movs	r2, #0
 80036b8:	611a      	str	r2, [r3, #16]
  GPIO_InitStruct.Alternate = LL_GPIO_AF_4;
 80036ba:	1d3b      	adds	r3, r7, #4
 80036bc:	2204      	movs	r2, #4
 80036be:	615a      	str	r2, [r3, #20]
  LL_GPIO_Init(GPIOA, &GPIO_InitStruct);
 80036c0:	1d3a      	adds	r2, r7, #4
 80036c2:	23a0      	movs	r3, #160	@ 0xa0
 80036c4:	05db      	lsls	r3, r3, #23
 80036c6:	0011      	movs	r1, r2
 80036c8:	0018      	movs	r0, r3
 80036ca:	f001 fb02 	bl	8004cd2 <LL_GPIO_Init>

  GPIO_InitStruct.Pin = LL_GPIO_PIN_3;
 80036ce:	1d3b      	adds	r3, r7, #4
 80036d0:	2208      	movs	r2, #8
 80036d2:	601a      	str	r2, [r3, #0]
  GPIO_InitStruct.Mode = LL_GPIO_MODE_ALTERNATE;
 80036d4:	1d3b      	adds	r3, r7, #4
 80036d6:	2202      	movs	r2, #2
 80036d8:	605a      	str	r2, [r3, #4]
  GPIO_InitStruct.Speed = LL_GPIO_SPEED_FREQ_VERY_HIGH;
 80036da:	1d3b      	adds	r3, r7, #4
 80036dc:	2203      	movs	r2, #3
 80036de:	609a      	str	r2, [r3, #8]
  GPIO_InitStruct.OutputType = LL_GPIO_OUTPUT_PUSHPULL;
 80036e0:	1d3b      	adds	r3, r7, #4
 80036e2:	2200      	movs	r2, #0
 80036e4:	60da      	str	r2, [r3, #12]
  GPIO_InitStruct.Pull = LL_GPIO_PULL_NO;
 80036e6:	1d3b      	adds	r3, r7, #4
 80036e8:	2200      	movs	r2, #0
 80036ea:	611a      	str	r2, [r3, #16]
  GPIO_InitStruct.Alternate = LL_GPIO_AF_4;
 80036ec:	1d3b      	adds	r3, r7, #4
 80036ee:	2204      	movs	r2, #4
 80036f0:	615a      	str	r2, [r3, #20]
  LL_GPIO_Init(GPIOA, &GPIO_InitStruct);
 80036f2:	1d3a      	adds	r2, r7, #4
 80036f4:	23a0      	movs	r3, #160	@ 0xa0
 80036f6:	05db      	lsls	r3, r3, #23
 80036f8:	0011      	movs	r1, r2
 80036fa:	0018      	movs	r0, r3
 80036fc:	f001 fae9 	bl	8004cd2 <LL_GPIO_Init>

  /* USART2 interrupt Init */
  NVIC_SetPriority(USART2_IRQn, 0);
 8003700:	2100      	movs	r1, #0
 8003702:	201c      	movs	r0, #28
 8003704:	f7ff fef0 	bl	80034e8 <__NVIC_SetPriority>
  NVIC_EnableIRQ(USART2_IRQn);
 8003708:	201c      	movs	r0, #28
 800370a:	f7ff fed3 	bl	80034b4 <__NVIC_EnableIRQ>

  /* USER CODE BEGIN USART2_Init 1 */

  /* USER CODE END USART2_Init 1 */
  USART_InitStruct.BaudRate = 115200;
 800370e:	193b      	adds	r3, r7, r4
 8003710:	22e1      	movs	r2, #225	@ 0xe1
 8003712:	0252      	lsls	r2, r2, #9
 8003714:	601a      	str	r2, [r3, #0]
  USART_InitStruct.DataWidth = LL_USART_DATAWIDTH_8B;
 8003716:	0021      	movs	r1, r4
 8003718:	187b      	adds	r3, r7, r1
 800371a:	2200      	movs	r2, #0
 800371c:	605a      	str	r2, [r3, #4]
  USART_InitStruct.StopBits = LL_USART_STOPBITS_1;
 800371e:	187b      	adds	r3, r7, r1
 8003720:	2200      	movs	r2, #0
 8003722:	609a      	str	r2, [r3, #8]
  USART_InitStruct.Parity = LL_USART_PARITY_NONE;
 8003724:	187b      	adds	r3, r7, r1
 8003726:	2200      	movs	r2, #0
 8003728:	60da      	str	r2, [r3, #12]
  USART_InitStruct.TransferDirection = LL_USART_DIRECTION_TX_RX;
 800372a:	187b      	adds	r3, r7, r1
 800372c:	220c      	movs	r2, #12
 800372e:	611a      	str	r2, [r3, #16]
  USART_InitStruct.HardwareFlowControl = LL_USART_HWCONTROL_NONE;
 8003730:	187b      	adds	r3, r7, r1
 8003732:	2200      	movs	r2, #0
 8003734:	615a      	str	r2, [r3, #20]
  USART_InitStruct.OverSampling = LL_USART_OVERSAMPLING_16;
 8003736:	187b      	adds	r3, r7, r1
 8003738:	2200      	movs	r2, #0
 800373a:	619a      	str	r2, [r3, #24]
  LL_USART_Init(USART2, &USART_InitStruct);
 800373c:	187b      	adds	r3, r7, r1
 800373e:	4a08      	ldr	r2, [pc, #32]	@ (8003760 <MX_USART2_UART_Init+0xf8>)
 8003740:	0019      	movs	r1, r3
 8003742:	0010      	movs	r0, r2
 8003744:	f001 fdbc 	bl	80052c0 <LL_USART_Init>
  LL_USART_ConfigAsyncMode(USART2);
 8003748:	4b05      	ldr	r3, [pc, #20]	@ (8003760 <MX_USART2_UART_Init+0xf8>)
 800374a:	0018      	movs	r0, r3
 800374c:	f7ff ff74 	bl	8003638 <LL_USART_ConfigAsyncMode>
  LL_USART_Enable(USART2);
 8003750:	4b03      	ldr	r3, [pc, #12]	@ (8003760 <MX_USART2_UART_Init+0xf8>)
 8003752:	0018      	movs	r0, r3
 8003754:	f7ff ff62 	bl	800361c <LL_USART_Enable>
  /* USER CODE BEGIN USART2_Init 2 */

  /* USER CODE END USART2_Init 2 */

}
 8003758:	46c0      	nop			@ (mov r8, r8)
 800375a:	46bd      	mov	sp, r7
 800375c:	b00f      	add	sp, #60	@ 0x3c
 800375e:	bd90      	pop	{r4, r7, pc}
 8003760:	40004400 	.word	0x40004400

08003764 <Reset_Handler>:

    .section  .text.Reset_Handler
  .weak  Reset_Handler
  .type  Reset_Handler, %function
Reset_Handler:  
   ldr   r0, =_estack
 8003764:	480d      	ldr	r0, [pc, #52]	@ (800379c <LoopForever+0x2>)
   mov   sp, r0          /* set stack pointer */
 8003766:	4685      	mov	sp, r0

/* Copy the data segment initializers from flash to SRAM */
  ldr r0, =_sdata
 8003768:	480d      	ldr	r0, [pc, #52]	@ (80037a0 <LoopForever+0x6>)
  ldr r1, =_edata
 800376a:	490e      	ldr	r1, [pc, #56]	@ (80037a4 <LoopForever+0xa>)
  ldr r2, =_sidata
 800376c:	4a0e      	ldr	r2, [pc, #56]	@ (80037a8 <LoopForever+0xe>)
  movs r3, #0
 800376e:	2300      	movs	r3, #0
  b LoopCopyDataInit
 8003770:	e002      	b.n	8003778 <LoopCopyDataInit>

08003772 <CopyDataInit>:

CopyDataInit:
  ldr r4, [r2, r3]
 8003772:	58d4      	ldr	r4, [r2, r3]
  str r4, [r0, r3]
 8003774:	50c4      	str	r4, [r0, r3]
  adds r3, r3, #4
 8003776:	3304      	adds	r3, #4

08003778 <LoopCopyDataInit>:

LoopCopyDataInit:
  adds r4, r0, r3
 8003778:	18c4      	adds	r4, r0, r3
  cmp r4, r1
 800377a:	428c      	cmp	r4, r1
  bcc CopyDataInit
 800377c:	d3f9      	bcc.n	8003772 <CopyDataInit>
  
/* Zero fill the bss segment. */
  ldr r2, =_sbss
 800377e:	4a0b      	ldr	r2, [pc, #44]	@ (80037ac <LoopForever+0x12>)
  ldr r4, =_ebss
 8003780:	4c0b      	ldr	r4, [pc, #44]	@ (80037b0 <LoopForever+0x16>)
  movs r3, #0
 8003782:	2300      	movs	r3, #0
  b LoopFillZerobss
 8003784:	e001      	b.n	800378a <LoopFillZerobss>

08003786 <FillZerobss>:

FillZerobss:
  str  r3, [r2]
 8003786:	6013      	str	r3, [r2, #0]
  adds r2, r2, #4
 8003788:	3204      	adds	r2, #4

0800378a <LoopFillZerobss>:

LoopFillZerobss:
  cmp r2, r4
 800378a:	42a2      	cmp	r2, r4
  bcc FillZerobss
 800378c:	d3fb      	bcc.n	8003786 <FillZerobss>

/* Call the clock system intitialization function.*/
  bl  SystemInit
 800378e:	f7ff fdd7 	bl	8003340 <SystemInit>
/* Call static constructors */
    bl __libc_init_array
 8003792:	f002 fdbb 	bl	800630c <__libc_init_array>
/* Call the application's entry point.*/
  bl  main
 8003796:	f7ff fb83 	bl	8002ea0 <main>

0800379a <LoopForever>:

LoopForever:
    b LoopForever
 800379a:	e7fe      	b.n	800379a <LoopForever>
   ldr   r0, =_estack
 800379c:	20005000 	.word	0x20005000
  ldr r0, =_sdata
 80037a0:	20000000 	.word	0x20000000
  ldr r1, =_edata
 80037a4:	200001d4 	.word	0x200001d4
  ldr r2, =_sidata
 80037a8:	080085cc 	.word	0x080085cc
  ldr r2, =_sbss
 80037ac:	200001d4 	.word	0x200001d4
  ldr r4, =_ebss
 80037b0:	2000042c 	.word	0x2000042c

080037b4 <ADC1_COMP_IRQHandler>:
 * @retval : None
*/
    .section  .text.Default_Handler,"ax",%progbits
Default_Handler:
Infinite_Loop:
  b  Infinite_Loop
 80037b4:	e7fe      	b.n	80037b4 <ADC1_COMP_IRQHandler>
	...

080037b8 <HAL_Init>:
  *        In the default implementation,Systick is used as source of time base.
  *        the tick variable is incremented each 1ms in its ISR.
  * @retval HAL status
  */
HAL_StatusTypeDef HAL_Init(void)
{
 80037b8:	b580      	push	{r7, lr}
 80037ba:	b082      	sub	sp, #8
 80037bc:	af00      	add	r7, sp, #0
  HAL_StatusTypeDef  status = HAL_OK;
 80037be:	1dfb      	adds	r3, r7, #7
 80037c0:	2200      	movs	r2, #0
 80037c2:	701a      	strb	r2, [r3, #0]
#if (BUFFER_CACHE_DISABLE != 0)
  __HAL_FLASH_BUFFER_CACHE_DISABLE();
#endif /* BUFFER_CACHE_DISABLE */

#if (PREREAD_ENABLE != 0)
  __HAL_FLASH_PREREAD_BUFFER_ENABLE();
 80037c4:	4b0b      	ldr	r3, [pc, #44]	@ (80037f4 <HAL_Init+0x3c>)
 80037c6:	681a      	ldr	r2, [r3, #0]
 80037c8:	4b0a      	ldr	r3, [pc, #40]	@ (80037f4 <HAL_Init+0x3c>)
 80037ca:	2140      	movs	r1, #64	@ 0x40
 80037cc:	430a      	orrs	r2, r1
 80037ce:	601a      	str	r2, [r3, #0]
#if (PREFETCH_ENABLE != 0)
  __HAL_FLASH_PREFETCH_BUFFER_ENABLE();
#endif /* PREFETCH_ENABLE */

  /* Use SysTick as time base source and configure 1ms tick (default clock after Reset is MSI) */
  if (HAL_InitTick(TICK_INT_PRIORITY) != HAL_OK)
 80037d0:	2000      	movs	r0, #0
 80037d2:	f000 f811 	bl	80037f8 <HAL_InitTick>
 80037d6:	1e03      	subs	r3, r0, #0
 80037d8:	d003      	beq.n	80037e2 <HAL_Init+0x2a>
  {
    status = HAL_ERROR;
 80037da:	1dfb      	adds	r3, r7, #7
 80037dc:	2201      	movs	r2, #1
 80037de:	701a      	strb	r2, [r3, #0]
 80037e0:	e001      	b.n	80037e6 <HAL_Init+0x2e>
  }
  else
  {
    /* Init the low level hardware */
    HAL_MspInit();
 80037e2:	f7ff fd05 	bl	80031f0 <HAL_MspInit>
  }

  /* Return function status */
  return status;
 80037e6:	1dfb      	adds	r3, r7, #7
 80037e8:	781b      	ldrb	r3, [r3, #0]
}
 80037ea:	0018      	movs	r0, r3
 80037ec:	46bd      	mov	sp, r7
 80037ee:	b002      	add	sp, #8
 80037f0:	bd80      	pop	{r7, pc}
 80037f2:	46c0      	nop			@ (mov r8, r8)
 80037f4:	40022000 	.word	0x40022000

080037f8 <HAL_InitTick>:
  *       implementation  in user file.
  * @param TickPriority Tick interrupt priority.
  * @retval HAL status
  */
__weak HAL_StatusTypeDef HAL_InitTick(uint32_t TickPriority)
{
 80037f8:	b590      	push	{r4, r7, lr}
 80037fa:	b083      	sub	sp, #12
 80037fc:	af00      	add	r7, sp, #0
 80037fe:	6078      	str	r0, [r7, #4]
  /* Configure the SysTick to have interrupt in 1ms time basis*/
  if (HAL_SYSTICK_Config(SystemCoreClock / (1000U / uwTickFreq)) > 0U)
 8003800:	4b14      	ldr	r3, [pc, #80]	@ (8003854 <HAL_InitTick+0x5c>)
 8003802:	681c      	ldr	r4, [r3, #0]
 8003804:	4b14      	ldr	r3, [pc, #80]	@ (8003858 <HAL_InitTick+0x60>)
 8003806:	781b      	ldrb	r3, [r3, #0]
 8003808:	0019      	movs	r1, r3
 800380a:	23fa      	movs	r3, #250	@ 0xfa
 800380c:	0098      	lsls	r0, r3, #2
 800380e:	f7fc fc97 	bl	8000140 <__udivsi3>
 8003812:	0003      	movs	r3, r0
 8003814:	0019      	movs	r1, r3
 8003816:	0020      	movs	r0, r4
 8003818:	f7fc fc92 	bl	8000140 <__udivsi3>
 800381c:	0003      	movs	r3, r0
 800381e:	0018      	movs	r0, r3
 8003820:	f000 fd3b 	bl	800429a <HAL_SYSTICK_Config>
 8003824:	1e03      	subs	r3, r0, #0
 8003826:	d001      	beq.n	800382c <HAL_InitTick+0x34>
  {
    return HAL_ERROR;
 8003828:	2301      	movs	r3, #1
 800382a:	e00f      	b.n	800384c <HAL_InitTick+0x54>
  }

  /* Configure the SysTick IRQ priority */
  if (TickPriority < (1UL << __NVIC_PRIO_BITS))
 800382c:	687b      	ldr	r3, [r7, #4]
 800382e:	2b03      	cmp	r3, #3
 8003830:	d80b      	bhi.n	800384a <HAL_InitTick+0x52>
  {
    HAL_NVIC_SetPriority(SysTick_IRQn, TickPriority, 0U);
 8003832:	6879      	ldr	r1, [r7, #4]
 8003834:	2301      	movs	r3, #1
 8003836:	425b      	negs	r3, r3
 8003838:	2200      	movs	r2, #0
 800383a:	0018      	movs	r0, r3
 800383c:	f000 fd18 	bl	8004270 <HAL_NVIC_SetPriority>
    uwTickPrio = TickPriority;
 8003840:	4b06      	ldr	r3, [pc, #24]	@ (800385c <HAL_InitTick+0x64>)
 8003842:	687a      	ldr	r2, [r7, #4]
 8003844:	601a      	str	r2, [r3, #0]
  {
    return HAL_ERROR;
  }

  /* Return function status */
  return HAL_OK;
 8003846:	2300      	movs	r3, #0
 8003848:	e000      	b.n	800384c <HAL_InitTick+0x54>
    return HAL_ERROR;
 800384a:	2301      	movs	r3, #1
}
 800384c:	0018      	movs	r0, r3
 800384e:	46bd      	mov	sp, r7
 8003850:	b003      	add	sp, #12
 8003852:	bd90      	pop	{r4, r7, pc}
 8003854:	20000000 	.word	0x20000000
 8003858:	20000008 	.word	0x20000008
 800385c:	20000004 	.word	0x20000004

08003860 <HAL_IncTick>:
 * @note This function is declared as __weak to be overwritten in case of other
  *      implementations in user file.
  * @retval None
  */
__weak void HAL_IncTick(void)
{
 8003860:	b580      	push	{r7, lr}
 8003862:	af00      	add	r7, sp, #0
  uwTick += uwTickFreq;
 8003864:	4b05      	ldr	r3, [pc, #20]	@ (800387c <HAL_IncTick+0x1c>)
 8003866:	781b      	ldrb	r3, [r3, #0]
 8003868:	001a      	movs	r2, r3
 800386a:	4b05      	ldr	r3, [pc, #20]	@ (8003880 <HAL_IncTick+0x20>)
 800386c:	681b      	ldr	r3, [r3, #0]
 800386e:	18d2      	adds	r2, r2, r3
 8003870:	4b03      	ldr	r3, [pc, #12]	@ (8003880 <HAL_IncTick+0x20>)
 8003872:	601a      	str	r2, [r3, #0]
}
 8003874:	46c0      	nop			@ (mov r8, r8)
 8003876:	46bd      	mov	sp, r7
 8003878:	bd80      	pop	{r7, pc}
 800387a:	46c0      	nop			@ (mov r8, r8)
 800387c:	20000008 	.word	0x20000008
 8003880:	200002dc 	.word	0x200002dc

08003884 <HAL_GetTick>:
  * @note This function is declared as __weak to be overwritten in case of other
  *       implementations in user file.
  * @retval tick value
  */
__weak uint32_t HAL_GetTick(void)
{
 8003884:	b580      	push	{r7, lr}
 8003886:	af00      	add	r7, sp, #0
  return uwTick;
 8003888:	4b02      	ldr	r3, [pc, #8]	@ (8003894 <HAL_GetTick+0x10>)
 800388a:	681b      	ldr	r3, [r3, #0]
}
 800388c:	0018      	movs	r0, r3
 800388e:	46bd      	mov	sp, r7
 8003890:	bd80      	pop	{r7, pc}
 8003892:	46c0      	nop			@ (mov r8, r8)
 8003894:	200002dc 	.word	0x200002dc

08003898 <HAL_Delay>:
  *       implementations in user file.
  * @param Delay specifies the delay time length, in milliseconds.
  * @retval None
  */
__weak void HAL_Delay(uint32_t Delay)
{
 8003898:	b580      	push	{r7, lr}
 800389a:	b084      	sub	sp, #16
 800389c:	af00      	add	r7, sp, #0
 800389e:	6078      	str	r0, [r7, #4]
  uint32_t tickstart = HAL_GetTick();
 80038a0:	f7ff fff0 	bl	8003884 <HAL_GetTick>
 80038a4:	0003      	movs	r3, r0
 80038a6:	60bb      	str	r3, [r7, #8]
  uint32_t wait = Delay;
 80038a8:	687b      	ldr	r3, [r7, #4]
 80038aa:	60fb      	str	r3, [r7, #12]

  /* Add a freq to guarantee minimum wait */
  if (wait < HAL_MAX_DELAY)
 80038ac:	68fb      	ldr	r3, [r7, #12]
 80038ae:	3301      	adds	r3, #1
 80038b0:	d005      	beq.n	80038be <HAL_Delay+0x26>
  {
    wait += (uint32_t)(uwTickFreq);
 80038b2:	4b0a      	ldr	r3, [pc, #40]	@ (80038dc <HAL_Delay+0x44>)
 80038b4:	781b      	ldrb	r3, [r3, #0]
 80038b6:	001a      	movs	r2, r3
 80038b8:	68fb      	ldr	r3, [r7, #12]
 80038ba:	189b      	adds	r3, r3, r2
 80038bc:	60fb      	str	r3, [r7, #12]
  }

  while((HAL_GetTick() - tickstart) < wait)
 80038be:	46c0      	nop			@ (mov r8, r8)
 80038c0:	f7ff ffe0 	bl	8003884 <HAL_GetTick>
 80038c4:	0002      	movs	r2, r0
 80038c6:	68bb      	ldr	r3, [r7, #8]
 80038c8:	1ad3      	subs	r3, r2, r3
 80038ca:	68fa      	ldr	r2, [r7, #12]
 80038cc:	429a      	cmp	r2, r3
 80038ce:	d8f7      	bhi.n	80038c0 <HAL_Delay+0x28>
  {
  }
}
 80038d0:	46c0      	nop			@ (mov r8, r8)
 80038d2:	46c0      	nop			@ (mov r8, r8)
 80038d4:	46bd      	mov	sp, r7
 80038d6:	b004      	add	sp, #16
 80038d8:	bd80      	pop	{r7, pc}
 80038da:	46c0      	nop			@ (mov r8, r8)
 80038dc:	20000008 	.word	0x20000008

080038e0 <HAL_ADC_Init>:
  *         of structure "ADC_InitTypeDef".
  * @param  hadc ADC handle
  * @retval HAL status
  */
HAL_StatusTypeDef HAL_ADC_Init(ADC_HandleTypeDef *hadc)
{
 80038e0:	b580      	push	{r7, lr}
 80038e2:	b082      	sub	sp, #8
 80038e4:	af00      	add	r7, sp, #0
 80038e6:	6078      	str	r0, [r7, #4]

  /* Check ADC handle */
  if (hadc == NULL)
 80038e8:	687b      	ldr	r3, [r7, #4]
 80038ea:	2b00      	cmp	r3, #0
 80038ec:	d101      	bne.n	80038f2 <HAL_ADC_Init+0x12>
  {
    return HAL_ERROR;
 80038ee:	2301      	movs	r3, #1
 80038f0:	e159      	b.n	8003ba6 <HAL_ADC_Init+0x2c6>
  /* Refer to header of this file for more details on clock enabling procedure*/

  /* Actions performed only if ADC is coming from state reset:                */
  /* - Initialization of ADC MSP                                              */
  /* - ADC voltage regulator enable                                           */
  if (hadc->State == HAL_ADC_STATE_RESET)
 80038f2:	687b      	ldr	r3, [r7, #4]
 80038f4:	6d5b      	ldr	r3, [r3, #84]	@ 0x54
 80038f6:	2b00      	cmp	r3, #0
 80038f8:	d10a      	bne.n	8003910 <HAL_ADC_Init+0x30>
  {
    /* Initialize ADC error code */
    ADC_CLEAR_ERRORCODE(hadc);
 80038fa:	687b      	ldr	r3, [r7, #4]
 80038fc:	2200      	movs	r2, #0
 80038fe:	659a      	str	r2, [r3, #88]	@ 0x58

    /* Allocate lock resource and initialize it */
    hadc->Lock = HAL_UNLOCKED;
 8003900:	687b      	ldr	r3, [r7, #4]
 8003902:	2250      	movs	r2, #80	@ 0x50
 8003904:	2100      	movs	r1, #0
 8003906:	5499      	strb	r1, [r3, r2]

    /* Init the low level hardware */
    hadc->MspInitCallback(hadc);
#else
    /* Init the low level hardware */
    HAL_ADC_MspInit(hadc);
 8003908:	687b      	ldr	r3, [r7, #4]
 800390a:	0018      	movs	r0, r3
 800390c:	f7ff f8ee 	bl	8002aec <HAL_ADC_MspInit>
  /* Configuration of ADC parameters if previous preliminary actions are      */
  /* correctly completed.                                                     */
  /* and if there is no conversion on going on regular group (ADC can be      */
  /* enabled anyway, in case of call of this function to update a parameter   */
  /* on the fly).                                                             */
  if (HAL_IS_BIT_SET(hadc->State, HAL_ADC_STATE_ERROR_INTERNAL) ||
 8003910:	687b      	ldr	r3, [r7, #4]
 8003912:	6d5b      	ldr	r3, [r3, #84]	@ 0x54
 8003914:	2210      	movs	r2, #16
 8003916:	4013      	ands	r3, r2
 8003918:	2b10      	cmp	r3, #16
 800391a:	d005      	beq.n	8003928 <HAL_ADC_Init+0x48>
      (ADC_IS_CONVERSION_ONGOING_REGULAR(hadc) != RESET))
 800391c:	687b      	ldr	r3, [r7, #4]
 800391e:	681b      	ldr	r3, [r3, #0]
 8003920:	689b      	ldr	r3, [r3, #8]
 8003922:	2204      	movs	r2, #4
 8003924:	4013      	ands	r3, r2
  if (HAL_IS_BIT_SET(hadc->State, HAL_ADC_STATE_ERROR_INTERNAL) ||
 8003926:	d00b      	beq.n	8003940 <HAL_ADC_Init+0x60>
  {
    /* Update ADC state machine to error */
    SET_BIT(hadc->State, HAL_ADC_STATE_ERROR_INTERNAL);
 8003928:	687b      	ldr	r3, [r7, #4]
 800392a:	6d5b      	ldr	r3, [r3, #84]	@ 0x54
 800392c:	2210      	movs	r2, #16
 800392e:	431a      	orrs	r2, r3
 8003930:	687b      	ldr	r3, [r7, #4]
 8003932:	655a      	str	r2, [r3, #84]	@ 0x54

    /* Process unlocked */
    __HAL_UNLOCK(hadc);
 8003934:	687b      	ldr	r3, [r7, #4]
 8003936:	2250      	movs	r2, #80	@ 0x50
 8003938:	2100      	movs	r1, #0
 800393a:	5499      	strb	r1, [r3, r2]
    return HAL_ERROR;
 800393c:	2301      	movs	r3, #1
 800393e:	e132      	b.n	8003ba6 <HAL_ADC_Init+0x2c6>
  }

  /* Set ADC state */
  ADC_STATE_CLR_SET(hadc->State,
 8003940:	687b      	ldr	r3, [r7, #4]
 8003942:	6d5b      	ldr	r3, [r3, #84]	@ 0x54
 8003944:	4a9a      	ldr	r2, [pc, #616]	@ (8003bb0 <HAL_ADC_Init+0x2d0>)
 8003946:	4013      	ands	r3, r2
 8003948:	2202      	movs	r2, #2
 800394a:	431a      	orrs	r2, r3
 800394c:	687b      	ldr	r3, [r7, #4]
 800394e:	655a      	str	r2, [r3, #84]	@ 0x54
  /* Parameters update conditioned to ADC state:                            */
  /* Parameters that can be updated only when ADC is disabled:              */
  /*  - ADC clock mode                                                      */
  /*  - ADC clock prescaler                                                 */
  /*  - ADC Resolution                                                      */
  if (ADC_IS_ENABLE(hadc) == RESET)
 8003950:	687b      	ldr	r3, [r7, #4]
 8003952:	681b      	ldr	r3, [r3, #0]
 8003954:	689b      	ldr	r3, [r3, #8]
 8003956:	2203      	movs	r2, #3
 8003958:	4013      	ands	r3, r2
 800395a:	2b01      	cmp	r3, #1
 800395c:	d108      	bne.n	8003970 <HAL_ADC_Init+0x90>
 800395e:	687b      	ldr	r3, [r7, #4]
 8003960:	681b      	ldr	r3, [r3, #0]
 8003962:	681b      	ldr	r3, [r3, #0]
 8003964:	2201      	movs	r2, #1
 8003966:	4013      	ands	r3, r2
 8003968:	2b01      	cmp	r3, #1
 800396a:	d101      	bne.n	8003970 <HAL_ADC_Init+0x90>
 800396c:	2301      	movs	r3, #1
 800396e:	e000      	b.n	8003972 <HAL_ADC_Init+0x92>
 8003970:	2300      	movs	r3, #0
 8003972:	2b00      	cmp	r3, #0
 8003974:	d149      	bne.n	8003a0a <HAL_ADC_Init+0x12a>
    /*   - internal measurement paths: Vbat, temperature sensor, Vref       */
    /*     (set into HAL_ADC_ConfigChannel() )                              */

    /* Configuration of ADC clock: clock source PCLK or asynchronous with
    selectable prescaler */
    __HAL_ADC_CLOCK_PRESCALER(hadc);
 8003976:	687b      	ldr	r3, [r7, #4]
 8003978:	685a      	ldr	r2, [r3, #4]
 800397a:	23c0      	movs	r3, #192	@ 0xc0
 800397c:	061b      	lsls	r3, r3, #24
 800397e:	429a      	cmp	r2, r3
 8003980:	d00b      	beq.n	800399a <HAL_ADC_Init+0xba>
 8003982:	687b      	ldr	r3, [r7, #4]
 8003984:	685a      	ldr	r2, [r3, #4]
 8003986:	2380      	movs	r3, #128	@ 0x80
 8003988:	05db      	lsls	r3, r3, #23
 800398a:	429a      	cmp	r2, r3
 800398c:	d005      	beq.n	800399a <HAL_ADC_Init+0xba>
 800398e:	687b      	ldr	r3, [r7, #4]
 8003990:	685a      	ldr	r2, [r3, #4]
 8003992:	2380      	movs	r3, #128	@ 0x80
 8003994:	061b      	lsls	r3, r3, #24
 8003996:	429a      	cmp	r2, r3
 8003998:	d111      	bne.n	80039be <HAL_ADC_Init+0xde>
 800399a:	687b      	ldr	r3, [r7, #4]
 800399c:	681b      	ldr	r3, [r3, #0]
 800399e:	691a      	ldr	r2, [r3, #16]
 80039a0:	687b      	ldr	r3, [r7, #4]
 80039a2:	681b      	ldr	r3, [r3, #0]
 80039a4:	0092      	lsls	r2, r2, #2
 80039a6:	0892      	lsrs	r2, r2, #2
 80039a8:	611a      	str	r2, [r3, #16]
 80039aa:	687b      	ldr	r3, [r7, #4]
 80039ac:	681b      	ldr	r3, [r3, #0]
 80039ae:	6919      	ldr	r1, [r3, #16]
 80039b0:	687b      	ldr	r3, [r7, #4]
 80039b2:	685a      	ldr	r2, [r3, #4]
 80039b4:	687b      	ldr	r3, [r7, #4]
 80039b6:	681b      	ldr	r3, [r3, #0]
 80039b8:	430a      	orrs	r2, r1
 80039ba:	611a      	str	r2, [r3, #16]
 80039bc:	e014      	b.n	80039e8 <HAL_ADC_Init+0x108>
 80039be:	687b      	ldr	r3, [r7, #4]
 80039c0:	681b      	ldr	r3, [r3, #0]
 80039c2:	691a      	ldr	r2, [r3, #16]
 80039c4:	687b      	ldr	r3, [r7, #4]
 80039c6:	681b      	ldr	r3, [r3, #0]
 80039c8:	0092      	lsls	r2, r2, #2
 80039ca:	0892      	lsrs	r2, r2, #2
 80039cc:	611a      	str	r2, [r3, #16]
 80039ce:	4b79      	ldr	r3, [pc, #484]	@ (8003bb4 <HAL_ADC_Init+0x2d4>)
 80039d0:	681a      	ldr	r2, [r3, #0]
 80039d2:	4b78      	ldr	r3, [pc, #480]	@ (8003bb4 <HAL_ADC_Init+0x2d4>)
 80039d4:	4978      	ldr	r1, [pc, #480]	@ (8003bb8 <HAL_ADC_Init+0x2d8>)
 80039d6:	400a      	ands	r2, r1
 80039d8:	601a      	str	r2, [r3, #0]
 80039da:	4b76      	ldr	r3, [pc, #472]	@ (8003bb4 <HAL_ADC_Init+0x2d4>)
 80039dc:	6819      	ldr	r1, [r3, #0]
 80039de:	687b      	ldr	r3, [r7, #4]
 80039e0:	685a      	ldr	r2, [r3, #4]
 80039e2:	4b74      	ldr	r3, [pc, #464]	@ (8003bb4 <HAL_ADC_Init+0x2d4>)
 80039e4:	430a      	orrs	r2, r1
 80039e6:	601a      	str	r2, [r3, #0]

    /* Configuration of ADC:                                                */
    /*  - Resolution                                                        */
    hadc->Instance->CFGR1 &= ~(ADC_CFGR1_RES);
 80039e8:	687b      	ldr	r3, [r7, #4]
 80039ea:	681b      	ldr	r3, [r3, #0]
 80039ec:	68da      	ldr	r2, [r3, #12]
 80039ee:	687b      	ldr	r3, [r7, #4]
 80039f0:	681b      	ldr	r3, [r3, #0]
 80039f2:	2118      	movs	r1, #24
 80039f4:	438a      	bics	r2, r1
 80039f6:	60da      	str	r2, [r3, #12]
    hadc->Instance->CFGR1 |= hadc->Init.Resolution;
 80039f8:	687b      	ldr	r3, [r7, #4]
 80039fa:	681b      	ldr	r3, [r3, #0]
 80039fc:	68d9      	ldr	r1, [r3, #12]
 80039fe:	687b      	ldr	r3, [r7, #4]
 8003a00:	689a      	ldr	r2, [r3, #8]
 8003a02:	687b      	ldr	r3, [r7, #4]
 8003a04:	681b      	ldr	r3, [r3, #0]
 8003a06:	430a      	orrs	r2, r1
 8003a08:	60da      	str	r2, [r3, #12]
  }

  /* Set the Low Frequency mode */
  ADC->CCR &= (uint32_t)~ADC_CCR_LFMEN;
 8003a0a:	4b6a      	ldr	r3, [pc, #424]	@ (8003bb4 <HAL_ADC_Init+0x2d4>)
 8003a0c:	681a      	ldr	r2, [r3, #0]
 8003a0e:	4b69      	ldr	r3, [pc, #420]	@ (8003bb4 <HAL_ADC_Init+0x2d4>)
 8003a10:	496a      	ldr	r1, [pc, #424]	@ (8003bbc <HAL_ADC_Init+0x2dc>)
 8003a12:	400a      	ands	r2, r1
 8003a14:	601a      	str	r2, [r3, #0]
  ADC->CCR |= __HAL_ADC_CCR_LOWFREQUENCY(hadc->Init.LowPowerFrequencyMode);
 8003a16:	4b67      	ldr	r3, [pc, #412]	@ (8003bb4 <HAL_ADC_Init+0x2d4>)
 8003a18:	6819      	ldr	r1, [r3, #0]
 8003a1a:	687b      	ldr	r3, [r7, #4]
 8003a1c:	6b5b      	ldr	r3, [r3, #52]	@ 0x34
 8003a1e:	065a      	lsls	r2, r3, #25
 8003a20:	4b64      	ldr	r3, [pc, #400]	@ (8003bb4 <HAL_ADC_Init+0x2d4>)
 8003a22:	430a      	orrs	r2, r1
 8003a24:	601a      	str	r2, [r3, #0]

  /* Enable voltage regulator (if disabled at this step) */
  if (HAL_IS_BIT_CLR(hadc->Instance->CR, ADC_CR_ADVREGEN))
 8003a26:	687b      	ldr	r3, [r7, #4]
 8003a28:	681b      	ldr	r3, [r3, #0]
 8003a2a:	689a      	ldr	r2, [r3, #8]
 8003a2c:	2380      	movs	r3, #128	@ 0x80
 8003a2e:	055b      	lsls	r3, r3, #21
 8003a30:	4013      	ands	r3, r2
 8003a32:	d108      	bne.n	8003a46 <HAL_ADC_Init+0x166>
  {
    /* Set ADVREGEN bit */
    hadc->Instance->CR |= ADC_CR_ADVREGEN;
 8003a34:	687b      	ldr	r3, [r7, #4]
 8003a36:	681b      	ldr	r3, [r3, #0]
 8003a38:	689a      	ldr	r2, [r3, #8]
 8003a3a:	687b      	ldr	r3, [r7, #4]
 8003a3c:	681b      	ldr	r3, [r3, #0]
 8003a3e:	2180      	movs	r1, #128	@ 0x80
 8003a40:	0549      	lsls	r1, r1, #21
 8003a42:	430a      	orrs	r2, r1
 8003a44:	609a      	str	r2, [r3, #8]
  /*  - Continuous conversion mode                                            */
  /*  - DMA continuous request                                                */
  /*  - Overrun                                                               */
  /*  - AutoDelay feature                                                     */
  /*  - Discontinuous mode                                                    */
  hadc->Instance->CFGR1 &= ~(ADC_CFGR1_ALIGN   |
 8003a46:	687b      	ldr	r3, [r7, #4]
 8003a48:	681b      	ldr	r3, [r3, #0]
 8003a4a:	68da      	ldr	r2, [r3, #12]
 8003a4c:	687b      	ldr	r3, [r7, #4]
 8003a4e:	681b      	ldr	r3, [r3, #0]
 8003a50:	495b      	ldr	r1, [pc, #364]	@ (8003bc0 <HAL_ADC_Init+0x2e0>)
 8003a52:	400a      	ands	r2, r1
 8003a54:	60da      	str	r2, [r3, #12]
                             ADC_CFGR1_OVRMOD  |
                             ADC_CFGR1_AUTDLY  |
                             ADC_CFGR1_AUTOFF  |
                             ADC_CFGR1_DISCEN);

  hadc->Instance->CFGR1 |= (hadc->Init.DataAlign                             |
 8003a56:	687b      	ldr	r3, [r7, #4]
 8003a58:	681b      	ldr	r3, [r3, #0]
 8003a5a:	68d9      	ldr	r1, [r3, #12]
 8003a5c:	687b      	ldr	r3, [r7, #4]
 8003a5e:	68da      	ldr	r2, [r3, #12]
                            ADC_SCANDIR(hadc->Init.ScanConvMode)             |
 8003a60:	687b      	ldr	r3, [r7, #4]
 8003a62:	691b      	ldr	r3, [r3, #16]
 8003a64:	2b02      	cmp	r3, #2
 8003a66:	d101      	bne.n	8003a6c <HAL_ADC_Init+0x18c>
 8003a68:	2304      	movs	r3, #4
 8003a6a:	e000      	b.n	8003a6e <HAL_ADC_Init+0x18e>
 8003a6c:	2300      	movs	r3, #0
  hadc->Instance->CFGR1 |= (hadc->Init.DataAlign                             |
 8003a6e:	431a      	orrs	r2, r3
                            ADC_CONTINUOUS((uint32_t)hadc->Init.ContinuousConvMode)    |
 8003a70:	687b      	ldr	r3, [r7, #4]
 8003a72:	2020      	movs	r0, #32
 8003a74:	5c1b      	ldrb	r3, [r3, r0]
 8003a76:	035b      	lsls	r3, r3, #13
                            ADC_SCANDIR(hadc->Init.ScanConvMode)             |
 8003a78:	431a      	orrs	r2, r3
                            ADC_DMACONTREQ((uint32_t)hadc->Init.DMAContinuousRequests) |
 8003a7a:	687b      	ldr	r3, [r7, #4]
 8003a7c:	202c      	movs	r0, #44	@ 0x2c
 8003a7e:	5c1b      	ldrb	r3, [r3, r0]
 8003a80:	005b      	lsls	r3, r3, #1
                            ADC_CONTINUOUS((uint32_t)hadc->Init.ContinuousConvMode)    |
 8003a82:	431a      	orrs	r2, r3
                            hadc->Init.Overrun                               |
 8003a84:	687b      	ldr	r3, [r7, #4]
 8003a86:	6b1b      	ldr	r3, [r3, #48]	@ 0x30
                            ADC_DMACONTREQ((uint32_t)hadc->Init.DMAContinuousRequests) |
 8003a88:	431a      	orrs	r2, r3
                            __HAL_ADC_CFGR1_AutoDelay(hadc->Init.LowPowerAutoWait) |
 8003a8a:	687b      	ldr	r3, [r7, #4]
 8003a8c:	699b      	ldr	r3, [r3, #24]
 8003a8e:	039b      	lsls	r3, r3, #14
                            hadc->Init.Overrun                               |
 8003a90:	431a      	orrs	r2, r3
                            __HAL_ADC_CFGR1_AUTOFF(hadc->Init.LowPowerAutoPowerOff));
 8003a92:	687b      	ldr	r3, [r7, #4]
 8003a94:	69db      	ldr	r3, [r3, #28]
 8003a96:	03db      	lsls	r3, r3, #15
                            __HAL_ADC_CFGR1_AutoDelay(hadc->Init.LowPowerAutoWait) |
 8003a98:	431a      	orrs	r2, r3
  hadc->Instance->CFGR1 |= (hadc->Init.DataAlign                             |
 8003a9a:	687b      	ldr	r3, [r7, #4]
 8003a9c:	681b      	ldr	r3, [r3, #0]
 8003a9e:	430a      	orrs	r2, r1
 8003aa0:	60da      	str	r2, [r3, #12]
  /* Enable external trigger if trigger selection is different of software  */
  /* start.                                                                 */
  /* Note: This configuration keeps the hardware feature of parameter       */
  /*       ExternalTrigConvEdge "trigger edge none" equivalent to           */
  /*       software start.                                                  */
  if (hadc->Init.ExternalTrigConv != ADC_SOFTWARE_START)
 8003aa2:	687b      	ldr	r3, [r7, #4]
 8003aa4:	6a5a      	ldr	r2, [r3, #36]	@ 0x24
 8003aa6:	23c2      	movs	r3, #194	@ 0xc2
 8003aa8:	33ff      	adds	r3, #255	@ 0xff
 8003aaa:	429a      	cmp	r2, r3
 8003aac:	d00b      	beq.n	8003ac6 <HAL_ADC_Init+0x1e6>
  {
    hadc->Instance->CFGR1 |= hadc->Init.ExternalTrigConv |
 8003aae:	687b      	ldr	r3, [r7, #4]
 8003ab0:	681b      	ldr	r3, [r3, #0]
 8003ab2:	68d9      	ldr	r1, [r3, #12]
 8003ab4:	687b      	ldr	r3, [r7, #4]
 8003ab6:	6a5a      	ldr	r2, [r3, #36]	@ 0x24
                             hadc->Init.ExternalTrigConvEdge;
 8003ab8:	687b      	ldr	r3, [r7, #4]
 8003aba:	6a9b      	ldr	r3, [r3, #40]	@ 0x28
    hadc->Instance->CFGR1 |= hadc->Init.ExternalTrigConv |
 8003abc:	431a      	orrs	r2, r3
 8003abe:	687b      	ldr	r3, [r7, #4]
 8003ac0:	681b      	ldr	r3, [r3, #0]
 8003ac2:	430a      	orrs	r2, r1
 8003ac4:	60da      	str	r2, [r3, #12]
  }

  /* Enable discontinuous mode only if continuous mode is disabled */
  if (hadc->Init.DiscontinuousConvMode == ENABLE)
 8003ac6:	687b      	ldr	r3, [r7, #4]
 8003ac8:	2221      	movs	r2, #33	@ 0x21
 8003aca:	5c9b      	ldrb	r3, [r3, r2]
 8003acc:	2b01      	cmp	r3, #1
 8003ace:	d11a      	bne.n	8003b06 <HAL_ADC_Init+0x226>
  {
    if (hadc->Init.ContinuousConvMode == DISABLE)
 8003ad0:	687b      	ldr	r3, [r7, #4]
 8003ad2:	2220      	movs	r2, #32
 8003ad4:	5c9b      	ldrb	r3, [r3, r2]
 8003ad6:	2b00      	cmp	r3, #0
 8003ad8:	d109      	bne.n	8003aee <HAL_ADC_Init+0x20e>
    {
      /* Enable the selected ADC group regular discontinuous mode */
      hadc->Instance->CFGR1 |= (ADC_CFGR1_DISCEN);
 8003ada:	687b      	ldr	r3, [r7, #4]
 8003adc:	681b      	ldr	r3, [r3, #0]
 8003ade:	68da      	ldr	r2, [r3, #12]
 8003ae0:	687b      	ldr	r3, [r7, #4]
 8003ae2:	681b      	ldr	r3, [r3, #0]
 8003ae4:	2180      	movs	r1, #128	@ 0x80
 8003ae6:	0249      	lsls	r1, r1, #9
 8003ae8:	430a      	orrs	r2, r1
 8003aea:	60da      	str	r2, [r3, #12]
 8003aec:	e00b      	b.n	8003b06 <HAL_ADC_Init+0x226>
      /* ADC regular group discontinuous was intended to be enabled,        */
      /* but ADC regular group modes continuous and sequencer discontinuous */
      /* cannot be enabled simultaneously.                                  */

      /* Update ADC state machine to error */
      SET_BIT(hadc->State, HAL_ADC_STATE_ERROR_CONFIG);
 8003aee:	687b      	ldr	r3, [r7, #4]
 8003af0:	6d5b      	ldr	r3, [r3, #84]	@ 0x54
 8003af2:	2220      	movs	r2, #32
 8003af4:	431a      	orrs	r2, r3
 8003af6:	687b      	ldr	r3, [r7, #4]
 8003af8:	655a      	str	r2, [r3, #84]	@ 0x54

      /* Set ADC error code to ADC peripheral internal error */
      SET_BIT(hadc->ErrorCode, HAL_ADC_ERROR_INTERNAL);
 8003afa:	687b      	ldr	r3, [r7, #4]
 8003afc:	6d9b      	ldr	r3, [r3, #88]	@ 0x58
 8003afe:	2201      	movs	r2, #1
 8003b00:	431a      	orrs	r2, r3
 8003b02:	687b      	ldr	r3, [r7, #4]
 8003b04:	659a      	str	r2, [r3, #88]	@ 0x58
    }
  }

  if (hadc->Init.OversamplingMode == ENABLE)
 8003b06:	687b      	ldr	r3, [r7, #4]
 8003b08:	6bdb      	ldr	r3, [r3, #60]	@ 0x3c
 8003b0a:	2b01      	cmp	r3, #1
 8003b0c:	d11f      	bne.n	8003b4e <HAL_ADC_Init+0x26e>
    /* Configuration of Oversampler:                                          */
    /*  - Oversampling Ratio                                                  */
    /*  - Right bit shift                                                     */
    /*  - Triggered mode                                                      */

    hadc->Instance->CFGR2 &= ~(ADC_CFGR2_OVSR |
 8003b0e:	687b      	ldr	r3, [r7, #4]
 8003b10:	681b      	ldr	r3, [r3, #0]
 8003b12:	691a      	ldr	r2, [r3, #16]
 8003b14:	687b      	ldr	r3, [r7, #4]
 8003b16:	681b      	ldr	r3, [r3, #0]
 8003b18:	492a      	ldr	r1, [pc, #168]	@ (8003bc4 <HAL_ADC_Init+0x2e4>)
 8003b1a:	400a      	ands	r2, r1
 8003b1c:	611a      	str	r2, [r3, #16]
                               ADC_CFGR2_OVSS |
                               ADC_CFGR2_TOVS);

    hadc->Instance->CFGR2 |= (hadc->Init.Oversample.Ratio         |
 8003b1e:	687b      	ldr	r3, [r7, #4]
 8003b20:	681b      	ldr	r3, [r3, #0]
 8003b22:	6919      	ldr	r1, [r3, #16]
 8003b24:	687b      	ldr	r3, [r7, #4]
 8003b26:	6c1a      	ldr	r2, [r3, #64]	@ 0x40
                              hadc->Init.Oversample.RightBitShift             |
 8003b28:	687b      	ldr	r3, [r7, #4]
 8003b2a:	6c5b      	ldr	r3, [r3, #68]	@ 0x44
    hadc->Instance->CFGR2 |= (hadc->Init.Oversample.Ratio         |
 8003b2c:	431a      	orrs	r2, r3
                              hadc->Init.Oversample.TriggeredMode);
 8003b2e:	687b      	ldr	r3, [r7, #4]
 8003b30:	6c9b      	ldr	r3, [r3, #72]	@ 0x48
                              hadc->Init.Oversample.RightBitShift             |
 8003b32:	431a      	orrs	r2, r3
    hadc->Instance->CFGR2 |= (hadc->Init.Oversample.Ratio         |
 8003b34:	687b      	ldr	r3, [r7, #4]
 8003b36:	681b      	ldr	r3, [r3, #0]
 8003b38:	430a      	orrs	r2, r1
 8003b3a:	611a      	str	r2, [r3, #16]

    /* Enable OverSampling mode */
    hadc->Instance->CFGR2 |= ADC_CFGR2_OVSE;
 8003b3c:	687b      	ldr	r3, [r7, #4]
 8003b3e:	681b      	ldr	r3, [r3, #0]
 8003b40:	691a      	ldr	r2, [r3, #16]
 8003b42:	687b      	ldr	r3, [r7, #4]
 8003b44:	681b      	ldr	r3, [r3, #0]
 8003b46:	2101      	movs	r1, #1
 8003b48:	430a      	orrs	r2, r1
 8003b4a:	611a      	str	r2, [r3, #16]
 8003b4c:	e00e      	b.n	8003b6c <HAL_ADC_Init+0x28c>
  }
  else
  {
    if (HAL_IS_BIT_SET(hadc->Instance->CFGR2, ADC_CFGR2_OVSE))
 8003b4e:	687b      	ldr	r3, [r7, #4]
 8003b50:	681b      	ldr	r3, [r3, #0]
 8003b52:	691b      	ldr	r3, [r3, #16]
 8003b54:	2201      	movs	r2, #1
 8003b56:	4013      	ands	r3, r2
 8003b58:	2b01      	cmp	r3, #1
 8003b5a:	d107      	bne.n	8003b6c <HAL_ADC_Init+0x28c>
    {
      /* Disable OverSampling mode if needed */
      hadc->Instance->CFGR2 &= ~ADC_CFGR2_OVSE;
 8003b5c:	687b      	ldr	r3, [r7, #4]
 8003b5e:	681b      	ldr	r3, [r3, #0]
 8003b60:	691a      	ldr	r2, [r3, #16]
 8003b62:	687b      	ldr	r3, [r7, #4]
 8003b64:	681b      	ldr	r3, [r3, #0]
 8003b66:	2101      	movs	r1, #1
 8003b68:	438a      	bics	r2, r1
 8003b6a:	611a      	str	r2, [r3, #16]
    }
  }

  /* Clear the old sampling time */
  hadc->Instance->SMPR &= (uint32_t)(~ADC_SMPR_SMPR);
 8003b6c:	687b      	ldr	r3, [r7, #4]
 8003b6e:	681b      	ldr	r3, [r3, #0]
 8003b70:	695a      	ldr	r2, [r3, #20]
 8003b72:	687b      	ldr	r3, [r7, #4]
 8003b74:	681b      	ldr	r3, [r3, #0]
 8003b76:	2107      	movs	r1, #7
 8003b78:	438a      	bics	r2, r1
 8003b7a:	615a      	str	r2, [r3, #20]

  /* Set the new sample time */
  hadc->Instance->SMPR |= hadc->Init.SamplingTime;
 8003b7c:	687b      	ldr	r3, [r7, #4]
 8003b7e:	681b      	ldr	r3, [r3, #0]
 8003b80:	6959      	ldr	r1, [r3, #20]
 8003b82:	687b      	ldr	r3, [r7, #4]
 8003b84:	6b9a      	ldr	r2, [r3, #56]	@ 0x38
 8003b86:	687b      	ldr	r3, [r7, #4]
 8003b88:	681b      	ldr	r3, [r3, #0]
 8003b8a:	430a      	orrs	r2, r1
 8003b8c:	615a      	str	r2, [r3, #20]

  /* Clear ADC error code */
  ADC_CLEAR_ERRORCODE(hadc);
 8003b8e:	687b      	ldr	r3, [r7, #4]
 8003b90:	2200      	movs	r2, #0
 8003b92:	659a      	str	r2, [r3, #88]	@ 0x58

  /* Set the ADC state */
  ADC_STATE_CLR_SET(hadc->State,
 8003b94:	687b      	ldr	r3, [r7, #4]
 8003b96:	6d5b      	ldr	r3, [r3, #84]	@ 0x54
 8003b98:	2203      	movs	r2, #3
 8003b9a:	4393      	bics	r3, r2
 8003b9c:	2201      	movs	r2, #1
 8003b9e:	431a      	orrs	r2, r3
 8003ba0:	687b      	ldr	r3, [r7, #4]
 8003ba2:	655a      	str	r2, [r3, #84]	@ 0x54
                    HAL_ADC_STATE_BUSY_INTERNAL,
                    HAL_ADC_STATE_READY);


  /* Return function status */
  return HAL_OK;
 8003ba4:	2300      	movs	r3, #0
}
 8003ba6:	0018      	movs	r0, r3
 8003ba8:	46bd      	mov	sp, r7
 8003baa:	b002      	add	sp, #8
 8003bac:	bd80      	pop	{r7, pc}
 8003bae:	46c0      	nop			@ (mov r8, r8)
 8003bb0:	fffffefd 	.word	0xfffffefd
 8003bb4:	40012708 	.word	0x40012708
 8003bb8:	ffc3ffff 	.word	0xffc3ffff
 8003bbc:	fdffffff 	.word	0xfdffffff
 8003bc0:	fffe0219 	.word	0xfffe0219
 8003bc4:	fffffc03 	.word	0xfffffc03

08003bc8 <HAL_ADC_Start>:
  * @note   Interruptions enabled in this function: None.
  * @param  hadc ADC handle
  * @retval HAL status
  */
HAL_StatusTypeDef HAL_ADC_Start(ADC_HandleTypeDef *hadc)
{
 8003bc8:	b590      	push	{r4, r7, lr}
 8003bca:	b085      	sub	sp, #20
 8003bcc:	af00      	add	r7, sp, #0
 8003bce:	6078      	str	r0, [r7, #4]
  HAL_StatusTypeDef tmp_hal_status = HAL_OK;
 8003bd0:	230f      	movs	r3, #15
 8003bd2:	18fb      	adds	r3, r7, r3
 8003bd4:	2200      	movs	r2, #0
 8003bd6:	701a      	strb	r2, [r3, #0]

  /* Check the parameters */
  assert_param(IS_ADC_ALL_INSTANCE(hadc->Instance));

  /* Perform ADC enable and conversion start if no conversion is on going */
  if (ADC_IS_CONVERSION_ONGOING_REGULAR(hadc) == RESET)
 8003bd8:	687b      	ldr	r3, [r7, #4]
 8003bda:	681b      	ldr	r3, [r3, #0]
 8003bdc:	689b      	ldr	r3, [r3, #8]
 8003bde:	2204      	movs	r2, #4
 8003be0:	4013      	ands	r3, r2
 8003be2:	d138      	bne.n	8003c56 <HAL_ADC_Start+0x8e>
  {
    /* Process locked */
    __HAL_LOCK(hadc);
 8003be4:	687b      	ldr	r3, [r7, #4]
 8003be6:	2250      	movs	r2, #80	@ 0x50
 8003be8:	5c9b      	ldrb	r3, [r3, r2]
 8003bea:	2b01      	cmp	r3, #1
 8003bec:	d101      	bne.n	8003bf2 <HAL_ADC_Start+0x2a>
 8003bee:	2302      	movs	r3, #2
 8003bf0:	e038      	b.n	8003c64 <HAL_ADC_Start+0x9c>
 8003bf2:	687b      	ldr	r3, [r7, #4]
 8003bf4:	2250      	movs	r2, #80	@ 0x50
 8003bf6:	2101      	movs	r1, #1
 8003bf8:	5499      	strb	r1, [r3, r2]

    /* Enable the ADC peripheral */
    /* If low power mode AutoPowerOff is enabled, power-on/off phases are     */
    /* performed automatically by hardware.                                   */
    if (hadc->Init.LowPowerAutoPowerOff != ENABLE)
 8003bfa:	687b      	ldr	r3, [r7, #4]
 8003bfc:	69db      	ldr	r3, [r3, #28]
 8003bfe:	2b01      	cmp	r3, #1
 8003c00:	d007      	beq.n	8003c12 <HAL_ADC_Start+0x4a>
    {
      tmp_hal_status = ADC_Enable(hadc);
 8003c02:	230f      	movs	r3, #15
 8003c04:	18fc      	adds	r4, r7, r3
 8003c06:	687b      	ldr	r3, [r7, #4]
 8003c08:	0018      	movs	r0, r3
 8003c0a:	f000 f979 	bl	8003f00 <ADC_Enable>
 8003c0e:	0003      	movs	r3, r0
 8003c10:	7023      	strb	r3, [r4, #0]
    }

    /* Start conversion if ADC is effectively enabled */
    if (tmp_hal_status == HAL_OK)
 8003c12:	230f      	movs	r3, #15
 8003c14:	18fb      	adds	r3, r7, r3
 8003c16:	781b      	ldrb	r3, [r3, #0]
 8003c18:	2b00      	cmp	r3, #0
 8003c1a:	d120      	bne.n	8003c5e <HAL_ADC_Start+0x96>
    {
      /* Set ADC state                                                        */
      /* - Clear state bitfield related to regular group conversion results   */
      /* - Set state bitfield related to regular operation                    */
      ADC_STATE_CLR_SET(hadc->State,
 8003c1c:	687b      	ldr	r3, [r7, #4]
 8003c1e:	6d5b      	ldr	r3, [r3, #84]	@ 0x54
 8003c20:	4a12      	ldr	r2, [pc, #72]	@ (8003c6c <HAL_ADC_Start+0xa4>)
 8003c22:	4013      	ands	r3, r2
 8003c24:	2280      	movs	r2, #128	@ 0x80
 8003c26:	0052      	lsls	r2, r2, #1
 8003c28:	431a      	orrs	r2, r3
 8003c2a:	687b      	ldr	r3, [r7, #4]
 8003c2c:	655a      	str	r2, [r3, #84]	@ 0x54
                        HAL_ADC_STATE_READY | HAL_ADC_STATE_REG_EOC | HAL_ADC_STATE_REG_OVR | HAL_ADC_STATE_REG_EOSMP,
                        HAL_ADC_STATE_REG_BUSY);

      /* Reset ADC all error code fields */
      ADC_CLEAR_ERRORCODE(hadc);
 8003c2e:	687b      	ldr	r3, [r7, #4]
 8003c30:	2200      	movs	r2, #0
 8003c32:	659a      	str	r2, [r3, #88]	@ 0x58

      /* Process unlocked */
      /* Unlock before starting ADC conversions: in case of potential         */
      /* interruption, to let the process to ADC IRQ Handler.                 */
      __HAL_UNLOCK(hadc);
 8003c34:	687b      	ldr	r3, [r7, #4]
 8003c36:	2250      	movs	r2, #80	@ 0x50
 8003c38:	2100      	movs	r1, #0
 8003c3a:	5499      	strb	r1, [r3, r2]

      /* Clear regular group conversion flag and overrun flag */
      /* (To ensure of no unknown state from potential previous ADC           */
      /* operations)                                                          */
      __HAL_ADC_CLEAR_FLAG(hadc, (ADC_FLAG_EOC | ADC_FLAG_EOS | ADC_FLAG_OVR));
 8003c3c:	687b      	ldr	r3, [r7, #4]
 8003c3e:	681b      	ldr	r3, [r3, #0]
 8003c40:	221c      	movs	r2, #28
 8003c42:	601a      	str	r2, [r3, #0]

      /* Enable conversion of regular group.                                  */
      /* If software start has been selected, conversion starts immediately.  */
      /* If external trigger has been selected, conversion will start at next */
      /* trigger event.                                                       */
      hadc->Instance->CR |= ADC_CR_ADSTART;
 8003c44:	687b      	ldr	r3, [r7, #4]
 8003c46:	681b      	ldr	r3, [r3, #0]
 8003c48:	689a      	ldr	r2, [r3, #8]
 8003c4a:	687b      	ldr	r3, [r7, #4]
 8003c4c:	681b      	ldr	r3, [r3, #0]
 8003c4e:	2104      	movs	r1, #4
 8003c50:	430a      	orrs	r2, r1
 8003c52:	609a      	str	r2, [r3, #8]
 8003c54:	e003      	b.n	8003c5e <HAL_ADC_Start+0x96>
    }
  }
  else
  {
    tmp_hal_status = HAL_BUSY;
 8003c56:	230f      	movs	r3, #15
 8003c58:	18fb      	adds	r3, r7, r3
 8003c5a:	2202      	movs	r2, #2
 8003c5c:	701a      	strb	r2, [r3, #0]
  }

  /* Return function status */
  return tmp_hal_status;
 8003c5e:	230f      	movs	r3, #15
 8003c60:	18fb      	adds	r3, r7, r3
 8003c62:	781b      	ldrb	r3, [r3, #0]
}
 8003c64:	0018      	movs	r0, r3
 8003c66:	46bd      	mov	sp, r7
 8003c68:	b005      	add	sp, #20
 8003c6a:	bd90      	pop	{r4, r7, pc}
 8003c6c:	fffff0fe 	.word	0xfffff0fe

08003c70 <HAL_ADC_PollForConversion>:
  * @param  hadc ADC handle
  * @param  Timeout Timeout value in millisecond.
  * @retval HAL status
  */
HAL_StatusTypeDef HAL_ADC_PollForConversion(ADC_HandleTypeDef *hadc, uint32_t Timeout)
{
 8003c70:	b580      	push	{r7, lr}
 8003c72:	b084      	sub	sp, #16
 8003c74:	af00      	add	r7, sp, #0
 8003c76:	6078      	str	r0, [r7, #4]
 8003c78:	6039      	str	r1, [r7, #0]
  uint32_t tickstart = 0;
 8003c7a:	2300      	movs	r3, #0
 8003c7c:	60bb      	str	r3, [r7, #8]
  uint32_t tmp_Flag_EOC   = 0x00;
 8003c7e:	2300      	movs	r3, #0
 8003c80:	60fb      	str	r3, [r7, #12]

  /* Check the parameters */
  assert_param(IS_ADC_ALL_INSTANCE(hadc->Instance));

  /* If end of conversion selected to end of sequence conversions */
  if (hadc->Init.EOCSelection == ADC_EOC_SEQ_CONV)
 8003c82:	687b      	ldr	r3, [r7, #4]
 8003c84:	695b      	ldr	r3, [r3, #20]
 8003c86:	2b08      	cmp	r3, #8
 8003c88:	d102      	bne.n	8003c90 <HAL_ADC_PollForConversion+0x20>
  {
    tmp_Flag_EOC = ADC_FLAG_EOS;
 8003c8a:	2308      	movs	r3, #8
 8003c8c:	60fb      	str	r3, [r7, #12]
 8003c8e:	e014      	b.n	8003cba <HAL_ADC_PollForConversion+0x4a>
    /* each conversion:                                                       */
    /* Particular case is ADC configured in DMA mode and ADC sequencer with   */
    /* several ranks and polling for end of each conversion.                  */
    /* For code simplicity sake, this particular case is generalized to       */
    /* ADC configured in DMA mode and and polling for end of each conversion. */
    if (HAL_IS_BIT_SET(hadc->Instance->CFGR1, ADC_CFGR1_DMAEN))
 8003c90:	687b      	ldr	r3, [r7, #4]
 8003c92:	681b      	ldr	r3, [r3, #0]
 8003c94:	68db      	ldr	r3, [r3, #12]
 8003c96:	2201      	movs	r2, #1
 8003c98:	4013      	ands	r3, r2
 8003c9a:	2b01      	cmp	r3, #1
 8003c9c:	d10b      	bne.n	8003cb6 <HAL_ADC_PollForConversion+0x46>
    {
      /* Update ADC state machine to error */
      SET_BIT(hadc->State, HAL_ADC_STATE_ERROR_CONFIG);
 8003c9e:	687b      	ldr	r3, [r7, #4]
 8003ca0:	6d5b      	ldr	r3, [r3, #84]	@ 0x54
 8003ca2:	2220      	movs	r2, #32
 8003ca4:	431a      	orrs	r2, r3
 8003ca6:	687b      	ldr	r3, [r7, #4]
 8003ca8:	655a      	str	r2, [r3, #84]	@ 0x54

      /* Process unlocked */
      __HAL_UNLOCK(hadc);
 8003caa:	687b      	ldr	r3, [r7, #4]
 8003cac:	2250      	movs	r2, #80	@ 0x50
 8003cae:	2100      	movs	r1, #0
 8003cb0:	5499      	strb	r1, [r3, r2]

      return HAL_ERROR;
 8003cb2:	2301      	movs	r3, #1
 8003cb4:	e072      	b.n	8003d9c <HAL_ADC_PollForConversion+0x12c>
    }
    else
    {
      tmp_Flag_EOC = (ADC_FLAG_EOC | ADC_FLAG_EOS);
 8003cb6:	230c      	movs	r3, #12
 8003cb8:	60fb      	str	r3, [r7, #12]
    }
  }

  /* Get tick count */
  tickstart = HAL_GetTick();
 8003cba:	f7ff fde3 	bl	8003884 <HAL_GetTick>
 8003cbe:	0003      	movs	r3, r0
 8003cc0:	60bb      	str	r3, [r7, #8]

  /* Wait until End of unitary conversion or sequence conversions flag is raised */
  while (HAL_IS_BIT_CLR(hadc->Instance->ISR, tmp_Flag_EOC))
 8003cc2:	e01f      	b.n	8003d04 <HAL_ADC_PollForConversion+0x94>
  {
    /* Check if timeout is disabled (set to infinite wait) */
    if (Timeout != HAL_MAX_DELAY)
 8003cc4:	683b      	ldr	r3, [r7, #0]
 8003cc6:	3301      	adds	r3, #1
 8003cc8:	d01c      	beq.n	8003d04 <HAL_ADC_PollForConversion+0x94>
    {
      if ((Timeout == 0U) || ((HAL_GetTick() - tickstart) > Timeout))
 8003cca:	683b      	ldr	r3, [r7, #0]
 8003ccc:	2b00      	cmp	r3, #0
 8003cce:	d007      	beq.n	8003ce0 <HAL_ADC_PollForConversion+0x70>
 8003cd0:	f7ff fdd8 	bl	8003884 <HAL_GetTick>
 8003cd4:	0002      	movs	r2, r0
 8003cd6:	68bb      	ldr	r3, [r7, #8]
 8003cd8:	1ad3      	subs	r3, r2, r3
 8003cda:	683a      	ldr	r2, [r7, #0]
 8003cdc:	429a      	cmp	r2, r3
 8003cde:	d211      	bcs.n	8003d04 <HAL_ADC_PollForConversion+0x94>
      {
        /* New check to avoid false timeout detection in case of preemption */
        if (HAL_IS_BIT_CLR(hadc->Instance->ISR, tmp_Flag_EOC))
 8003ce0:	687b      	ldr	r3, [r7, #4]
 8003ce2:	681b      	ldr	r3, [r3, #0]
 8003ce4:	681b      	ldr	r3, [r3, #0]
 8003ce6:	68fa      	ldr	r2, [r7, #12]
 8003ce8:	4013      	ands	r3, r2
 8003cea:	d10b      	bne.n	8003d04 <HAL_ADC_PollForConversion+0x94>
        {
          /* Update ADC state machine to timeout */
          SET_BIT(hadc->State, HAL_ADC_STATE_TIMEOUT);
 8003cec:	687b      	ldr	r3, [r7, #4]
 8003cee:	6d5b      	ldr	r3, [r3, #84]	@ 0x54
 8003cf0:	2204      	movs	r2, #4
 8003cf2:	431a      	orrs	r2, r3
 8003cf4:	687b      	ldr	r3, [r7, #4]
 8003cf6:	655a      	str	r2, [r3, #84]	@ 0x54

          /* Process unlocked */
          __HAL_UNLOCK(hadc);
 8003cf8:	687b      	ldr	r3, [r7, #4]
 8003cfa:	2250      	movs	r2, #80	@ 0x50
 8003cfc:	2100      	movs	r1, #0
 8003cfe:	5499      	strb	r1, [r3, r2]

          return HAL_TIMEOUT;
 8003d00:	2303      	movs	r3, #3
 8003d02:	e04b      	b.n	8003d9c <HAL_ADC_PollForConversion+0x12c>
  while (HAL_IS_BIT_CLR(hadc->Instance->ISR, tmp_Flag_EOC))
 8003d04:	687b      	ldr	r3, [r7, #4]
 8003d06:	681b      	ldr	r3, [r3, #0]
 8003d08:	681b      	ldr	r3, [r3, #0]
 8003d0a:	68fa      	ldr	r2, [r7, #12]
 8003d0c:	4013      	ands	r3, r2
 8003d0e:	d0d9      	beq.n	8003cc4 <HAL_ADC_PollForConversion+0x54>
      }
    }
  }

  /* Update ADC state machine */
  SET_BIT(hadc->State, HAL_ADC_STATE_REG_EOC);
 8003d10:	687b      	ldr	r3, [r7, #4]
 8003d12:	6d5b      	ldr	r3, [r3, #84]	@ 0x54
 8003d14:	2280      	movs	r2, #128	@ 0x80
 8003d16:	0092      	lsls	r2, r2, #2
 8003d18:	431a      	orrs	r2, r3
 8003d1a:	687b      	ldr	r3, [r7, #4]
 8003d1c:	655a      	str	r2, [r3, #84]	@ 0x54

  /* Determine whether any further conversion upcoming on group regular       */
  /* by external trigger, continuous mode or scan sequence on going.          */
  if (ADC_IS_SOFTWARE_START_REGULAR(hadc)        &&
 8003d1e:	687b      	ldr	r3, [r7, #4]
 8003d20:	681b      	ldr	r3, [r3, #0]
 8003d22:	68da      	ldr	r2, [r3, #12]
 8003d24:	23c0      	movs	r3, #192	@ 0xc0
 8003d26:	011b      	lsls	r3, r3, #4
 8003d28:	4013      	ands	r3, r2
 8003d2a:	d12e      	bne.n	8003d8a <HAL_ADC_PollForConversion+0x11a>
      (hadc->Init.ContinuousConvMode == DISABLE))
 8003d2c:	687b      	ldr	r3, [r7, #4]
 8003d2e:	2220      	movs	r2, #32
 8003d30:	5c9b      	ldrb	r3, [r3, r2]
  if (ADC_IS_SOFTWARE_START_REGULAR(hadc)        &&
 8003d32:	2b00      	cmp	r3, #0
 8003d34:	d129      	bne.n	8003d8a <HAL_ADC_PollForConversion+0x11a>
  {
    /* If End of Sequence is reached, disable interrupts */
    if (__HAL_ADC_GET_FLAG(hadc, ADC_FLAG_EOS))
 8003d36:	687b      	ldr	r3, [r7, #4]
 8003d38:	681b      	ldr	r3, [r3, #0]
 8003d3a:	681b      	ldr	r3, [r3, #0]
 8003d3c:	2208      	movs	r2, #8
 8003d3e:	4013      	ands	r3, r2
 8003d40:	2b08      	cmp	r3, #8
 8003d42:	d122      	bne.n	8003d8a <HAL_ADC_PollForConversion+0x11a>
    {
      /* Allowed to modify bits ADC_IT_EOC/ADC_IT_EOS only if bit             */
      /* ADSTART==0 (no conversion on going)                                  */
      if (ADC_IS_CONVERSION_ONGOING_REGULAR(hadc) == RESET)
 8003d44:	687b      	ldr	r3, [r7, #4]
 8003d46:	681b      	ldr	r3, [r3, #0]
 8003d48:	689b      	ldr	r3, [r3, #8]
 8003d4a:	2204      	movs	r2, #4
 8003d4c:	4013      	ands	r3, r2
 8003d4e:	d110      	bne.n	8003d72 <HAL_ADC_PollForConversion+0x102>
      {
        /* Disable ADC end of single conversion interrupt on group regular */
        /* Note: Overrun interrupt was enabled with EOC interrupt in          */
        /* HAL_Start_IT(), but is not disabled here because can be used       */
        /* by overrun IRQ process below.                                      */
        __HAL_ADC_DISABLE_IT(hadc, ADC_IT_EOC | ADC_IT_EOS);
 8003d50:	687b      	ldr	r3, [r7, #4]
 8003d52:	681b      	ldr	r3, [r3, #0]
 8003d54:	685a      	ldr	r2, [r3, #4]
 8003d56:	687b      	ldr	r3, [r7, #4]
 8003d58:	681b      	ldr	r3, [r3, #0]
 8003d5a:	210c      	movs	r1, #12
 8003d5c:	438a      	bics	r2, r1
 8003d5e:	605a      	str	r2, [r3, #4]

        /* Set ADC state */
        ADC_STATE_CLR_SET(hadc->State,
 8003d60:	687b      	ldr	r3, [r7, #4]
 8003d62:	6d5b      	ldr	r3, [r3, #84]	@ 0x54
 8003d64:	4a0f      	ldr	r2, [pc, #60]	@ (8003da4 <HAL_ADC_PollForConversion+0x134>)
 8003d66:	4013      	ands	r3, r2
 8003d68:	2201      	movs	r2, #1
 8003d6a:	431a      	orrs	r2, r3
 8003d6c:	687b      	ldr	r3, [r7, #4]
 8003d6e:	655a      	str	r2, [r3, #84]	@ 0x54
 8003d70:	e00b      	b.n	8003d8a <HAL_ADC_PollForConversion+0x11a>
                          HAL_ADC_STATE_READY);
      }
      else
      {
        /* Change ADC state to error state */
        SET_BIT(hadc->State, HAL_ADC_STATE_ERROR_CONFIG);
 8003d72:	687b      	ldr	r3, [r7, #4]
 8003d74:	6d5b      	ldr	r3, [r3, #84]	@ 0x54
 8003d76:	2220      	movs	r2, #32
 8003d78:	431a      	orrs	r2, r3
 8003d7a:	687b      	ldr	r3, [r7, #4]
 8003d7c:	655a      	str	r2, [r3, #84]	@ 0x54

        /* Set ADC error code to ADC peripheral internal error */
        SET_BIT(hadc->ErrorCode, HAL_ADC_ERROR_INTERNAL);
 8003d7e:	687b      	ldr	r3, [r7, #4]
 8003d80:	6d9b      	ldr	r3, [r3, #88]	@ 0x58
 8003d82:	2201      	movs	r2, #1
 8003d84:	431a      	orrs	r2, r3
 8003d86:	687b      	ldr	r3, [r7, #4]
 8003d88:	659a      	str	r2, [r3, #88]	@ 0x58
  }

  /* Clear end of conversion flag of regular group if low power feature       */
  /* "LowPowerAutoWait " is disabled, to not interfere with this feature      */
  /* until data register is read using function HAL_ADC_GetValue().           */
  if (hadc->Init.LowPowerAutoWait == DISABLE)
 8003d8a:	687b      	ldr	r3, [r7, #4]
 8003d8c:	699b      	ldr	r3, [r3, #24]
 8003d8e:	2b00      	cmp	r3, #0
 8003d90:	d103      	bne.n	8003d9a <HAL_ADC_PollForConversion+0x12a>
  {
    /* Clear regular group conversion flag */
    __HAL_ADC_CLEAR_FLAG(hadc, (ADC_FLAG_EOC | ADC_FLAG_EOS));
 8003d92:	687b      	ldr	r3, [r7, #4]
 8003d94:	681b      	ldr	r3, [r3, #0]
 8003d96:	220c      	movs	r2, #12
 8003d98:	601a      	str	r2, [r3, #0]
  }

  /* Return function status */
  return HAL_OK;
 8003d9a:	2300      	movs	r3, #0
}
 8003d9c:	0018      	movs	r0, r3
 8003d9e:	46bd      	mov	sp, r7
 8003da0:	b004      	add	sp, #16
 8003da2:	bd80      	pop	{r7, pc}
 8003da4:	fffffefe 	.word	0xfffffefe

08003da8 <HAL_ADC_GetValue>:
  *         or @ref __HAL_ADC_CLEAR_FLAG(&hadc, ADC_FLAG_EOS).
  * @param  hadc ADC handle
  * @retval ADC group regular conversion data
  */
uint32_t HAL_ADC_GetValue(ADC_HandleTypeDef *hadc)
{
 8003da8:	b580      	push	{r7, lr}
 8003daa:	b082      	sub	sp, #8
 8003dac:	af00      	add	r7, sp, #0
 8003dae:	6078      	str	r0, [r7, #4]

  /* Note: EOC flag is not cleared here by software because automatically     */
  /*       cleared by hardware when reading register DR.                      */

  /* Return ADC converted value */
  return hadc->Instance->DR;
 8003db0:	687b      	ldr	r3, [r7, #4]
 8003db2:	681b      	ldr	r3, [r3, #0]
 8003db4:	6c1b      	ldr	r3, [r3, #64]	@ 0x40
}
 8003db6:	0018      	movs	r0, r3
 8003db8:	46bd      	mov	sp, r7
 8003dba:	b002      	add	sp, #8
 8003dbc:	bd80      	pop	{r7, pc}
	...

08003dc0 <HAL_ADC_ConfigChannel>:
  * @param  hadc ADC handle
  * @param  sConfig Structure of ADC channel assigned to ADC group regular.
  * @retval HAL status
  */
HAL_StatusTypeDef HAL_ADC_ConfigChannel(ADC_HandleTypeDef *hadc, ADC_ChannelConfTypeDef *sConfig)
{
 8003dc0:	b580      	push	{r7, lr}
 8003dc2:	b082      	sub	sp, #8
 8003dc4:	af00      	add	r7, sp, #0
 8003dc6:	6078      	str	r0, [r7, #4]
 8003dc8:	6039      	str	r1, [r7, #0]
  assert_param(IS_ADC_ALL_INSTANCE(hadc->Instance));
  assert_param(IS_ADC_CHANNEL(sConfig->Channel));
  assert_param(IS_ADC_RANK(sConfig->Rank));

  /* Process locked */
  __HAL_LOCK(hadc);
 8003dca:	687b      	ldr	r3, [r7, #4]
 8003dcc:	2250      	movs	r2, #80	@ 0x50
 8003dce:	5c9b      	ldrb	r3, [r3, r2]
 8003dd0:	2b01      	cmp	r3, #1
 8003dd2:	d101      	bne.n	8003dd8 <HAL_ADC_ConfigChannel+0x18>
 8003dd4:	2302      	movs	r3, #2
 8003dd6:	e085      	b.n	8003ee4 <HAL_ADC_ConfigChannel+0x124>
 8003dd8:	687b      	ldr	r3, [r7, #4]
 8003dda:	2250      	movs	r2, #80	@ 0x50
 8003ddc:	2101      	movs	r1, #1
 8003dde:	5499      	strb	r1, [r3, r2]
  /* Parameters update conditioned to ADC state:                              */
  /* Parameters that can be updated when ADC is disabled or enabled without   */
  /* conversion on going on regular group:                                    */
  /*  - Channel number                                                        */
  /*  - Management of internal measurement channels: Vbat/VrefInt/TempSensor  */
  if (ADC_IS_CONVERSION_ONGOING_REGULAR(hadc) != RESET)
 8003de0:	687b      	ldr	r3, [r7, #4]
 8003de2:	681b      	ldr	r3, [r3, #0]
 8003de4:	689b      	ldr	r3, [r3, #8]
 8003de6:	2204      	movs	r2, #4
 8003de8:	4013      	ands	r3, r2
 8003dea:	d00b      	beq.n	8003e04 <HAL_ADC_ConfigChannel+0x44>
  {
    /* Update ADC state machine to error */
    SET_BIT(hadc->State, HAL_ADC_STATE_ERROR_CONFIG);
 8003dec:	687b      	ldr	r3, [r7, #4]
 8003dee:	6d5b      	ldr	r3, [r3, #84]	@ 0x54
 8003df0:	2220      	movs	r2, #32
 8003df2:	431a      	orrs	r2, r3
 8003df4:	687b      	ldr	r3, [r7, #4]
 8003df6:	655a      	str	r2, [r3, #84]	@ 0x54
    /* Process unlocked */
    __HAL_UNLOCK(hadc);
 8003df8:	687b      	ldr	r3, [r7, #4]
 8003dfa:	2250      	movs	r2, #80	@ 0x50
 8003dfc:	2100      	movs	r1, #0
 8003dfe:	5499      	strb	r1, [r3, r2]
    return HAL_ERROR;
 8003e00:	2301      	movs	r3, #1
 8003e02:	e06f      	b.n	8003ee4 <HAL_ADC_ConfigChannel+0x124>
  }

  if (sConfig->Rank != ADC_RANK_NONE)
 8003e04:	683b      	ldr	r3, [r7, #0]
 8003e06:	685b      	ldr	r3, [r3, #4]
 8003e08:	4a38      	ldr	r2, [pc, #224]	@ (8003eec <HAL_ADC_ConfigChannel+0x12c>)
 8003e0a:	4293      	cmp	r3, r2
 8003e0c:	d035      	beq.n	8003e7a <HAL_ADC_ConfigChannel+0xba>
  {
    /* Enable selected channels */
    hadc->Instance->CHSELR |= (uint32_t)(sConfig->Channel & ADC_CHANNEL_MASK);
 8003e0e:	687b      	ldr	r3, [r7, #4]
 8003e10:	681b      	ldr	r3, [r3, #0]
 8003e12:	6a99      	ldr	r1, [r3, #40]	@ 0x28
 8003e14:	683b      	ldr	r3, [r7, #0]
 8003e16:	681b      	ldr	r3, [r3, #0]
 8003e18:	035b      	lsls	r3, r3, #13
 8003e1a:	0b5a      	lsrs	r2, r3, #13
 8003e1c:	687b      	ldr	r3, [r7, #4]
 8003e1e:	681b      	ldr	r3, [r3, #0]
 8003e20:	430a      	orrs	r2, r1
 8003e22:	629a      	str	r2, [r3, #40]	@ 0x28
    /* dedicated internal buffers and path.                                     */

#if defined(ADC_CCR_TSEN)
    /* If Temperature sensor channel is selected, then enable the internal      */
    /* buffers and path  */
    if (((sConfig->Channel & ADC_CHANNEL_MASK) & ADC_CHANNEL_TEMPSENSOR) == (ADC_CHANNEL_TEMPSENSOR & ADC_CHANNEL_MASK))
 8003e24:	683b      	ldr	r3, [r7, #0]
 8003e26:	681a      	ldr	r2, [r3, #0]
 8003e28:	2380      	movs	r3, #128	@ 0x80
 8003e2a:	02db      	lsls	r3, r3, #11
 8003e2c:	4013      	ands	r3, r2
 8003e2e:	d009      	beq.n	8003e44 <HAL_ADC_ConfigChannel+0x84>
    {
      ADC->CCR |= ADC_CCR_TSEN;
 8003e30:	4b2f      	ldr	r3, [pc, #188]	@ (8003ef0 <HAL_ADC_ConfigChannel+0x130>)
 8003e32:	681a      	ldr	r2, [r3, #0]
 8003e34:	4b2e      	ldr	r3, [pc, #184]	@ (8003ef0 <HAL_ADC_ConfigChannel+0x130>)
 8003e36:	2180      	movs	r1, #128	@ 0x80
 8003e38:	0409      	lsls	r1, r1, #16
 8003e3a:	430a      	orrs	r2, r1
 8003e3c:	601a      	str	r2, [r3, #0]

      /* Delay for temperature sensor stabilization time */
      ADC_DelayMicroSecond(ADC_TEMPSENSOR_DELAY_US);
 8003e3e:	200a      	movs	r0, #10
 8003e40:	f000 f8c6 	bl	8003fd0 <ADC_DelayMicroSecond>
    }
#endif

    /* If VRefInt channel is selected, then enable the internal buffers and path   */
    if (((sConfig->Channel & ADC_CHANNEL_MASK) & ADC_CHANNEL_VREFINT) == (ADC_CHANNEL_VREFINT & ADC_CHANNEL_MASK))
 8003e44:	683b      	ldr	r3, [r7, #0]
 8003e46:	681a      	ldr	r2, [r3, #0]
 8003e48:	2380      	movs	r3, #128	@ 0x80
 8003e4a:	029b      	lsls	r3, r3, #10
 8003e4c:	4013      	ands	r3, r2
 8003e4e:	d006      	beq.n	8003e5e <HAL_ADC_ConfigChannel+0x9e>
    {
      ADC->CCR |= ADC_CCR_VREFEN;
 8003e50:	4b27      	ldr	r3, [pc, #156]	@ (8003ef0 <HAL_ADC_ConfigChannel+0x130>)
 8003e52:	681a      	ldr	r2, [r3, #0]
 8003e54:	4b26      	ldr	r3, [pc, #152]	@ (8003ef0 <HAL_ADC_ConfigChannel+0x130>)
 8003e56:	2180      	movs	r1, #128	@ 0x80
 8003e58:	03c9      	lsls	r1, r1, #15
 8003e5a:	430a      	orrs	r2, r1
 8003e5c:	601a      	str	r2, [r3, #0]
    }

#if defined (STM32L053xx) || defined (STM32L063xx) || defined (STM32L073xx) || defined (STM32L083xx)
    /* If Vlcd channel is selected, then enable the internal buffers and path   */
    if (((sConfig->Channel & ADC_CHANNEL_MASK) & ADC_CHANNEL_VLCD) == (ADC_CHANNEL_VLCD & ADC_CHANNEL_MASK))
 8003e5e:	683b      	ldr	r3, [r7, #0]
 8003e60:	681a      	ldr	r2, [r3, #0]
 8003e62:	2380      	movs	r3, #128	@ 0x80
 8003e64:	025b      	lsls	r3, r3, #9
 8003e66:	4013      	ands	r3, r2
 8003e68:	d037      	beq.n	8003eda <HAL_ADC_ConfigChannel+0x11a>
    {
      ADC->CCR |= ADC_CCR_VLCDEN;
 8003e6a:	4b21      	ldr	r3, [pc, #132]	@ (8003ef0 <HAL_ADC_ConfigChannel+0x130>)
 8003e6c:	681a      	ldr	r2, [r3, #0]
 8003e6e:	4b20      	ldr	r3, [pc, #128]	@ (8003ef0 <HAL_ADC_ConfigChannel+0x130>)
 8003e70:	2180      	movs	r1, #128	@ 0x80
 8003e72:	0449      	lsls	r1, r1, #17
 8003e74:	430a      	orrs	r2, r1
 8003e76:	601a      	str	r2, [r3, #0]
 8003e78:	e02f      	b.n	8003eda <HAL_ADC_ConfigChannel+0x11a>
  }
  else
  {
    /* Regular sequence configuration */
    /* Reset the channel selection register from the selected channel */
    hadc->Instance->CHSELR &= ~((uint32_t)(sConfig->Channel & ADC_CHANNEL_MASK));
 8003e7a:	687b      	ldr	r3, [r7, #4]
 8003e7c:	681b      	ldr	r3, [r3, #0]
 8003e7e:	6a9a      	ldr	r2, [r3, #40]	@ 0x28
 8003e80:	683b      	ldr	r3, [r7, #0]
 8003e82:	681b      	ldr	r3, [r3, #0]
 8003e84:	035b      	lsls	r3, r3, #13
 8003e86:	0b5b      	lsrs	r3, r3, #13
 8003e88:	43d9      	mvns	r1, r3
 8003e8a:	687b      	ldr	r3, [r7, #4]
 8003e8c:	681b      	ldr	r3, [r3, #0]
 8003e8e:	400a      	ands	r2, r1
 8003e90:	629a      	str	r2, [r3, #40]	@ 0x28

    /* Management of internal measurement channels: VrefInt/TempSensor/Vbat */
    /* internal measurement paths disable: If internal channel selected,    */
    /* disable dedicated internal buffers and path.                         */
#if defined(ADC_CCR_TSEN)
    if (((sConfig->Channel & ADC_CHANNEL_MASK) & ADC_CHANNEL_TEMPSENSOR) == (ADC_CHANNEL_TEMPSENSOR & ADC_CHANNEL_MASK))
 8003e92:	683b      	ldr	r3, [r7, #0]
 8003e94:	681a      	ldr	r2, [r3, #0]
 8003e96:	2380      	movs	r3, #128	@ 0x80
 8003e98:	02db      	lsls	r3, r3, #11
 8003e9a:	4013      	ands	r3, r2
 8003e9c:	d005      	beq.n	8003eaa <HAL_ADC_ConfigChannel+0xea>
    {
      ADC->CCR &= ~ADC_CCR_TSEN;
 8003e9e:	4b14      	ldr	r3, [pc, #80]	@ (8003ef0 <HAL_ADC_ConfigChannel+0x130>)
 8003ea0:	681a      	ldr	r2, [r3, #0]
 8003ea2:	4b13      	ldr	r3, [pc, #76]	@ (8003ef0 <HAL_ADC_ConfigChannel+0x130>)
 8003ea4:	4913      	ldr	r1, [pc, #76]	@ (8003ef4 <HAL_ADC_ConfigChannel+0x134>)
 8003ea6:	400a      	ands	r2, r1
 8003ea8:	601a      	str	r2, [r3, #0]
    }
#endif

    /* If VRefInt channel is selected, then enable the internal buffers and path   */
    if (((sConfig->Channel & ADC_CHANNEL_MASK) & ADC_CHANNEL_VREFINT) == (ADC_CHANNEL_VREFINT & ADC_CHANNEL_MASK))
 8003eaa:	683b      	ldr	r3, [r7, #0]
 8003eac:	681a      	ldr	r2, [r3, #0]
 8003eae:	2380      	movs	r3, #128	@ 0x80
 8003eb0:	029b      	lsls	r3, r3, #10
 8003eb2:	4013      	ands	r3, r2
 8003eb4:	d005      	beq.n	8003ec2 <HAL_ADC_ConfigChannel+0x102>
    {
      ADC->CCR &= ~ADC_CCR_VREFEN;
 8003eb6:	4b0e      	ldr	r3, [pc, #56]	@ (8003ef0 <HAL_ADC_ConfigChannel+0x130>)
 8003eb8:	681a      	ldr	r2, [r3, #0]
 8003eba:	4b0d      	ldr	r3, [pc, #52]	@ (8003ef0 <HAL_ADC_ConfigChannel+0x130>)
 8003ebc:	490e      	ldr	r1, [pc, #56]	@ (8003ef8 <HAL_ADC_ConfigChannel+0x138>)
 8003ebe:	400a      	ands	r2, r1
 8003ec0:	601a      	str	r2, [r3, #0]
    }

#if defined (STM32L053xx) || defined (STM32L063xx) || defined (STM32L073xx) || defined (STM32L083xx)
    /* If Vlcd channel is selected, then enable the internal buffers and path   */
    if (((sConfig->Channel & ADC_CHANNEL_MASK) & ADC_CHANNEL_VLCD) == (ADC_CHANNEL_VLCD & ADC_CHANNEL_MASK))
 8003ec2:	683b      	ldr	r3, [r7, #0]
 8003ec4:	681a      	ldr	r2, [r3, #0]
 8003ec6:	2380      	movs	r3, #128	@ 0x80
 8003ec8:	025b      	lsls	r3, r3, #9
 8003eca:	4013      	ands	r3, r2
 8003ecc:	d005      	beq.n	8003eda <HAL_ADC_ConfigChannel+0x11a>
    {
      ADC->CCR &= ~ADC_CCR_VLCDEN;
 8003ece:	4b08      	ldr	r3, [pc, #32]	@ (8003ef0 <HAL_ADC_ConfigChannel+0x130>)
 8003ed0:	681a      	ldr	r2, [r3, #0]
 8003ed2:	4b07      	ldr	r3, [pc, #28]	@ (8003ef0 <HAL_ADC_ConfigChannel+0x130>)
 8003ed4:	4909      	ldr	r1, [pc, #36]	@ (8003efc <HAL_ADC_ConfigChannel+0x13c>)
 8003ed6:	400a      	ands	r2, r1
 8003ed8:	601a      	str	r2, [r3, #0]
    }
#endif
  }

  /* Process unlocked */
  __HAL_UNLOCK(hadc);
 8003eda:	687b      	ldr	r3, [r7, #4]
 8003edc:	2250      	movs	r2, #80	@ 0x50
 8003ede:	2100      	movs	r1, #0
 8003ee0:	5499      	strb	r1, [r3, r2]

  /* Return function status */
  return HAL_OK;
 8003ee2:	2300      	movs	r3, #0
}
 8003ee4:	0018      	movs	r0, r3
 8003ee6:	46bd      	mov	sp, r7
 8003ee8:	b002      	add	sp, #8
 8003eea:	bd80      	pop	{r7, pc}
 8003eec:	00001001 	.word	0x00001001
 8003ef0:	40012708 	.word	0x40012708
 8003ef4:	ff7fffff 	.word	0xff7fffff
 8003ef8:	ffbfffff 	.word	0xffbfffff
 8003efc:	feffffff 	.word	0xfeffffff

08003f00 <ADC_Enable>:
  *         "if (hadc->Init.LowPowerAutoPowerOff != ENABLE)".
  * @param  hadc ADC handle
  * @retval HAL status.
  */
static HAL_StatusTypeDef ADC_Enable(ADC_HandleTypeDef *hadc)
{
 8003f00:	b580      	push	{r7, lr}
 8003f02:	b084      	sub	sp, #16
 8003f04:	af00      	add	r7, sp, #0
 8003f06:	6078      	str	r0, [r7, #4]
  uint32_t tickstart = 0U;
 8003f08:	2300      	movs	r3, #0
 8003f0a:	60fb      	str	r3, [r7, #12]

  /* ADC enable and wait for ADC ready (in case of ADC is disabled or         */
  /* enabling phase not yet completed: flag ADC ready not yet set).           */
  /* Timeout implemented to not be stuck if ADC cannot be enabled (possible   */
  /* causes: ADC clock not running, ...).                                     */
  if (ADC_IS_ENABLE(hadc) == RESET)
 8003f0c:	687b      	ldr	r3, [r7, #4]
 8003f0e:	681b      	ldr	r3, [r3, #0]
 8003f10:	689b      	ldr	r3, [r3, #8]
 8003f12:	2203      	movs	r2, #3
 8003f14:	4013      	ands	r3, r2
 8003f16:	2b01      	cmp	r3, #1
 8003f18:	d108      	bne.n	8003f2c <ADC_Enable+0x2c>
 8003f1a:	687b      	ldr	r3, [r7, #4]
 8003f1c:	681b      	ldr	r3, [r3, #0]
 8003f1e:	681b      	ldr	r3, [r3, #0]
 8003f20:	2201      	movs	r2, #1
 8003f22:	4013      	ands	r3, r2
 8003f24:	2b01      	cmp	r3, #1
 8003f26:	d101      	bne.n	8003f2c <ADC_Enable+0x2c>
 8003f28:	2301      	movs	r3, #1
 8003f2a:	e000      	b.n	8003f2e <ADC_Enable+0x2e>
 8003f2c:	2300      	movs	r3, #0
 8003f2e:	2b00      	cmp	r3, #0
 8003f30:	d146      	bne.n	8003fc0 <ADC_Enable+0xc0>
  {
    /* Check if conditions to enable the ADC are fulfilled */
    if (ADC_ENABLING_CONDITIONS(hadc) == RESET)
 8003f32:	687b      	ldr	r3, [r7, #4]
 8003f34:	681b      	ldr	r3, [r3, #0]
 8003f36:	689b      	ldr	r3, [r3, #8]
 8003f38:	4a24      	ldr	r2, [pc, #144]	@ (8003fcc <ADC_Enable+0xcc>)
 8003f3a:	4013      	ands	r3, r2
 8003f3c:	d00d      	beq.n	8003f5a <ADC_Enable+0x5a>
    {
      /* Update ADC state machine to error */
      SET_BIT(hadc->State, HAL_ADC_STATE_ERROR_INTERNAL);
 8003f3e:	687b      	ldr	r3, [r7, #4]
 8003f40:	6d5b      	ldr	r3, [r3, #84]	@ 0x54
 8003f42:	2210      	movs	r2, #16
 8003f44:	431a      	orrs	r2, r3
 8003f46:	687b      	ldr	r3, [r7, #4]
 8003f48:	655a      	str	r2, [r3, #84]	@ 0x54

      /* Set ADC error code to ADC peripheral internal error */
      SET_BIT(hadc->ErrorCode, HAL_ADC_ERROR_INTERNAL);
 8003f4a:	687b      	ldr	r3, [r7, #4]
 8003f4c:	6d9b      	ldr	r3, [r3, #88]	@ 0x58
 8003f4e:	2201      	movs	r2, #1
 8003f50:	431a      	orrs	r2, r3
 8003f52:	687b      	ldr	r3, [r7, #4]
 8003f54:	659a      	str	r2, [r3, #88]	@ 0x58

      return HAL_ERROR;
 8003f56:	2301      	movs	r3, #1
 8003f58:	e033      	b.n	8003fc2 <ADC_Enable+0xc2>
    }

    /* Enable the ADC peripheral */
    __HAL_ADC_ENABLE(hadc);
 8003f5a:	687b      	ldr	r3, [r7, #4]
 8003f5c:	681b      	ldr	r3, [r3, #0]
 8003f5e:	689a      	ldr	r2, [r3, #8]
 8003f60:	687b      	ldr	r3, [r7, #4]
 8003f62:	681b      	ldr	r3, [r3, #0]
 8003f64:	2101      	movs	r1, #1
 8003f66:	430a      	orrs	r2, r1
 8003f68:	609a      	str	r2, [r3, #8]

    /* Delay for ADC stabilization time. */
    ADC_DelayMicroSecond(ADC_STAB_DELAY_US);
 8003f6a:	2001      	movs	r0, #1
 8003f6c:	f000 f830 	bl	8003fd0 <ADC_DelayMicroSecond>

    /* Get tick count */
    tickstart = HAL_GetTick();
 8003f70:	f7ff fc88 	bl	8003884 <HAL_GetTick>
 8003f74:	0003      	movs	r3, r0
 8003f76:	60fb      	str	r3, [r7, #12]

    /* Wait for ADC effectively enabled */
    while (__HAL_ADC_GET_FLAG(hadc, ADC_FLAG_RDY) == RESET)
 8003f78:	e01b      	b.n	8003fb2 <ADC_Enable+0xb2>
    {
      if ((HAL_GetTick() - tickstart) > ADC_ENABLE_TIMEOUT)
 8003f7a:	f7ff fc83 	bl	8003884 <HAL_GetTick>
 8003f7e:	0002      	movs	r2, r0
 8003f80:	68fb      	ldr	r3, [r7, #12]
 8003f82:	1ad3      	subs	r3, r2, r3
 8003f84:	2b0a      	cmp	r3, #10
 8003f86:	d914      	bls.n	8003fb2 <ADC_Enable+0xb2>
      {
        /* New check to avoid false timeout detection in case of preemption */
        if (__HAL_ADC_GET_FLAG(hadc, ADC_FLAG_RDY) == RESET)
 8003f88:	687b      	ldr	r3, [r7, #4]
 8003f8a:	681b      	ldr	r3, [r3, #0]
 8003f8c:	681b      	ldr	r3, [r3, #0]
 8003f8e:	2201      	movs	r2, #1
 8003f90:	4013      	ands	r3, r2
 8003f92:	2b01      	cmp	r3, #1
 8003f94:	d00d      	beq.n	8003fb2 <ADC_Enable+0xb2>
        {
          /* Update ADC state machine to error */
          SET_BIT(hadc->State, HAL_ADC_STATE_ERROR_INTERNAL);
 8003f96:	687b      	ldr	r3, [r7, #4]
 8003f98:	6d5b      	ldr	r3, [r3, #84]	@ 0x54
 8003f9a:	2210      	movs	r2, #16
 8003f9c:	431a      	orrs	r2, r3
 8003f9e:	687b      	ldr	r3, [r7, #4]
 8003fa0:	655a      	str	r2, [r3, #84]	@ 0x54

          /* Set ADC error code to ADC peripheral internal error */
          SET_BIT(hadc->ErrorCode, HAL_ADC_ERROR_INTERNAL);
 8003fa2:	687b      	ldr	r3, [r7, #4]
 8003fa4:	6d9b      	ldr	r3, [r3, #88]	@ 0x58
 8003fa6:	2201      	movs	r2, #1
 8003fa8:	431a      	orrs	r2, r3
 8003faa:	687b      	ldr	r3, [r7, #4]
 8003fac:	659a      	str	r2, [r3, #88]	@ 0x58

          return HAL_ERROR;
 8003fae:	2301      	movs	r3, #1
 8003fb0:	e007      	b.n	8003fc2 <ADC_Enable+0xc2>
    while (__HAL_ADC_GET_FLAG(hadc, ADC_FLAG_RDY) == RESET)
 8003fb2:	687b      	ldr	r3, [r7, #4]
 8003fb4:	681b      	ldr	r3, [r3, #0]
 8003fb6:	681b      	ldr	r3, [r3, #0]
 8003fb8:	2201      	movs	r2, #1
 8003fba:	4013      	ands	r3, r2
 8003fbc:	2b01      	cmp	r3, #1
 8003fbe:	d1dc      	bne.n	8003f7a <ADC_Enable+0x7a>
      }
    }
  }

  /* Return HAL status */
  return HAL_OK;
 8003fc0:	2300      	movs	r3, #0
}
 8003fc2:	0018      	movs	r0, r3
 8003fc4:	46bd      	mov	sp, r7
 8003fc6:	b004      	add	sp, #16
 8003fc8:	bd80      	pop	{r7, pc}
 8003fca:	46c0      	nop			@ (mov r8, r8)
 8003fcc:	80000017 	.word	0x80000017

08003fd0 <ADC_DelayMicroSecond>:
  * @brief  Delay micro seconds
  * @param  microSecond  delay
  * @retval None
  */
static void ADC_DelayMicroSecond(uint32_t microSecond)
{
 8003fd0:	b580      	push	{r7, lr}
 8003fd2:	b084      	sub	sp, #16
 8003fd4:	af00      	add	r7, sp, #0
 8003fd6:	6078      	str	r0, [r7, #4]
  /* Compute number of CPU cycles to wait for */
  __IO uint32_t waitLoopIndex = (microSecond * (SystemCoreClock / 1000000U));
 8003fd8:	4b0b      	ldr	r3, [pc, #44]	@ (8004008 <ADC_DelayMicroSecond+0x38>)
 8003fda:	681b      	ldr	r3, [r3, #0]
 8003fdc:	490b      	ldr	r1, [pc, #44]	@ (800400c <ADC_DelayMicroSecond+0x3c>)
 8003fde:	0018      	movs	r0, r3
 8003fe0:	f7fc f8ae 	bl	8000140 <__udivsi3>
 8003fe4:	0003      	movs	r3, r0
 8003fe6:	001a      	movs	r2, r3
 8003fe8:	687b      	ldr	r3, [r7, #4]
 8003fea:	4353      	muls	r3, r2
 8003fec:	60fb      	str	r3, [r7, #12]

  while (waitLoopIndex != 0U)
 8003fee:	e002      	b.n	8003ff6 <ADC_DelayMicroSecond+0x26>
  {
    waitLoopIndex--;
 8003ff0:	68fb      	ldr	r3, [r7, #12]
 8003ff2:	3b01      	subs	r3, #1
 8003ff4:	60fb      	str	r3, [r7, #12]
  while (waitLoopIndex != 0U)
 8003ff6:	68fb      	ldr	r3, [r7, #12]
 8003ff8:	2b00      	cmp	r3, #0
 8003ffa:	d1f9      	bne.n	8003ff0 <ADC_DelayMicroSecond+0x20>
  }
}
 8003ffc:	46c0      	nop			@ (mov r8, r8)
 8003ffe:	46c0      	nop			@ (mov r8, r8)
 8004000:	46bd      	mov	sp, r7
 8004002:	b004      	add	sp, #16
 8004004:	bd80      	pop	{r7, pc}
 8004006:	46c0      	nop			@ (mov r8, r8)
 8004008:	20000000 	.word	0x20000000
 800400c:	000f4240 	.word	0x000f4240

08004010 <HAL_ADCEx_Calibration_Start>:
  *          This parameter can be only of the following values:
  *            @arg ADC_SINGLE_ENDED: Channel in mode input single ended
  * @retval HAL status
  */
HAL_StatusTypeDef HAL_ADCEx_Calibration_Start(ADC_HandleTypeDef *hadc, uint32_t SingleDiff)
{
 8004010:	b580      	push	{r7, lr}
 8004012:	b086      	sub	sp, #24
 8004014:	af00      	add	r7, sp, #0
 8004016:	6078      	str	r0, [r7, #4]
 8004018:	6039      	str	r1, [r7, #0]
  HAL_StatusTypeDef tmp_hal_status = HAL_OK;
 800401a:	2317      	movs	r3, #23
 800401c:	18fb      	adds	r3, r7, r3
 800401e:	2200      	movs	r2, #0
 8004020:	701a      	strb	r2, [r3, #0]
  uint32_t tickstart = 0U;
 8004022:	2300      	movs	r3, #0
 8004024:	613b      	str	r3, [r7, #16]
  uint32_t backup_setting_adc_dma_transfer = 0U; /* Note: Variable not declared as volatile because register read is already declared as volatile */
 8004026:	2300      	movs	r3, #0
 8004028:	60fb      	str	r3, [r7, #12]

  /* Prevent unused argument(s) compilation warning */
  UNUSED(SingleDiff);

  /* Process locked */
  __HAL_LOCK(hadc);
 800402a:	687b      	ldr	r3, [r7, #4]
 800402c:	2250      	movs	r2, #80	@ 0x50
 800402e:	5c9b      	ldrb	r3, [r3, r2]
 8004030:	2b01      	cmp	r3, #1
 8004032:	d101      	bne.n	8004038 <HAL_ADCEx_Calibration_Start+0x28>
 8004034:	2302      	movs	r3, #2
 8004036:	e083      	b.n	8004140 <HAL_ADCEx_Calibration_Start+0x130>
 8004038:	687b      	ldr	r3, [r7, #4]
 800403a:	2250      	movs	r2, #80	@ 0x50
 800403c:	2101      	movs	r1, #1
 800403e:	5499      	strb	r1, [r3, r2]

  /* Calibration prerequisite: ADC must be disabled. */
  if (ADC_IS_ENABLE(hadc) == RESET)
 8004040:	687b      	ldr	r3, [r7, #4]
 8004042:	681b      	ldr	r3, [r3, #0]
 8004044:	689b      	ldr	r3, [r3, #8]
 8004046:	2203      	movs	r2, #3
 8004048:	4013      	ands	r3, r2
 800404a:	2b01      	cmp	r3, #1
 800404c:	d108      	bne.n	8004060 <HAL_ADCEx_Calibration_Start+0x50>
 800404e:	687b      	ldr	r3, [r7, #4]
 8004050:	681b      	ldr	r3, [r3, #0]
 8004052:	681b      	ldr	r3, [r3, #0]
 8004054:	2201      	movs	r2, #1
 8004056:	4013      	ands	r3, r2
 8004058:	2b01      	cmp	r3, #1
 800405a:	d101      	bne.n	8004060 <HAL_ADCEx_Calibration_Start+0x50>
 800405c:	2301      	movs	r3, #1
 800405e:	e000      	b.n	8004062 <HAL_ADCEx_Calibration_Start+0x52>
 8004060:	2300      	movs	r3, #0
 8004062:	2b00      	cmp	r3, #0
 8004064:	d15b      	bne.n	800411e <HAL_ADCEx_Calibration_Start+0x10e>
  {
    /* Set ADC state */
    ADC_STATE_CLR_SET(hadc->State,
 8004066:	687b      	ldr	r3, [r7, #4]
 8004068:	6d5b      	ldr	r3, [r3, #84]	@ 0x54
 800406a:	4a37      	ldr	r2, [pc, #220]	@ (8004148 <HAL_ADCEx_Calibration_Start+0x138>)
 800406c:	4013      	ands	r3, r2
 800406e:	2202      	movs	r2, #2
 8004070:	431a      	orrs	r2, r3
 8004072:	687b      	ldr	r3, [r7, #4]
 8004074:	655a      	str	r2, [r3, #84]	@ 0x54
    /* Note: Specificity of this STM32 series: Calibration factor is           */
    /*       available in data register and also transferred by DMA.           */
    /*       To not insert ADC calibration factor among ADC conversion data   */
    /*       in array variable, DMA transfer must be disabled during          */
    /*       calibration.                                                     */
    backup_setting_adc_dma_transfer = READ_BIT(hadc->Instance->CFGR1, ADC_CFGR1_DMAEN | ADC_CFGR1_DMACFG);
 8004076:	687b      	ldr	r3, [r7, #4]
 8004078:	681b      	ldr	r3, [r3, #0]
 800407a:	68db      	ldr	r3, [r3, #12]
 800407c:	2203      	movs	r2, #3
 800407e:	4013      	ands	r3, r2
 8004080:	60fb      	str	r3, [r7, #12]
    CLEAR_BIT(hadc->Instance->CFGR1, ADC_CFGR1_DMAEN | ADC_CFGR1_DMACFG);
 8004082:	687b      	ldr	r3, [r7, #4]
 8004084:	681b      	ldr	r3, [r3, #0]
 8004086:	68da      	ldr	r2, [r3, #12]
 8004088:	687b      	ldr	r3, [r7, #4]
 800408a:	681b      	ldr	r3, [r3, #0]
 800408c:	2103      	movs	r1, #3
 800408e:	438a      	bics	r2, r1
 8004090:	60da      	str	r2, [r3, #12]

    /* Start ADC calibration */
    hadc->Instance->CR |= ADC_CR_ADCAL;
 8004092:	687b      	ldr	r3, [r7, #4]
 8004094:	681b      	ldr	r3, [r3, #0]
 8004096:	689a      	ldr	r2, [r3, #8]
 8004098:	687b      	ldr	r3, [r7, #4]
 800409a:	681b      	ldr	r3, [r3, #0]
 800409c:	2180      	movs	r1, #128	@ 0x80
 800409e:	0609      	lsls	r1, r1, #24
 80040a0:	430a      	orrs	r2, r1
 80040a2:	609a      	str	r2, [r3, #8]

    tickstart = HAL_GetTick();
 80040a4:	f7ff fbee 	bl	8003884 <HAL_GetTick>
 80040a8:	0003      	movs	r3, r0
 80040aa:	613b      	str	r3, [r7, #16]

    /* Wait for calibration completion */
    while (HAL_IS_BIT_SET(hadc->Instance->CR, ADC_CR_ADCAL))
 80040ac:	e01d      	b.n	80040ea <HAL_ADCEx_Calibration_Start+0xda>
    {
      if ((HAL_GetTick() - tickstart) > ADC_CALIBRATION_TIMEOUT)
 80040ae:	f7ff fbe9 	bl	8003884 <HAL_GetTick>
 80040b2:	0002      	movs	r2, r0
 80040b4:	693b      	ldr	r3, [r7, #16]
 80040b6:	1ad3      	subs	r3, r2, r3
 80040b8:	2b0a      	cmp	r3, #10
 80040ba:	d916      	bls.n	80040ea <HAL_ADCEx_Calibration_Start+0xda>
      {
        /* New check to avoid false timeout detection in case of preemption */
        if (HAL_IS_BIT_SET(hadc->Instance->CR, ADC_CR_ADCAL))
 80040bc:	687b      	ldr	r3, [r7, #4]
 80040be:	681b      	ldr	r3, [r3, #0]
 80040c0:	689b      	ldr	r3, [r3, #8]
 80040c2:	0fdb      	lsrs	r3, r3, #31
 80040c4:	07da      	lsls	r2, r3, #31
 80040c6:	2380      	movs	r3, #128	@ 0x80
 80040c8:	061b      	lsls	r3, r3, #24
 80040ca:	429a      	cmp	r2, r3
 80040cc:	d10d      	bne.n	80040ea <HAL_ADCEx_Calibration_Start+0xda>
        {
          /* Update ADC state machine to error */
          ADC_STATE_CLR_SET(hadc->State,
 80040ce:	687b      	ldr	r3, [r7, #4]
 80040d0:	6d5b      	ldr	r3, [r3, #84]	@ 0x54
 80040d2:	2212      	movs	r2, #18
 80040d4:	4393      	bics	r3, r2
 80040d6:	2210      	movs	r2, #16
 80040d8:	431a      	orrs	r2, r3
 80040da:	687b      	ldr	r3, [r7, #4]
 80040dc:	655a      	str	r2, [r3, #84]	@ 0x54
                            HAL_ADC_STATE_BUSY_INTERNAL,
                            HAL_ADC_STATE_ERROR_INTERNAL);

          /* Process unlocked */
          __HAL_UNLOCK(hadc);
 80040de:	687b      	ldr	r3, [r7, #4]
 80040e0:	2250      	movs	r2, #80	@ 0x50
 80040e2:	2100      	movs	r1, #0
 80040e4:	5499      	strb	r1, [r3, r2]

          return HAL_ERROR;
 80040e6:	2301      	movs	r3, #1
 80040e8:	e02a      	b.n	8004140 <HAL_ADCEx_Calibration_Start+0x130>
    while (HAL_IS_BIT_SET(hadc->Instance->CR, ADC_CR_ADCAL))
 80040ea:	687b      	ldr	r3, [r7, #4]
 80040ec:	681b      	ldr	r3, [r3, #0]
 80040ee:	689b      	ldr	r3, [r3, #8]
 80040f0:	0fdb      	lsrs	r3, r3, #31
 80040f2:	07da      	lsls	r2, r3, #31
 80040f4:	2380      	movs	r3, #128	@ 0x80
 80040f6:	061b      	lsls	r3, r3, #24
 80040f8:	429a      	cmp	r2, r3
 80040fa:	d0d8      	beq.n	80040ae <HAL_ADCEx_Calibration_Start+0x9e>
        }
      }
    }

    /* Restore ADC DMA transfer request after calibration */
    SET_BIT(hadc->Instance->CFGR1, backup_setting_adc_dma_transfer);
 80040fc:	687b      	ldr	r3, [r7, #4]
 80040fe:	681b      	ldr	r3, [r3, #0]
 8004100:	68d9      	ldr	r1, [r3, #12]
 8004102:	687b      	ldr	r3, [r7, #4]
 8004104:	681b      	ldr	r3, [r3, #0]
 8004106:	68fa      	ldr	r2, [r7, #12]
 8004108:	430a      	orrs	r2, r1
 800410a:	60da      	str	r2, [r3, #12]

    /* Set ADC state */
    ADC_STATE_CLR_SET(hadc->State,
 800410c:	687b      	ldr	r3, [r7, #4]
 800410e:	6d5b      	ldr	r3, [r3, #84]	@ 0x54
 8004110:	2203      	movs	r2, #3
 8004112:	4393      	bics	r3, r2
 8004114:	2201      	movs	r2, #1
 8004116:	431a      	orrs	r2, r3
 8004118:	687b      	ldr	r3, [r7, #4]
 800411a:	655a      	str	r2, [r3, #84]	@ 0x54
 800411c:	e009      	b.n	8004132 <HAL_ADCEx_Calibration_Start+0x122>
                      HAL_ADC_STATE_READY);
  }
  else
  {
    /* Update ADC state machine to error */
    SET_BIT(hadc->State, HAL_ADC_STATE_ERROR_CONFIG);
 800411e:	687b      	ldr	r3, [r7, #4]
 8004120:	6d5b      	ldr	r3, [r3, #84]	@ 0x54
 8004122:	2220      	movs	r2, #32
 8004124:	431a      	orrs	r2, r3
 8004126:	687b      	ldr	r3, [r7, #4]
 8004128:	655a      	str	r2, [r3, #84]	@ 0x54

    tmp_hal_status = HAL_ERROR;
 800412a:	2317      	movs	r3, #23
 800412c:	18fb      	adds	r3, r7, r3
 800412e:	2201      	movs	r2, #1
 8004130:	701a      	strb	r2, [r3, #0]
  }

  /* Process unlocked */
  __HAL_UNLOCK(hadc);
 8004132:	687b      	ldr	r3, [r7, #4]
 8004134:	2250      	movs	r2, #80	@ 0x50
 8004136:	2100      	movs	r1, #0
 8004138:	5499      	strb	r1, [r3, r2]

  /* Return function status */
  return tmp_hal_status;
 800413a:	2317      	movs	r3, #23
 800413c:	18fb      	adds	r3, r7, r3
 800413e:	781b      	ldrb	r3, [r3, #0]
}
 8004140:	0018      	movs	r0, r3
 8004142:	46bd      	mov	sp, r7
 8004144:	b006      	add	sp, #24
 8004146:	bd80      	pop	{r7, pc}
 8004148:	fffffefd 	.word	0xfffffefd

0800414c <__NVIC_SetPriority>:
{
 800414c:	b590      	push	{r4, r7, lr}
 800414e:	b083      	sub	sp, #12
 8004150:	af00      	add	r7, sp, #0
 8004152:	0002      	movs	r2, r0
 8004154:	6039      	str	r1, [r7, #0]
 8004156:	1dfb      	adds	r3, r7, #7
 8004158:	701a      	strb	r2, [r3, #0]
  if ((int32_t)(IRQn) >= 0)
 800415a:	1dfb      	adds	r3, r7, #7
 800415c:	781b      	ldrb	r3, [r3, #0]
 800415e:	2b7f      	cmp	r3, #127	@ 0x7f
 8004160:	d828      	bhi.n	80041b4 <__NVIC_SetPriority+0x68>
    NVIC->IP[_IP_IDX(IRQn)]  = ((uint32_t)(NVIC->IP[_IP_IDX(IRQn)]  & ~(0xFFUL << _BIT_SHIFT(IRQn))) |
 8004162:	4a2f      	ldr	r2, [pc, #188]	@ (8004220 <__NVIC_SetPriority+0xd4>)
 8004164:	1dfb      	adds	r3, r7, #7
 8004166:	781b      	ldrb	r3, [r3, #0]
 8004168:	b25b      	sxtb	r3, r3
 800416a:	089b      	lsrs	r3, r3, #2
 800416c:	33c0      	adds	r3, #192	@ 0xc0
 800416e:	009b      	lsls	r3, r3, #2
 8004170:	589b      	ldr	r3, [r3, r2]
 8004172:	1dfa      	adds	r2, r7, #7
 8004174:	7812      	ldrb	r2, [r2, #0]
 8004176:	0011      	movs	r1, r2
 8004178:	2203      	movs	r2, #3
 800417a:	400a      	ands	r2, r1
 800417c:	00d2      	lsls	r2, r2, #3
 800417e:	21ff      	movs	r1, #255	@ 0xff
 8004180:	4091      	lsls	r1, r2
 8004182:	000a      	movs	r2, r1
 8004184:	43d2      	mvns	r2, r2
 8004186:	401a      	ands	r2, r3
 8004188:	0011      	movs	r1, r2
       (((priority << (8U - __NVIC_PRIO_BITS)) & (uint32_t)0xFFUL) << _BIT_SHIFT(IRQn)));
 800418a:	683b      	ldr	r3, [r7, #0]
 800418c:	019b      	lsls	r3, r3, #6
 800418e:	22ff      	movs	r2, #255	@ 0xff
 8004190:	401a      	ands	r2, r3
 8004192:	1dfb      	adds	r3, r7, #7
 8004194:	781b      	ldrb	r3, [r3, #0]
 8004196:	0018      	movs	r0, r3
 8004198:	2303      	movs	r3, #3
 800419a:	4003      	ands	r3, r0
 800419c:	00db      	lsls	r3, r3, #3
 800419e:	409a      	lsls	r2, r3
    NVIC->IP[_IP_IDX(IRQn)]  = ((uint32_t)(NVIC->IP[_IP_IDX(IRQn)]  & ~(0xFFUL << _BIT_SHIFT(IRQn))) |
 80041a0:	481f      	ldr	r0, [pc, #124]	@ (8004220 <__NVIC_SetPriority+0xd4>)
 80041a2:	1dfb      	adds	r3, r7, #7
 80041a4:	781b      	ldrb	r3, [r3, #0]
 80041a6:	b25b      	sxtb	r3, r3
 80041a8:	089b      	lsrs	r3, r3, #2
 80041aa:	430a      	orrs	r2, r1
 80041ac:	33c0      	adds	r3, #192	@ 0xc0
 80041ae:	009b      	lsls	r3, r3, #2
 80041b0:	501a      	str	r2, [r3, r0]
}
 80041b2:	e031      	b.n	8004218 <__NVIC_SetPriority+0xcc>
    SCB->SHP[_SHP_IDX(IRQn)] = ((uint32_t)(SCB->SHP[_SHP_IDX(IRQn)] & ~(0xFFUL << _BIT_SHIFT(IRQn))) |
 80041b4:	4a1b      	ldr	r2, [pc, #108]	@ (8004224 <__NVIC_SetPriority+0xd8>)
 80041b6:	1dfb      	adds	r3, r7, #7
 80041b8:	781b      	ldrb	r3, [r3, #0]
 80041ba:	0019      	movs	r1, r3
 80041bc:	230f      	movs	r3, #15
 80041be:	400b      	ands	r3, r1
 80041c0:	3b08      	subs	r3, #8
 80041c2:	089b      	lsrs	r3, r3, #2
 80041c4:	3306      	adds	r3, #6
 80041c6:	009b      	lsls	r3, r3, #2
 80041c8:	18d3      	adds	r3, r2, r3
 80041ca:	3304      	adds	r3, #4
 80041cc:	681b      	ldr	r3, [r3, #0]
 80041ce:	1dfa      	adds	r2, r7, #7
 80041d0:	7812      	ldrb	r2, [r2, #0]
 80041d2:	0011      	movs	r1, r2
 80041d4:	2203      	movs	r2, #3
 80041d6:	400a      	ands	r2, r1
 80041d8:	00d2      	lsls	r2, r2, #3
 80041da:	21ff      	movs	r1, #255	@ 0xff
 80041dc:	4091      	lsls	r1, r2
 80041de:	000a      	movs	r2, r1
 80041e0:	43d2      	mvns	r2, r2
 80041e2:	401a      	ands	r2, r3
 80041e4:	0011      	movs	r1, r2
       (((priority << (8U - __NVIC_PRIO_BITS)) & (uint32_t)0xFFUL) << _BIT_SHIFT(IRQn)));
 80041e6:	683b      	ldr	r3, [r7, #0]
 80041e8:	019b      	lsls	r3, r3, #6
 80041ea:	22ff      	movs	r2, #255	@ 0xff
 80041ec:	401a      	ands	r2, r3
 80041ee:	1dfb      	adds	r3, r7, #7
 80041f0:	781b      	ldrb	r3, [r3, #0]
 80041f2:	0018      	movs	r0, r3
 80041f4:	2303      	movs	r3, #3
 80041f6:	4003      	ands	r3, r0
 80041f8:	00db      	lsls	r3, r3, #3
 80041fa:	409a      	lsls	r2, r3
    SCB->SHP[_SHP_IDX(IRQn)] = ((uint32_t)(SCB->SHP[_SHP_IDX(IRQn)] & ~(0xFFUL << _BIT_SHIFT(IRQn))) |
 80041fc:	4809      	ldr	r0, [pc, #36]	@ (8004224 <__NVIC_SetPriority+0xd8>)
 80041fe:	1dfb      	adds	r3, r7, #7
 8004200:	781b      	ldrb	r3, [r3, #0]
 8004202:	001c      	movs	r4, r3
 8004204:	230f      	movs	r3, #15
 8004206:	4023      	ands	r3, r4
 8004208:	3b08      	subs	r3, #8
 800420a:	089b      	lsrs	r3, r3, #2
 800420c:	430a      	orrs	r2, r1
 800420e:	3306      	adds	r3, #6
 8004210:	009b      	lsls	r3, r3, #2
 8004212:	18c3      	adds	r3, r0, r3
 8004214:	3304      	adds	r3, #4
 8004216:	601a      	str	r2, [r3, #0]
}
 8004218:	46c0      	nop			@ (mov r8, r8)
 800421a:	46bd      	mov	sp, r7
 800421c:	b003      	add	sp, #12
 800421e:	bd90      	pop	{r4, r7, pc}
 8004220:	e000e100 	.word	0xe000e100
 8004224:	e000ed00 	.word	0xe000ed00

08004228 <SysTick_Config>:
  \note    When the variable <b>__Vendor_SysTickConfig</b> is set to 1, then the
           function <b>SysTick_Config</b> is not included. In this case, the file <b><i>device</i>.h</b>
           must contain a vendor-specific implementation of this function.
 */
__STATIC_INLINE uint32_t SysTick_Config(uint32_t ticks)
{
 8004228:	b580      	push	{r7, lr}
 800422a:	b082      	sub	sp, #8
 800422c:	af00      	add	r7, sp, #0
 800422e:	6078      	str	r0, [r7, #4]
  if ((ticks - 1UL) > SysTick_LOAD_RELOAD_Msk)
 8004230:	687b      	ldr	r3, [r7, #4]
 8004232:	1e5a      	subs	r2, r3, #1
 8004234:	2380      	movs	r3, #128	@ 0x80
 8004236:	045b      	lsls	r3, r3, #17
 8004238:	429a      	cmp	r2, r3
 800423a:	d301      	bcc.n	8004240 <SysTick_Config+0x18>
  {
    return (1UL);                                                   /* Reload value impossible */
 800423c:	2301      	movs	r3, #1
 800423e:	e010      	b.n	8004262 <SysTick_Config+0x3a>
  }

  SysTick->LOAD  = (uint32_t)(ticks - 1UL);                         /* set reload register */
 8004240:	4b0a      	ldr	r3, [pc, #40]	@ (800426c <SysTick_Config+0x44>)
 8004242:	687a      	ldr	r2, [r7, #4]
 8004244:	3a01      	subs	r2, #1
 8004246:	605a      	str	r2, [r3, #4]
  NVIC_SetPriority (SysTick_IRQn, (1UL << __NVIC_PRIO_BITS) - 1UL); /* set Priority for Systick Interrupt */
 8004248:	2301      	movs	r3, #1
 800424a:	425b      	negs	r3, r3
 800424c:	2103      	movs	r1, #3
 800424e:	0018      	movs	r0, r3
 8004250:	f7ff ff7c 	bl	800414c <__NVIC_SetPriority>
  SysTick->VAL   = 0UL;                                             /* Load the SysTick Counter Value */
 8004254:	4b05      	ldr	r3, [pc, #20]	@ (800426c <SysTick_Config+0x44>)
 8004256:	2200      	movs	r2, #0
 8004258:	609a      	str	r2, [r3, #8]
  SysTick->CTRL  = SysTick_CTRL_CLKSOURCE_Msk |
 800425a:	4b04      	ldr	r3, [pc, #16]	@ (800426c <SysTick_Config+0x44>)
 800425c:	2207      	movs	r2, #7
 800425e:	601a      	str	r2, [r3, #0]
                   SysTick_CTRL_TICKINT_Msk   |
                   SysTick_CTRL_ENABLE_Msk;                         /* Enable SysTick IRQ and SysTick Timer */
  return (0UL);                                                     /* Function successful */
 8004260:	2300      	movs	r3, #0
}
 8004262:	0018      	movs	r0, r3
 8004264:	46bd      	mov	sp, r7
 8004266:	b002      	add	sp, #8
 8004268:	bd80      	pop	{r7, pc}
 800426a:	46c0      	nop			@ (mov r8, r8)
 800426c:	e000e010 	.word	0xe000e010

08004270 <HAL_NVIC_SetPriority>:
  *         with stm32l0xx devices, this parameter is a dummy value and it is ignored, because 
  *         no subpriority supported in Cortex M0+ based products.   
  * @retval None
  */
void HAL_NVIC_SetPriority(IRQn_Type IRQn, uint32_t PreemptPriority, uint32_t SubPriority)
{ 
 8004270:	b580      	push	{r7, lr}
 8004272:	b084      	sub	sp, #16
 8004274:	af00      	add	r7, sp, #0
 8004276:	60b9      	str	r1, [r7, #8]
 8004278:	607a      	str	r2, [r7, #4]
 800427a:	210f      	movs	r1, #15
 800427c:	187b      	adds	r3, r7, r1
 800427e:	1c02      	adds	r2, r0, #0
 8004280:	701a      	strb	r2, [r3, #0]
    /* Check the parameters */
  assert_param(IS_NVIC_PREEMPTION_PRIORITY(PreemptPriority));
  NVIC_SetPriority(IRQn,PreemptPriority);
 8004282:	68ba      	ldr	r2, [r7, #8]
 8004284:	187b      	adds	r3, r7, r1
 8004286:	781b      	ldrb	r3, [r3, #0]
 8004288:	b25b      	sxtb	r3, r3
 800428a:	0011      	movs	r1, r2
 800428c:	0018      	movs	r0, r3
 800428e:	f7ff ff5d 	bl	800414c <__NVIC_SetPriority>

  /* Prevent unused argument(s) compilation warning */
  UNUSED(SubPriority);

}
 8004292:	46c0      	nop			@ (mov r8, r8)
 8004294:	46bd      	mov	sp, r7
 8004296:	b004      	add	sp, #16
 8004298:	bd80      	pop	{r7, pc}

0800429a <HAL_SYSTICK_Config>:
  * @param  TicksNumb Specifies the ticks Number of ticks between two interrupts.
  * @retval status:  - 0  Function succeeded.
  *                  - 1  Function failed.
  */
uint32_t HAL_SYSTICK_Config(uint32_t TicksNumb)
{
 800429a:	b580      	push	{r7, lr}
 800429c:	b082      	sub	sp, #8
 800429e:	af00      	add	r7, sp, #0
 80042a0:	6078      	str	r0, [r7, #4]
   return SysTick_Config(TicksNumb);
 80042a2:	687b      	ldr	r3, [r7, #4]
 80042a4:	0018      	movs	r0, r3
 80042a6:	f7ff ffbf 	bl	8004228 <SysTick_Config>
 80042aa:	0003      	movs	r3, r0
}
 80042ac:	0018      	movs	r0, r3
 80042ae:	46bd      	mov	sp, r7
 80042b0:	b002      	add	sp, #8
 80042b2:	bd80      	pop	{r7, pc}

080042b4 <HAL_GPIO_Init>:
  * @param  GPIO_Init pointer to a GPIO_InitTypeDef structure that contains
  *                    the configuration information for the specified GPIO peripheral.
  * @retval None
  */
void HAL_GPIO_Init(GPIO_TypeDef  *GPIOx, GPIO_InitTypeDef *GPIO_Init)
{
 80042b4:	b580      	push	{r7, lr}
 80042b6:	b086      	sub	sp, #24
 80042b8:	af00      	add	r7, sp, #0
 80042ba:	6078      	str	r0, [r7, #4]
 80042bc:	6039      	str	r1, [r7, #0]
  uint32_t position = 0x00U;
 80042be:	2300      	movs	r3, #0
 80042c0:	617b      	str	r3, [r7, #20]
  uint32_t iocurrent = 0x00U;
 80042c2:	2300      	movs	r3, #0
 80042c4:	60fb      	str	r3, [r7, #12]
  uint32_t temp = 0x00U;
 80042c6:	2300      	movs	r3, #0
 80042c8:	613b      	str	r3, [r7, #16]
  /* Check the parameters */
  assert_param(IS_GPIO_MODE(GPIO_Init->Mode));
  assert_param(IS_GPIO_PIN_AVAILABLE(GPIOx, (GPIO_Init->Pin)));

  /* Configure the port pins */
  while (((GPIO_Init->Pin) >> position) != 0)
 80042ca:	e155      	b.n	8004578 <HAL_GPIO_Init+0x2c4>
  {
    /* Get the IO position */
    iocurrent = (GPIO_Init->Pin) & (1U << position);
 80042cc:	683b      	ldr	r3, [r7, #0]
 80042ce:	681b      	ldr	r3, [r3, #0]
 80042d0:	2101      	movs	r1, #1
 80042d2:	697a      	ldr	r2, [r7, #20]
 80042d4:	4091      	lsls	r1, r2
 80042d6:	000a      	movs	r2, r1
 80042d8:	4013      	ands	r3, r2
 80042da:	60fb      	str	r3, [r7, #12]

    if (iocurrent)
 80042dc:	68fb      	ldr	r3, [r7, #12]
 80042de:	2b00      	cmp	r3, #0
 80042e0:	d100      	bne.n	80042e4 <HAL_GPIO_Init+0x30>
 80042e2:	e146      	b.n	8004572 <HAL_GPIO_Init+0x2be>
    {
      /*--------------------- GPIO Mode Configuration ------------------------*/
      /* In case of Output or Alternate function mode selection */
      if (((GPIO_Init->Mode & GPIO_MODE) == MODE_OUTPUT) ||
 80042e4:	683b      	ldr	r3, [r7, #0]
 80042e6:	685b      	ldr	r3, [r3, #4]
 80042e8:	2203      	movs	r2, #3
 80042ea:	4013      	ands	r3, r2
 80042ec:	2b01      	cmp	r3, #1
 80042ee:	d005      	beq.n	80042fc <HAL_GPIO_Init+0x48>
          ((GPIO_Init->Mode & GPIO_MODE) == MODE_AF))
 80042f0:	683b      	ldr	r3, [r7, #0]
 80042f2:	685b      	ldr	r3, [r3, #4]
 80042f4:	2203      	movs	r2, #3
 80042f6:	4013      	ands	r3, r2
      if (((GPIO_Init->Mode & GPIO_MODE) == MODE_OUTPUT) ||
 80042f8:	2b02      	cmp	r3, #2
 80042fa:	d130      	bne.n	800435e <HAL_GPIO_Init+0xaa>
      {
        /* Check the Speed parameter */
        assert_param(IS_GPIO_SPEED(GPIO_Init->Speed));
        /* Configure the IO Speed */
        temp = GPIOx->OSPEEDR;
 80042fc:	687b      	ldr	r3, [r7, #4]
 80042fe:	689b      	ldr	r3, [r3, #8]
 8004300:	613b      	str	r3, [r7, #16]
        temp &= ~(GPIO_OSPEEDER_OSPEED0 << (position * 2U));
 8004302:	697b      	ldr	r3, [r7, #20]
 8004304:	005b      	lsls	r3, r3, #1
 8004306:	2203      	movs	r2, #3
 8004308:	409a      	lsls	r2, r3
 800430a:	0013      	movs	r3, r2
 800430c:	43da      	mvns	r2, r3
 800430e:	693b      	ldr	r3, [r7, #16]
 8004310:	4013      	ands	r3, r2
 8004312:	613b      	str	r3, [r7, #16]
        temp |= (GPIO_Init->Speed << (position * 2U));
 8004314:	683b      	ldr	r3, [r7, #0]
 8004316:	68da      	ldr	r2, [r3, #12]
 8004318:	697b      	ldr	r3, [r7, #20]
 800431a:	005b      	lsls	r3, r3, #1
 800431c:	409a      	lsls	r2, r3
 800431e:	0013      	movs	r3, r2
 8004320:	693a      	ldr	r2, [r7, #16]
 8004322:	4313      	orrs	r3, r2
 8004324:	613b      	str	r3, [r7, #16]
        GPIOx->OSPEEDR = temp;
 8004326:	687b      	ldr	r3, [r7, #4]
 8004328:	693a      	ldr	r2, [r7, #16]
 800432a:	609a      	str	r2, [r3, #8]

        /* Configure the IO Output Type */
        temp = GPIOx->OTYPER;
 800432c:	687b      	ldr	r3, [r7, #4]
 800432e:	685b      	ldr	r3, [r3, #4]
 8004330:	613b      	str	r3, [r7, #16]
        temp &= ~(GPIO_OTYPER_OT_0 << position) ;
 8004332:	2201      	movs	r2, #1
 8004334:	697b      	ldr	r3, [r7, #20]
 8004336:	409a      	lsls	r2, r3
 8004338:	0013      	movs	r3, r2
 800433a:	43da      	mvns	r2, r3
 800433c:	693b      	ldr	r3, [r7, #16]
 800433e:	4013      	ands	r3, r2
 8004340:	613b      	str	r3, [r7, #16]
        temp |= (((GPIO_Init->Mode & OUTPUT_TYPE) >> OUTPUT_TYPE_Pos) << position);
 8004342:	683b      	ldr	r3, [r7, #0]
 8004344:	685b      	ldr	r3, [r3, #4]
 8004346:	091b      	lsrs	r3, r3, #4
 8004348:	2201      	movs	r2, #1
 800434a:	401a      	ands	r2, r3
 800434c:	697b      	ldr	r3, [r7, #20]
 800434e:	409a      	lsls	r2, r3
 8004350:	0013      	movs	r3, r2
 8004352:	693a      	ldr	r2, [r7, #16]
 8004354:	4313      	orrs	r3, r2
 8004356:	613b      	str	r3, [r7, #16]
        GPIOx->OTYPER = temp;
 8004358:	687b      	ldr	r3, [r7, #4]
 800435a:	693a      	ldr	r2, [r7, #16]
 800435c:	605a      	str	r2, [r3, #4]
      }

      if ((GPIO_Init->Mode & GPIO_MODE) != MODE_ANALOG)
 800435e:	683b      	ldr	r3, [r7, #0]
 8004360:	685b      	ldr	r3, [r3, #4]
 8004362:	2203      	movs	r2, #3
 8004364:	4013      	ands	r3, r2
 8004366:	2b03      	cmp	r3, #3
 8004368:	d017      	beq.n	800439a <HAL_GPIO_Init+0xe6>
      {
        /* Check the Pull parameter */
        assert_param(IS_GPIO_PULL(GPIO_Init->Pull));

        /* Activate the Pull-up or Pull down resistor for the current IO */
        temp = GPIOx->PUPDR;
 800436a:	687b      	ldr	r3, [r7, #4]
 800436c:	68db      	ldr	r3, [r3, #12]
 800436e:	613b      	str	r3, [r7, #16]
        temp &= ~(GPIO_PUPDR_PUPD0 << (position * 2U));
 8004370:	697b      	ldr	r3, [r7, #20]
 8004372:	005b      	lsls	r3, r3, #1
 8004374:	2203      	movs	r2, #3
 8004376:	409a      	lsls	r2, r3
 8004378:	0013      	movs	r3, r2
 800437a:	43da      	mvns	r2, r3
 800437c:	693b      	ldr	r3, [r7, #16]
 800437e:	4013      	ands	r3, r2
 8004380:	613b      	str	r3, [r7, #16]
        temp |= ((GPIO_Init->Pull) << (position * 2U));
 8004382:	683b      	ldr	r3, [r7, #0]
 8004384:	689a      	ldr	r2, [r3, #8]
 8004386:	697b      	ldr	r3, [r7, #20]
 8004388:	005b      	lsls	r3, r3, #1
 800438a:	409a      	lsls	r2, r3
 800438c:	0013      	movs	r3, r2
 800438e:	693a      	ldr	r2, [r7, #16]
 8004390:	4313      	orrs	r3, r2
 8004392:	613b      	str	r3, [r7, #16]
        GPIOx->PUPDR = temp;
 8004394:	687b      	ldr	r3, [r7, #4]
 8004396:	693a      	ldr	r2, [r7, #16]
 8004398:	60da      	str	r2, [r3, #12]
      }

      /* In case of Alternate function mode selection */
      if ((GPIO_Init->Mode & GPIO_MODE) == MODE_AF)
 800439a:	683b      	ldr	r3, [r7, #0]
 800439c:	685b      	ldr	r3, [r3, #4]
 800439e:	2203      	movs	r2, #3
 80043a0:	4013      	ands	r3, r2
 80043a2:	2b02      	cmp	r3, #2
 80043a4:	d123      	bne.n	80043ee <HAL_GPIO_Init+0x13a>
        /* Check the Alternate function parameters */
        assert_param(IS_GPIO_AF_INSTANCE(GPIOx));
        assert_param(IS_GPIO_AF(GPIO_Init->Alternate));

        /* Configure Alternate function mapped with the current IO */
        temp = GPIOx->AFR[position >> 3U];
 80043a6:	697b      	ldr	r3, [r7, #20]
 80043a8:	08da      	lsrs	r2, r3, #3
 80043aa:	687b      	ldr	r3, [r7, #4]
 80043ac:	3208      	adds	r2, #8
 80043ae:	0092      	lsls	r2, r2, #2
 80043b0:	58d3      	ldr	r3, [r2, r3]
 80043b2:	613b      	str	r3, [r7, #16]
        temp &= ~(0xFUL << ((uint32_t)(position & 0x07UL) * 4U));
 80043b4:	697b      	ldr	r3, [r7, #20]
 80043b6:	2207      	movs	r2, #7
 80043b8:	4013      	ands	r3, r2
 80043ba:	009b      	lsls	r3, r3, #2
 80043bc:	220f      	movs	r2, #15
 80043be:	409a      	lsls	r2, r3
 80043c0:	0013      	movs	r3, r2
 80043c2:	43da      	mvns	r2, r3
 80043c4:	693b      	ldr	r3, [r7, #16]
 80043c6:	4013      	ands	r3, r2
 80043c8:	613b      	str	r3, [r7, #16]
        temp |= ((uint32_t)(GPIO_Init->Alternate) << (((uint32_t)position & (uint32_t)0x07U) * 4U));
 80043ca:	683b      	ldr	r3, [r7, #0]
 80043cc:	691a      	ldr	r2, [r3, #16]
 80043ce:	697b      	ldr	r3, [r7, #20]
 80043d0:	2107      	movs	r1, #7
 80043d2:	400b      	ands	r3, r1
 80043d4:	009b      	lsls	r3, r3, #2
 80043d6:	409a      	lsls	r2, r3
 80043d8:	0013      	movs	r3, r2
 80043da:	693a      	ldr	r2, [r7, #16]
 80043dc:	4313      	orrs	r3, r2
 80043de:	613b      	str	r3, [r7, #16]
        GPIOx->AFR[position >> 3U] = temp;
 80043e0:	697b      	ldr	r3, [r7, #20]
 80043e2:	08da      	lsrs	r2, r3, #3
 80043e4:	687b      	ldr	r3, [r7, #4]
 80043e6:	3208      	adds	r2, #8
 80043e8:	0092      	lsls	r2, r2, #2
 80043ea:	6939      	ldr	r1, [r7, #16]
 80043ec:	50d1      	str	r1, [r2, r3]
      }

      /* Configure IO Direction mode (Input, Output, Alternate or Analog) */
      temp = GPIOx->MODER;
 80043ee:	687b      	ldr	r3, [r7, #4]
 80043f0:	681b      	ldr	r3, [r3, #0]
 80043f2:	613b      	str	r3, [r7, #16]
      temp &= ~(GPIO_MODER_MODE0 << (position * 2U));
 80043f4:	697b      	ldr	r3, [r7, #20]
 80043f6:	005b      	lsls	r3, r3, #1
 80043f8:	2203      	movs	r2, #3
 80043fa:	409a      	lsls	r2, r3
 80043fc:	0013      	movs	r3, r2
 80043fe:	43da      	mvns	r2, r3
 8004400:	693b      	ldr	r3, [r7, #16]
 8004402:	4013      	ands	r3, r2
 8004404:	613b      	str	r3, [r7, #16]
      temp |= ((GPIO_Init->Mode & GPIO_MODE) << (position * 2U));
 8004406:	683b      	ldr	r3, [r7, #0]
 8004408:	685b      	ldr	r3, [r3, #4]
 800440a:	2203      	movs	r2, #3
 800440c:	401a      	ands	r2, r3
 800440e:	697b      	ldr	r3, [r7, #20]
 8004410:	005b      	lsls	r3, r3, #1
 8004412:	409a      	lsls	r2, r3
 8004414:	0013      	movs	r3, r2
 8004416:	693a      	ldr	r2, [r7, #16]
 8004418:	4313      	orrs	r3, r2
 800441a:	613b      	str	r3, [r7, #16]
      GPIOx->MODER = temp;
 800441c:	687b      	ldr	r3, [r7, #4]
 800441e:	693a      	ldr	r2, [r7, #16]
 8004420:	601a      	str	r2, [r3, #0]

      /*--------------------- EXTI Mode Configuration ------------------------*/
      /* Configure the External Interrupt or event for the current IO */
      if ((GPIO_Init->Mode & EXTI_MODE) != 0x00U)
 8004422:	683b      	ldr	r3, [r7, #0]
 8004424:	685a      	ldr	r2, [r3, #4]
 8004426:	23c0      	movs	r3, #192	@ 0xc0
 8004428:	029b      	lsls	r3, r3, #10
 800442a:	4013      	ands	r3, r2
 800442c:	d100      	bne.n	8004430 <HAL_GPIO_Init+0x17c>
 800442e:	e0a0      	b.n	8004572 <HAL_GPIO_Init+0x2be>
      {
        /* Enable SYSCFG Clock */
        __HAL_RCC_SYSCFG_CLK_ENABLE();
 8004430:	4b57      	ldr	r3, [pc, #348]	@ (8004590 <HAL_GPIO_Init+0x2dc>)
 8004432:	6b5a      	ldr	r2, [r3, #52]	@ 0x34
 8004434:	4b56      	ldr	r3, [pc, #344]	@ (8004590 <HAL_GPIO_Init+0x2dc>)
 8004436:	2101      	movs	r1, #1
 8004438:	430a      	orrs	r2, r1
 800443a:	635a      	str	r2, [r3, #52]	@ 0x34

        temp = SYSCFG->EXTICR[position >> 2U];
 800443c:	4a55      	ldr	r2, [pc, #340]	@ (8004594 <HAL_GPIO_Init+0x2e0>)
 800443e:	697b      	ldr	r3, [r7, #20]
 8004440:	089b      	lsrs	r3, r3, #2
 8004442:	3302      	adds	r3, #2
 8004444:	009b      	lsls	r3, r3, #2
 8004446:	589b      	ldr	r3, [r3, r2]
 8004448:	613b      	str	r3, [r7, #16]
        CLEAR_BIT(temp, (0x0FUL) << (4U * (position & 0x03U)));
 800444a:	697b      	ldr	r3, [r7, #20]
 800444c:	2203      	movs	r2, #3
 800444e:	4013      	ands	r3, r2
 8004450:	009b      	lsls	r3, r3, #2
 8004452:	220f      	movs	r2, #15
 8004454:	409a      	lsls	r2, r3
 8004456:	0013      	movs	r3, r2
 8004458:	43da      	mvns	r2, r3
 800445a:	693b      	ldr	r3, [r7, #16]
 800445c:	4013      	ands	r3, r2
 800445e:	613b      	str	r3, [r7, #16]
        SET_BIT(temp, (GPIO_GET_INDEX(GPIOx)) << (4 * (position & 0x03U)));
 8004460:	687a      	ldr	r2, [r7, #4]
 8004462:	23a0      	movs	r3, #160	@ 0xa0
 8004464:	05db      	lsls	r3, r3, #23
 8004466:	429a      	cmp	r2, r3
 8004468:	d01f      	beq.n	80044aa <HAL_GPIO_Init+0x1f6>
 800446a:	687b      	ldr	r3, [r7, #4]
 800446c:	4a4a      	ldr	r2, [pc, #296]	@ (8004598 <HAL_GPIO_Init+0x2e4>)
 800446e:	4293      	cmp	r3, r2
 8004470:	d019      	beq.n	80044a6 <HAL_GPIO_Init+0x1f2>
 8004472:	687b      	ldr	r3, [r7, #4]
 8004474:	4a49      	ldr	r2, [pc, #292]	@ (800459c <HAL_GPIO_Init+0x2e8>)
 8004476:	4293      	cmp	r3, r2
 8004478:	d013      	beq.n	80044a2 <HAL_GPIO_Init+0x1ee>
 800447a:	687b      	ldr	r3, [r7, #4]
 800447c:	4a48      	ldr	r2, [pc, #288]	@ (80045a0 <HAL_GPIO_Init+0x2ec>)
 800447e:	4293      	cmp	r3, r2
 8004480:	d00d      	beq.n	800449e <HAL_GPIO_Init+0x1ea>
 8004482:	687b      	ldr	r3, [r7, #4]
 8004484:	4a47      	ldr	r2, [pc, #284]	@ (80045a4 <HAL_GPIO_Init+0x2f0>)
 8004486:	4293      	cmp	r3, r2
 8004488:	d007      	beq.n	800449a <HAL_GPIO_Init+0x1e6>
 800448a:	687b      	ldr	r3, [r7, #4]
 800448c:	4a46      	ldr	r2, [pc, #280]	@ (80045a8 <HAL_GPIO_Init+0x2f4>)
 800448e:	4293      	cmp	r3, r2
 8004490:	d101      	bne.n	8004496 <HAL_GPIO_Init+0x1e2>
 8004492:	2305      	movs	r3, #5
 8004494:	e00a      	b.n	80044ac <HAL_GPIO_Init+0x1f8>
 8004496:	2306      	movs	r3, #6
 8004498:	e008      	b.n	80044ac <HAL_GPIO_Init+0x1f8>
 800449a:	2304      	movs	r3, #4
 800449c:	e006      	b.n	80044ac <HAL_GPIO_Init+0x1f8>
 800449e:	2303      	movs	r3, #3
 80044a0:	e004      	b.n	80044ac <HAL_GPIO_Init+0x1f8>
 80044a2:	2302      	movs	r3, #2
 80044a4:	e002      	b.n	80044ac <HAL_GPIO_Init+0x1f8>
 80044a6:	2301      	movs	r3, #1
 80044a8:	e000      	b.n	80044ac <HAL_GPIO_Init+0x1f8>
 80044aa:	2300      	movs	r3, #0
 80044ac:	697a      	ldr	r2, [r7, #20]
 80044ae:	2103      	movs	r1, #3
 80044b0:	400a      	ands	r2, r1
 80044b2:	0092      	lsls	r2, r2, #2
 80044b4:	4093      	lsls	r3, r2
 80044b6:	693a      	ldr	r2, [r7, #16]
 80044b8:	4313      	orrs	r3, r2
 80044ba:	613b      	str	r3, [r7, #16]
        SYSCFG->EXTICR[position >> 2U] = temp;
 80044bc:	4935      	ldr	r1, [pc, #212]	@ (8004594 <HAL_GPIO_Init+0x2e0>)
 80044be:	697b      	ldr	r3, [r7, #20]
 80044c0:	089b      	lsrs	r3, r3, #2
 80044c2:	3302      	adds	r3, #2
 80044c4:	009b      	lsls	r3, r3, #2
 80044c6:	693a      	ldr	r2, [r7, #16]
 80044c8:	505a      	str	r2, [r3, r1]

        /* Clear Rising Falling edge configuration */
        temp = EXTI->RTSR;
 80044ca:	4b38      	ldr	r3, [pc, #224]	@ (80045ac <HAL_GPIO_Init+0x2f8>)
 80044cc:	689b      	ldr	r3, [r3, #8]
 80044ce:	613b      	str	r3, [r7, #16]
        temp &= ~((uint32_t)iocurrent);
 80044d0:	68fb      	ldr	r3, [r7, #12]
 80044d2:	43da      	mvns	r2, r3
 80044d4:	693b      	ldr	r3, [r7, #16]
 80044d6:	4013      	ands	r3, r2
 80044d8:	613b      	str	r3, [r7, #16]
        if ((GPIO_Init->Mode & TRIGGER_RISING) != 0x00U)
 80044da:	683b      	ldr	r3, [r7, #0]
 80044dc:	685a      	ldr	r2, [r3, #4]
 80044de:	2380      	movs	r3, #128	@ 0x80
 80044e0:	035b      	lsls	r3, r3, #13
 80044e2:	4013      	ands	r3, r2
 80044e4:	d003      	beq.n	80044ee <HAL_GPIO_Init+0x23a>
        {
          temp |= iocurrent;
 80044e6:	693a      	ldr	r2, [r7, #16]
 80044e8:	68fb      	ldr	r3, [r7, #12]
 80044ea:	4313      	orrs	r3, r2
 80044ec:	613b      	str	r3, [r7, #16]
        }
        EXTI->RTSR = temp;
 80044ee:	4b2f      	ldr	r3, [pc, #188]	@ (80045ac <HAL_GPIO_Init+0x2f8>)
 80044f0:	693a      	ldr	r2, [r7, #16]
 80044f2:	609a      	str	r2, [r3, #8]

        temp = EXTI->FTSR;
 80044f4:	4b2d      	ldr	r3, [pc, #180]	@ (80045ac <HAL_GPIO_Init+0x2f8>)
 80044f6:	68db      	ldr	r3, [r3, #12]
 80044f8:	613b      	str	r3, [r7, #16]
        temp &= ~((uint32_t)iocurrent);
 80044fa:	68fb      	ldr	r3, [r7, #12]
 80044fc:	43da      	mvns	r2, r3
 80044fe:	693b      	ldr	r3, [r7, #16]
 8004500:	4013      	ands	r3, r2
 8004502:	613b      	str	r3, [r7, #16]
        if ((GPIO_Init->Mode & TRIGGER_FALLING) != 0x00U)
 8004504:	683b      	ldr	r3, [r7, #0]
 8004506:	685a      	ldr	r2, [r3, #4]
 8004508:	2380      	movs	r3, #128	@ 0x80
 800450a:	039b      	lsls	r3, r3, #14
 800450c:	4013      	ands	r3, r2
 800450e:	d003      	beq.n	8004518 <HAL_GPIO_Init+0x264>
        {
          temp |= iocurrent;
 8004510:	693a      	ldr	r2, [r7, #16]
 8004512:	68fb      	ldr	r3, [r7, #12]
 8004514:	4313      	orrs	r3, r2
 8004516:	613b      	str	r3, [r7, #16]
        }
        EXTI->FTSR = temp;
 8004518:	4b24      	ldr	r3, [pc, #144]	@ (80045ac <HAL_GPIO_Init+0x2f8>)
 800451a:	693a      	ldr	r2, [r7, #16]
 800451c:	60da      	str	r2, [r3, #12]

        temp = EXTI->EMR;
 800451e:	4b23      	ldr	r3, [pc, #140]	@ (80045ac <HAL_GPIO_Init+0x2f8>)
 8004520:	685b      	ldr	r3, [r3, #4]
 8004522:	613b      	str	r3, [r7, #16]
        temp &= ~((uint32_t)iocurrent);
 8004524:	68fb      	ldr	r3, [r7, #12]
 8004526:	43da      	mvns	r2, r3
 8004528:	693b      	ldr	r3, [r7, #16]
 800452a:	4013      	ands	r3, r2
 800452c:	613b      	str	r3, [r7, #16]
        if ((GPIO_Init->Mode & EXTI_EVT) != 0x00U)
 800452e:	683b      	ldr	r3, [r7, #0]
 8004530:	685a      	ldr	r2, [r3, #4]
 8004532:	2380      	movs	r3, #128	@ 0x80
 8004534:	029b      	lsls	r3, r3, #10
 8004536:	4013      	ands	r3, r2
 8004538:	d003      	beq.n	8004542 <HAL_GPIO_Init+0x28e>
        {
          temp |= iocurrent;
 800453a:	693a      	ldr	r2, [r7, #16]
 800453c:	68fb      	ldr	r3, [r7, #12]
 800453e:	4313      	orrs	r3, r2
 8004540:	613b      	str	r3, [r7, #16]
        }
        EXTI->EMR = temp;
 8004542:	4b1a      	ldr	r3, [pc, #104]	@ (80045ac <HAL_GPIO_Init+0x2f8>)
 8004544:	693a      	ldr	r2, [r7, #16]
 8004546:	605a      	str	r2, [r3, #4]

        /* Clear EXTI line configuration */
        temp = EXTI->IMR;
 8004548:	4b18      	ldr	r3, [pc, #96]	@ (80045ac <HAL_GPIO_Init+0x2f8>)
 800454a:	681b      	ldr	r3, [r3, #0]
 800454c:	613b      	str	r3, [r7, #16]
        temp &= ~((uint32_t)iocurrent);
 800454e:	68fb      	ldr	r3, [r7, #12]
 8004550:	43da      	mvns	r2, r3
 8004552:	693b      	ldr	r3, [r7, #16]
 8004554:	4013      	ands	r3, r2
 8004556:	613b      	str	r3, [r7, #16]
        if ((GPIO_Init->Mode & EXTI_IT) != 0x00U)
 8004558:	683b      	ldr	r3, [r7, #0]
 800455a:	685a      	ldr	r2, [r3, #4]
 800455c:	2380      	movs	r3, #128	@ 0x80
 800455e:	025b      	lsls	r3, r3, #9
 8004560:	4013      	ands	r3, r2
 8004562:	d003      	beq.n	800456c <HAL_GPIO_Init+0x2b8>
        {
          temp |= iocurrent;
 8004564:	693a      	ldr	r2, [r7, #16]
 8004566:	68fb      	ldr	r3, [r7, #12]
 8004568:	4313      	orrs	r3, r2
 800456a:	613b      	str	r3, [r7, #16]
        }
        EXTI->IMR = temp;
 800456c:	4b0f      	ldr	r3, [pc, #60]	@ (80045ac <HAL_GPIO_Init+0x2f8>)
 800456e:	693a      	ldr	r2, [r7, #16]
 8004570:	601a      	str	r2, [r3, #0]
      }
    }
    position++;
 8004572:	697b      	ldr	r3, [r7, #20]
 8004574:	3301      	adds	r3, #1
 8004576:	617b      	str	r3, [r7, #20]
  while (((GPIO_Init->Pin) >> position) != 0)
 8004578:	683b      	ldr	r3, [r7, #0]
 800457a:	681a      	ldr	r2, [r3, #0]
 800457c:	697b      	ldr	r3, [r7, #20]
 800457e:	40da      	lsrs	r2, r3
 8004580:	1e13      	subs	r3, r2, #0
 8004582:	d000      	beq.n	8004586 <HAL_GPIO_Init+0x2d2>
 8004584:	e6a2      	b.n	80042cc <HAL_GPIO_Init+0x18>
  }
}
 8004586:	46c0      	nop			@ (mov r8, r8)
 8004588:	46c0      	nop			@ (mov r8, r8)
 800458a:	46bd      	mov	sp, r7
 800458c:	b006      	add	sp, #24
 800458e:	bd80      	pop	{r7, pc}
 8004590:	40021000 	.word	0x40021000
 8004594:	40010000 	.word	0x40010000
 8004598:	50000400 	.word	0x50000400
 800459c:	50000800 	.word	0x50000800
 80045a0:	50000c00 	.word	0x50000c00
 80045a4:	50001000 	.word	0x50001000
 80045a8:	50001c00 	.word	0x50001c00
 80045ac:	40010400 	.word	0x40010400

080045b0 <HAL_GPIO_WritePin>:
  *                        GPIO_PIN_RESET: to clear the port pin
  *                        GPIO_PIN_SET: to set the port pin
  * @retval None
  */
void HAL_GPIO_WritePin(GPIO_TypeDef *GPIOx, uint16_t GPIO_Pin, GPIO_PinState PinState)
{
 80045b0:	b580      	push	{r7, lr}
 80045b2:	b082      	sub	sp, #8
 80045b4:	af00      	add	r7, sp, #0
 80045b6:	6078      	str	r0, [r7, #4]
 80045b8:	0008      	movs	r0, r1
 80045ba:	0011      	movs	r1, r2
 80045bc:	1cbb      	adds	r3, r7, #2
 80045be:	1c02      	adds	r2, r0, #0
 80045c0:	801a      	strh	r2, [r3, #0]
 80045c2:	1c7b      	adds	r3, r7, #1
 80045c4:	1c0a      	adds	r2, r1, #0
 80045c6:	701a      	strb	r2, [r3, #0]
  /* Check the parameters */
  assert_param(IS_GPIO_PIN_AVAILABLE(GPIOx, GPIO_Pin));
  assert_param(IS_GPIO_PIN_ACTION(PinState));

  if (PinState != GPIO_PIN_RESET)
 80045c8:	1c7b      	adds	r3, r7, #1
 80045ca:	781b      	ldrb	r3, [r3, #0]
 80045cc:	2b00      	cmp	r3, #0
 80045ce:	d004      	beq.n	80045da <HAL_GPIO_WritePin+0x2a>
  {
    GPIOx->BSRR = GPIO_Pin;
 80045d0:	1cbb      	adds	r3, r7, #2
 80045d2:	881a      	ldrh	r2, [r3, #0]
 80045d4:	687b      	ldr	r3, [r7, #4]
 80045d6:	619a      	str	r2, [r3, #24]
  }
  else
  {
    GPIOx->BRR = GPIO_Pin ;
  }
}
 80045d8:	e003      	b.n	80045e2 <HAL_GPIO_WritePin+0x32>
    GPIOx->BRR = GPIO_Pin ;
 80045da:	1cbb      	adds	r3, r7, #2
 80045dc:	881a      	ldrh	r2, [r3, #0]
 80045de:	687b      	ldr	r3, [r7, #4]
 80045e0:	629a      	str	r2, [r3, #40]	@ 0x28
}
 80045e2:	46c0      	nop			@ (mov r8, r8)
 80045e4:	46bd      	mov	sp, r7
 80045e6:	b002      	add	sp, #8
 80045e8:	bd80      	pop	{r7, pc}

080045ea <HAL_TIM_Base_Init>:
  *         Ex: call @ref HAL_TIM_Base_DeInit() before HAL_TIM_Base_Init()
  * @param  htim TIM Base handle
  * @retval HAL status
  */
HAL_StatusTypeDef HAL_TIM_Base_Init(TIM_HandleTypeDef *htim)
{
 80045ea:	b580      	push	{r7, lr}
 80045ec:	b082      	sub	sp, #8
 80045ee:	af00      	add	r7, sp, #0
 80045f0:	6078      	str	r0, [r7, #4]
  /* Check the TIM handle allocation */
  if (htim == NULL)
 80045f2:	687b      	ldr	r3, [r7, #4]
 80045f4:	2b00      	cmp	r3, #0
 80045f6:	d101      	bne.n	80045fc <HAL_TIM_Base_Init+0x12>
  {
    return HAL_ERROR;
 80045f8:	2301      	movs	r3, #1
 80045fa:	e032      	b.n	8004662 <HAL_TIM_Base_Init+0x78>
  assert_param(IS_TIM_CLOCKDIVISION_DIV(htim->Init.ClockDivision));
  assert_param(IS_TIM_PERIOD(htim->Init.Period));
  assert_param(IS_TIM_PRESCALER(htim->Init.Prescaler));
  assert_param(IS_TIM_AUTORELOAD_PRELOAD(htim->Init.AutoReloadPreload));

  if (htim->State == HAL_TIM_STATE_RESET)
 80045fc:	687b      	ldr	r3, [r7, #4]
 80045fe:	2239      	movs	r2, #57	@ 0x39
 8004600:	5c9b      	ldrb	r3, [r3, r2]
 8004602:	b2db      	uxtb	r3, r3
 8004604:	2b00      	cmp	r3, #0
 8004606:	d107      	bne.n	8004618 <HAL_TIM_Base_Init+0x2e>
  {
    /* Allocate lock resource and initialize it */
    htim->Lock = HAL_UNLOCKED;
 8004608:	687b      	ldr	r3, [r7, #4]
 800460a:	2238      	movs	r2, #56	@ 0x38
 800460c:	2100      	movs	r1, #0
 800460e:	5499      	strb	r1, [r3, r2]
    }
    /* Init the low level hardware : GPIO, CLOCK, NVIC */
    htim->Base_MspInitCallback(htim);
#else
    /* Init the low level hardware : GPIO, CLOCK, NVIC */
    HAL_TIM_Base_MspInit(htim);
 8004610:	687b      	ldr	r3, [r7, #4]
 8004612:	0018      	movs	r0, r3
 8004614:	f7fe ff2a 	bl	800346c <HAL_TIM_Base_MspInit>
#endif /* USE_HAL_TIM_REGISTER_CALLBACKS */
  }

  /* Set the TIM state */
  htim->State = HAL_TIM_STATE_BUSY;
 8004618:	687b      	ldr	r3, [r7, #4]
 800461a:	2239      	movs	r2, #57	@ 0x39
 800461c:	2102      	movs	r1, #2
 800461e:	5499      	strb	r1, [r3, r2]

  /* Set the Time Base configuration */
  TIM_Base_SetConfig(htim->Instance, &htim->Init);
 8004620:	687b      	ldr	r3, [r7, #4]
 8004622:	681a      	ldr	r2, [r3, #0]
 8004624:	687b      	ldr	r3, [r7, #4]
 8004626:	3304      	adds	r3, #4
 8004628:	0019      	movs	r1, r3
 800462a:	0010      	movs	r0, r2
 800462c:	f000 f93c 	bl	80048a8 <TIM_Base_SetConfig>

  /* Initialize the DMA burst operation state */
  htim->DMABurstState = HAL_DMA_BURST_STATE_READY;
 8004630:	687b      	ldr	r3, [r7, #4]
 8004632:	223e      	movs	r2, #62	@ 0x3e
 8004634:	2101      	movs	r1, #1
 8004636:	5499      	strb	r1, [r3, r2]

  /* Initialize the TIM channels state */
  TIM_CHANNEL_STATE_SET_ALL(htim, HAL_TIM_CHANNEL_STATE_READY);
 8004638:	687b      	ldr	r3, [r7, #4]
 800463a:	223a      	movs	r2, #58	@ 0x3a
 800463c:	2101      	movs	r1, #1
 800463e:	5499      	strb	r1, [r3, r2]
 8004640:	687b      	ldr	r3, [r7, #4]
 8004642:	223b      	movs	r2, #59	@ 0x3b
 8004644:	2101      	movs	r1, #1
 8004646:	5499      	strb	r1, [r3, r2]
 8004648:	687b      	ldr	r3, [r7, #4]
 800464a:	223c      	movs	r2, #60	@ 0x3c
 800464c:	2101      	movs	r1, #1
 800464e:	5499      	strb	r1, [r3, r2]
 8004650:	687b      	ldr	r3, [r7, #4]
 8004652:	223d      	movs	r2, #61	@ 0x3d
 8004654:	2101      	movs	r1, #1
 8004656:	5499      	strb	r1, [r3, r2]

  /* Initialize the TIM state*/
  htim->State = HAL_TIM_STATE_READY;
 8004658:	687b      	ldr	r3, [r7, #4]
 800465a:	2239      	movs	r2, #57	@ 0x39
 800465c:	2101      	movs	r1, #1
 800465e:	5499      	strb	r1, [r3, r2]

  return HAL_OK;
 8004660:	2300      	movs	r3, #0
}
 8004662:	0018      	movs	r0, r3
 8004664:	46bd      	mov	sp, r7
 8004666:	b002      	add	sp, #8
 8004668:	bd80      	pop	{r7, pc}
	...

0800466c <HAL_TIM_Base_Start>:
  * @brief  Starts the TIM Base generation.
  * @param  htim TIM Base handle
  * @retval HAL status
  */
HAL_StatusTypeDef HAL_TIM_Base_Start(TIM_HandleTypeDef *htim)
{
 800466c:	b580      	push	{r7, lr}
 800466e:	b084      	sub	sp, #16
 8004670:	af00      	add	r7, sp, #0
 8004672:	6078      	str	r0, [r7, #4]

  /* Check the parameters */
  assert_param(IS_TIM_INSTANCE(htim->Instance));

  /* Check the TIM state */
  if (htim->State != HAL_TIM_STATE_READY)
 8004674:	687b      	ldr	r3, [r7, #4]
 8004676:	2239      	movs	r2, #57	@ 0x39
 8004678:	5c9b      	ldrb	r3, [r3, r2]
 800467a:	b2db      	uxtb	r3, r3
 800467c:	2b01      	cmp	r3, #1
 800467e:	d001      	beq.n	8004684 <HAL_TIM_Base_Start+0x18>
  {
    return HAL_ERROR;
 8004680:	2301      	movs	r3, #1
 8004682:	e033      	b.n	80046ec <HAL_TIM_Base_Start+0x80>
  }

  /* Set the TIM state */
  htim->State = HAL_TIM_STATE_BUSY;
 8004684:	687b      	ldr	r3, [r7, #4]
 8004686:	2239      	movs	r2, #57	@ 0x39
 8004688:	2102      	movs	r1, #2
 800468a:	5499      	strb	r1, [r3, r2]

  /* Enable the Peripheral, except in trigger mode where enable is automatically done with trigger */
  if (IS_TIM_SLAVE_INSTANCE(htim->Instance))
 800468c:	687b      	ldr	r3, [r7, #4]
 800468e:	681a      	ldr	r2, [r3, #0]
 8004690:	2380      	movs	r3, #128	@ 0x80
 8004692:	05db      	lsls	r3, r3, #23
 8004694:	429a      	cmp	r2, r3
 8004696:	d00e      	beq.n	80046b6 <HAL_TIM_Base_Start+0x4a>
 8004698:	687b      	ldr	r3, [r7, #4]
 800469a:	681b      	ldr	r3, [r3, #0]
 800469c:	4a15      	ldr	r2, [pc, #84]	@ (80046f4 <HAL_TIM_Base_Start+0x88>)
 800469e:	4293      	cmp	r3, r2
 80046a0:	d009      	beq.n	80046b6 <HAL_TIM_Base_Start+0x4a>
 80046a2:	687b      	ldr	r3, [r7, #4]
 80046a4:	681b      	ldr	r3, [r3, #0]
 80046a6:	4a14      	ldr	r2, [pc, #80]	@ (80046f8 <HAL_TIM_Base_Start+0x8c>)
 80046a8:	4293      	cmp	r3, r2
 80046aa:	d004      	beq.n	80046b6 <HAL_TIM_Base_Start+0x4a>
 80046ac:	687b      	ldr	r3, [r7, #4]
 80046ae:	681b      	ldr	r3, [r3, #0]
 80046b0:	4a12      	ldr	r2, [pc, #72]	@ (80046fc <HAL_TIM_Base_Start+0x90>)
 80046b2:	4293      	cmp	r3, r2
 80046b4:	d111      	bne.n	80046da <HAL_TIM_Base_Start+0x6e>
  {
    tmpsmcr = htim->Instance->SMCR & TIM_SMCR_SMS;
 80046b6:	687b      	ldr	r3, [r7, #4]
 80046b8:	681b      	ldr	r3, [r3, #0]
 80046ba:	689b      	ldr	r3, [r3, #8]
 80046bc:	2207      	movs	r2, #7
 80046be:	4013      	ands	r3, r2
 80046c0:	60fb      	str	r3, [r7, #12]
    if (!IS_TIM_SLAVEMODE_TRIGGER_ENABLED(tmpsmcr))
 80046c2:	68fb      	ldr	r3, [r7, #12]
 80046c4:	2b06      	cmp	r3, #6
 80046c6:	d010      	beq.n	80046ea <HAL_TIM_Base_Start+0x7e>
    {
      __HAL_TIM_ENABLE(htim);
 80046c8:	687b      	ldr	r3, [r7, #4]
 80046ca:	681b      	ldr	r3, [r3, #0]
 80046cc:	681a      	ldr	r2, [r3, #0]
 80046ce:	687b      	ldr	r3, [r7, #4]
 80046d0:	681b      	ldr	r3, [r3, #0]
 80046d2:	2101      	movs	r1, #1
 80046d4:	430a      	orrs	r2, r1
 80046d6:	601a      	str	r2, [r3, #0]
    if (!IS_TIM_SLAVEMODE_TRIGGER_ENABLED(tmpsmcr))
 80046d8:	e007      	b.n	80046ea <HAL_TIM_Base_Start+0x7e>
    }
  }
  else
  {
    __HAL_TIM_ENABLE(htim);
 80046da:	687b      	ldr	r3, [r7, #4]
 80046dc:	681b      	ldr	r3, [r3, #0]
 80046de:	681a      	ldr	r2, [r3, #0]
 80046e0:	687b      	ldr	r3, [r7, #4]
 80046e2:	681b      	ldr	r3, [r3, #0]
 80046e4:	2101      	movs	r1, #1
 80046e6:	430a      	orrs	r2, r1
 80046e8:	601a      	str	r2, [r3, #0]
  }

  /* Return function status */
  return HAL_OK;
 80046ea:	2300      	movs	r3, #0
}
 80046ec:	0018      	movs	r0, r3
 80046ee:	46bd      	mov	sp, r7
 80046f0:	b004      	add	sp, #16
 80046f2:	bd80      	pop	{r7, pc}
 80046f4:	40000400 	.word	0x40000400
 80046f8:	40010800 	.word	0x40010800
 80046fc:	40011400 	.word	0x40011400

08004700 <HAL_TIM_ConfigClockSource>:
  * @param  sClockSourceConfig pointer to a TIM_ClockConfigTypeDef structure that
  *         contains the clock source information for the TIM peripheral.
  * @retval HAL status
  */
HAL_StatusTypeDef HAL_TIM_ConfigClockSource(TIM_HandleTypeDef *htim, const TIM_ClockConfigTypeDef *sClockSourceConfig)
{
 8004700:	b580      	push	{r7, lr}
 8004702:	b084      	sub	sp, #16
 8004704:	af00      	add	r7, sp, #0
 8004706:	6078      	str	r0, [r7, #4]
 8004708:	6039      	str	r1, [r7, #0]
  HAL_StatusTypeDef status = HAL_OK;
 800470a:	230f      	movs	r3, #15
 800470c:	18fb      	adds	r3, r7, r3
 800470e:	2200      	movs	r2, #0
 8004710:	701a      	strb	r2, [r3, #0]
  uint32_t tmpsmcr;

  /* Process Locked */
  __HAL_LOCK(htim);
 8004712:	687b      	ldr	r3, [r7, #4]
 8004714:	2238      	movs	r2, #56	@ 0x38
 8004716:	5c9b      	ldrb	r3, [r3, r2]
 8004718:	2b01      	cmp	r3, #1
 800471a:	d101      	bne.n	8004720 <HAL_TIM_ConfigClockSource+0x20>
 800471c:	2302      	movs	r3, #2
 800471e:	e0bc      	b.n	800489a <HAL_TIM_ConfigClockSource+0x19a>
 8004720:	687b      	ldr	r3, [r7, #4]
 8004722:	2238      	movs	r2, #56	@ 0x38
 8004724:	2101      	movs	r1, #1
 8004726:	5499      	strb	r1, [r3, r2]

  htim->State = HAL_TIM_STATE_BUSY;
 8004728:	687b      	ldr	r3, [r7, #4]
 800472a:	2239      	movs	r2, #57	@ 0x39
 800472c:	2102      	movs	r1, #2
 800472e:	5499      	strb	r1, [r3, r2]

  /* Check the parameters */
  assert_param(IS_TIM_CLOCKSOURCE(sClockSourceConfig->ClockSource));

  /* Reset the SMS, TS, ECE, ETPS and ETRF bits */
  tmpsmcr = htim->Instance->SMCR;
 8004730:	687b      	ldr	r3, [r7, #4]
 8004732:	681b      	ldr	r3, [r3, #0]
 8004734:	689b      	ldr	r3, [r3, #8]
 8004736:	60bb      	str	r3, [r7, #8]
  tmpsmcr &= ~(TIM_SMCR_SMS | TIM_SMCR_TS);
 8004738:	68bb      	ldr	r3, [r7, #8]
 800473a:	2277      	movs	r2, #119	@ 0x77
 800473c:	4393      	bics	r3, r2
 800473e:	60bb      	str	r3, [r7, #8]
  tmpsmcr &= ~(TIM_SMCR_ETF | TIM_SMCR_ETPS | TIM_SMCR_ECE | TIM_SMCR_ETP);
 8004740:	68bb      	ldr	r3, [r7, #8]
 8004742:	4a58      	ldr	r2, [pc, #352]	@ (80048a4 <HAL_TIM_ConfigClockSource+0x1a4>)
 8004744:	4013      	ands	r3, r2
 8004746:	60bb      	str	r3, [r7, #8]
  htim->Instance->SMCR = tmpsmcr;
 8004748:	687b      	ldr	r3, [r7, #4]
 800474a:	681b      	ldr	r3, [r3, #0]
 800474c:	68ba      	ldr	r2, [r7, #8]
 800474e:	609a      	str	r2, [r3, #8]

  switch (sClockSourceConfig->ClockSource)
 8004750:	683b      	ldr	r3, [r7, #0]
 8004752:	681b      	ldr	r3, [r3, #0]
 8004754:	2280      	movs	r2, #128	@ 0x80
 8004756:	0192      	lsls	r2, r2, #6
 8004758:	4293      	cmp	r3, r2
 800475a:	d040      	beq.n	80047de <HAL_TIM_ConfigClockSource+0xde>
 800475c:	2280      	movs	r2, #128	@ 0x80
 800475e:	0192      	lsls	r2, r2, #6
 8004760:	4293      	cmp	r3, r2
 8004762:	d900      	bls.n	8004766 <HAL_TIM_ConfigClockSource+0x66>
 8004764:	e088      	b.n	8004878 <HAL_TIM_ConfigClockSource+0x178>
 8004766:	2280      	movs	r2, #128	@ 0x80
 8004768:	0152      	lsls	r2, r2, #5
 800476a:	4293      	cmp	r3, r2
 800476c:	d100      	bne.n	8004770 <HAL_TIM_ConfigClockSource+0x70>
 800476e:	e088      	b.n	8004882 <HAL_TIM_ConfigClockSource+0x182>
 8004770:	2280      	movs	r2, #128	@ 0x80
 8004772:	0152      	lsls	r2, r2, #5
 8004774:	4293      	cmp	r3, r2
 8004776:	d900      	bls.n	800477a <HAL_TIM_ConfigClockSource+0x7a>
 8004778:	e07e      	b.n	8004878 <HAL_TIM_ConfigClockSource+0x178>
 800477a:	2b70      	cmp	r3, #112	@ 0x70
 800477c:	d018      	beq.n	80047b0 <HAL_TIM_ConfigClockSource+0xb0>
 800477e:	d900      	bls.n	8004782 <HAL_TIM_ConfigClockSource+0x82>
 8004780:	e07a      	b.n	8004878 <HAL_TIM_ConfigClockSource+0x178>
 8004782:	2b60      	cmp	r3, #96	@ 0x60
 8004784:	d04f      	beq.n	8004826 <HAL_TIM_ConfigClockSource+0x126>
 8004786:	d900      	bls.n	800478a <HAL_TIM_ConfigClockSource+0x8a>
 8004788:	e076      	b.n	8004878 <HAL_TIM_ConfigClockSource+0x178>
 800478a:	2b50      	cmp	r3, #80	@ 0x50
 800478c:	d03b      	beq.n	8004806 <HAL_TIM_ConfigClockSource+0x106>
 800478e:	d900      	bls.n	8004792 <HAL_TIM_ConfigClockSource+0x92>
 8004790:	e072      	b.n	8004878 <HAL_TIM_ConfigClockSource+0x178>
 8004792:	2b40      	cmp	r3, #64	@ 0x40
 8004794:	d057      	beq.n	8004846 <HAL_TIM_ConfigClockSource+0x146>
 8004796:	d900      	bls.n	800479a <HAL_TIM_ConfigClockSource+0x9a>
 8004798:	e06e      	b.n	8004878 <HAL_TIM_ConfigClockSource+0x178>
 800479a:	2b30      	cmp	r3, #48	@ 0x30
 800479c:	d063      	beq.n	8004866 <HAL_TIM_ConfigClockSource+0x166>
 800479e:	d86b      	bhi.n	8004878 <HAL_TIM_ConfigClockSource+0x178>
 80047a0:	2b20      	cmp	r3, #32
 80047a2:	d060      	beq.n	8004866 <HAL_TIM_ConfigClockSource+0x166>
 80047a4:	d868      	bhi.n	8004878 <HAL_TIM_ConfigClockSource+0x178>
 80047a6:	2b00      	cmp	r3, #0
 80047a8:	d05d      	beq.n	8004866 <HAL_TIM_ConfigClockSource+0x166>
 80047aa:	2b10      	cmp	r3, #16
 80047ac:	d05b      	beq.n	8004866 <HAL_TIM_ConfigClockSource+0x166>
 80047ae:	e063      	b.n	8004878 <HAL_TIM_ConfigClockSource+0x178>
      assert_param(IS_TIM_CLOCKPRESCALER(sClockSourceConfig->ClockPrescaler));
      assert_param(IS_TIM_CLOCKPOLARITY(sClockSourceConfig->ClockPolarity));
      assert_param(IS_TIM_CLOCKFILTER(sClockSourceConfig->ClockFilter));

      /* Configure the ETR Clock source */
      TIM_ETR_SetConfig(htim->Instance,
 80047b0:	687b      	ldr	r3, [r7, #4]
 80047b2:	6818      	ldr	r0, [r3, #0]
                        sClockSourceConfig->ClockPrescaler,
 80047b4:	683b      	ldr	r3, [r7, #0]
 80047b6:	6899      	ldr	r1, [r3, #8]
                        sClockSourceConfig->ClockPolarity,
 80047b8:	683b      	ldr	r3, [r7, #0]
 80047ba:	685a      	ldr	r2, [r3, #4]
                        sClockSourceConfig->ClockFilter);
 80047bc:	683b      	ldr	r3, [r7, #0]
 80047be:	68db      	ldr	r3, [r3, #12]
      TIM_ETR_SetConfig(htim->Instance,
 80047c0:	f000 f950 	bl	8004a64 <TIM_ETR_SetConfig>

      /* Select the External clock mode1 and the ETRF trigger */
      tmpsmcr = htim->Instance->SMCR;
 80047c4:	687b      	ldr	r3, [r7, #4]
 80047c6:	681b      	ldr	r3, [r3, #0]
 80047c8:	689b      	ldr	r3, [r3, #8]
 80047ca:	60bb      	str	r3, [r7, #8]
      tmpsmcr |= (TIM_SLAVEMODE_EXTERNAL1 | TIM_CLOCKSOURCE_ETRMODE1);
 80047cc:	68bb      	ldr	r3, [r7, #8]
 80047ce:	2277      	movs	r2, #119	@ 0x77
 80047d0:	4313      	orrs	r3, r2
 80047d2:	60bb      	str	r3, [r7, #8]
      /* Write to TIMx SMCR */
      htim->Instance->SMCR = tmpsmcr;
 80047d4:	687b      	ldr	r3, [r7, #4]
 80047d6:	681b      	ldr	r3, [r3, #0]
 80047d8:	68ba      	ldr	r2, [r7, #8]
 80047da:	609a      	str	r2, [r3, #8]
      break;
 80047dc:	e052      	b.n	8004884 <HAL_TIM_ConfigClockSource+0x184>
      assert_param(IS_TIM_CLOCKPRESCALER(sClockSourceConfig->ClockPrescaler));
      assert_param(IS_TIM_CLOCKPOLARITY(sClockSourceConfig->ClockPolarity));
      assert_param(IS_TIM_CLOCKFILTER(sClockSourceConfig->ClockFilter));

      /* Configure the ETR Clock source */
      TIM_ETR_SetConfig(htim->Instance,
 80047de:	687b      	ldr	r3, [r7, #4]
 80047e0:	6818      	ldr	r0, [r3, #0]
                        sClockSourceConfig->ClockPrescaler,
 80047e2:	683b      	ldr	r3, [r7, #0]
 80047e4:	6899      	ldr	r1, [r3, #8]
                        sClockSourceConfig->ClockPolarity,
 80047e6:	683b      	ldr	r3, [r7, #0]
 80047e8:	685a      	ldr	r2, [r3, #4]
                        sClockSourceConfig->ClockFilter);
 80047ea:	683b      	ldr	r3, [r7, #0]
 80047ec:	68db      	ldr	r3, [r3, #12]
      TIM_ETR_SetConfig(htim->Instance,
 80047ee:	f000 f939 	bl	8004a64 <TIM_ETR_SetConfig>
      /* Enable the External clock mode2 */
      htim->Instance->SMCR |= TIM_SMCR_ECE;
 80047f2:	687b      	ldr	r3, [r7, #4]
 80047f4:	681b      	ldr	r3, [r3, #0]
 80047f6:	689a      	ldr	r2, [r3, #8]
 80047f8:	687b      	ldr	r3, [r7, #4]
 80047fa:	681b      	ldr	r3, [r3, #0]
 80047fc:	2180      	movs	r1, #128	@ 0x80
 80047fe:	01c9      	lsls	r1, r1, #7
 8004800:	430a      	orrs	r2, r1
 8004802:	609a      	str	r2, [r3, #8]
      break;
 8004804:	e03e      	b.n	8004884 <HAL_TIM_ConfigClockSource+0x184>

      /* Check TI1 input conditioning related parameters */
      assert_param(IS_TIM_CLOCKPOLARITY(sClockSourceConfig->ClockPolarity));
      assert_param(IS_TIM_CLOCKFILTER(sClockSourceConfig->ClockFilter));

      TIM_TI1_ConfigInputStage(htim->Instance,
 8004806:	687b      	ldr	r3, [r7, #4]
 8004808:	6818      	ldr	r0, [r3, #0]
                               sClockSourceConfig->ClockPolarity,
 800480a:	683b      	ldr	r3, [r7, #0]
 800480c:	6859      	ldr	r1, [r3, #4]
                               sClockSourceConfig->ClockFilter);
 800480e:	683b      	ldr	r3, [r7, #0]
 8004810:	68db      	ldr	r3, [r3, #12]
      TIM_TI1_ConfigInputStage(htim->Instance,
 8004812:	001a      	movs	r2, r3
 8004814:	f000 f8ac 	bl	8004970 <TIM_TI1_ConfigInputStage>
      TIM_ITRx_SetConfig(htim->Instance, TIM_CLOCKSOURCE_TI1);
 8004818:	687b      	ldr	r3, [r7, #4]
 800481a:	681b      	ldr	r3, [r3, #0]
 800481c:	2150      	movs	r1, #80	@ 0x50
 800481e:	0018      	movs	r0, r3
 8004820:	f000 f906 	bl	8004a30 <TIM_ITRx_SetConfig>
      break;
 8004824:	e02e      	b.n	8004884 <HAL_TIM_ConfigClockSource+0x184>

      /* Check TI2 input conditioning related parameters */
      assert_param(IS_TIM_CLOCKPOLARITY(sClockSourceConfig->ClockPolarity));
      assert_param(IS_TIM_CLOCKFILTER(sClockSourceConfig->ClockFilter));

      TIM_TI2_ConfigInputStage(htim->Instance,
 8004826:	687b      	ldr	r3, [r7, #4]
 8004828:	6818      	ldr	r0, [r3, #0]
                               sClockSourceConfig->ClockPolarity,
 800482a:	683b      	ldr	r3, [r7, #0]
 800482c:	6859      	ldr	r1, [r3, #4]
                               sClockSourceConfig->ClockFilter);
 800482e:	683b      	ldr	r3, [r7, #0]
 8004830:	68db      	ldr	r3, [r3, #12]
      TIM_TI2_ConfigInputStage(htim->Instance,
 8004832:	001a      	movs	r2, r3
 8004834:	f000 f8ca 	bl	80049cc <TIM_TI2_ConfigInputStage>
      TIM_ITRx_SetConfig(htim->Instance, TIM_CLOCKSOURCE_TI2);
 8004838:	687b      	ldr	r3, [r7, #4]
 800483a:	681b      	ldr	r3, [r3, #0]
 800483c:	2160      	movs	r1, #96	@ 0x60
 800483e:	0018      	movs	r0, r3
 8004840:	f000 f8f6 	bl	8004a30 <TIM_ITRx_SetConfig>
      break;
 8004844:	e01e      	b.n	8004884 <HAL_TIM_ConfigClockSource+0x184>

      /* Check TI1 input conditioning related parameters */
      assert_param(IS_TIM_CLOCKPOLARITY(sClockSourceConfig->ClockPolarity));
      assert_param(IS_TIM_CLOCKFILTER(sClockSourceConfig->ClockFilter));

      TIM_TI1_ConfigInputStage(htim->Instance,
 8004846:	687b      	ldr	r3, [r7, #4]
 8004848:	6818      	ldr	r0, [r3, #0]
                               sClockSourceConfig->ClockPolarity,
 800484a:	683b      	ldr	r3, [r7, #0]
 800484c:	6859      	ldr	r1, [r3, #4]
                               sClockSourceConfig->ClockFilter);
 800484e:	683b      	ldr	r3, [r7, #0]
 8004850:	68db      	ldr	r3, [r3, #12]
      TIM_TI1_ConfigInputStage(htim->Instance,
 8004852:	001a      	movs	r2, r3
 8004854:	f000 f88c 	bl	8004970 <TIM_TI1_ConfigInputStage>
      TIM_ITRx_SetConfig(htim->Instance, TIM_CLOCKSOURCE_TI1ED);
 8004858:	687b      	ldr	r3, [r7, #4]
 800485a:	681b      	ldr	r3, [r3, #0]
 800485c:	2140      	movs	r1, #64	@ 0x40
 800485e:	0018      	movs	r0, r3
 8004860:	f000 f8e6 	bl	8004a30 <TIM_ITRx_SetConfig>
      break;
 8004864:	e00e      	b.n	8004884 <HAL_TIM_ConfigClockSource+0x184>
    case TIM_CLOCKSOURCE_ITR3:
    {
      /* Check whether or not the timer instance supports internal trigger input */
      assert_param(IS_TIM_CLOCKSOURCE_ITRX_INSTANCE(htim->Instance));

      TIM_ITRx_SetConfig(htim->Instance, sClockSourceConfig->ClockSource);
 8004866:	687b      	ldr	r3, [r7, #4]
 8004868:	681a      	ldr	r2, [r3, #0]
 800486a:	683b      	ldr	r3, [r7, #0]
 800486c:	681b      	ldr	r3, [r3, #0]
 800486e:	0019      	movs	r1, r3
 8004870:	0010      	movs	r0, r2
 8004872:	f000 f8dd 	bl	8004a30 <TIM_ITRx_SetConfig>
      break;
 8004876:	e005      	b.n	8004884 <HAL_TIM_ConfigClockSource+0x184>
    }

    default:
      status = HAL_ERROR;
 8004878:	230f      	movs	r3, #15
 800487a:	18fb      	adds	r3, r7, r3
 800487c:	2201      	movs	r2, #1
 800487e:	701a      	strb	r2, [r3, #0]
      break;
 8004880:	e000      	b.n	8004884 <HAL_TIM_ConfigClockSource+0x184>
      break;
 8004882:	46c0      	nop			@ (mov r8, r8)
  }
  htim->State = HAL_TIM_STATE_READY;
 8004884:	687b      	ldr	r3, [r7, #4]
 8004886:	2239      	movs	r2, #57	@ 0x39
 8004888:	2101      	movs	r1, #1
 800488a:	5499      	strb	r1, [r3, r2]

  __HAL_UNLOCK(htim);
 800488c:	687b      	ldr	r3, [r7, #4]
 800488e:	2238      	movs	r2, #56	@ 0x38
 8004890:	2100      	movs	r1, #0
 8004892:	5499      	strb	r1, [r3, r2]

  return status;
 8004894:	230f      	movs	r3, #15
 8004896:	18fb      	adds	r3, r7, r3
 8004898:	781b      	ldrb	r3, [r3, #0]
}
 800489a:	0018      	movs	r0, r3
 800489c:	46bd      	mov	sp, r7
 800489e:	b004      	add	sp, #16
 80048a0:	bd80      	pop	{r7, pc}
 80048a2:	46c0      	nop			@ (mov r8, r8)
 80048a4:	ffff00ff 	.word	0xffff00ff

080048a8 <TIM_Base_SetConfig>:
  * @param  TIMx TIM peripheral
  * @param  Structure TIM Base configuration structure
  * @retval None
  */
static void TIM_Base_SetConfig(TIM_TypeDef *TIMx, const TIM_Base_InitTypeDef *Structure)
{
 80048a8:	b580      	push	{r7, lr}
 80048aa:	b084      	sub	sp, #16
 80048ac:	af00      	add	r7, sp, #0
 80048ae:	6078      	str	r0, [r7, #4]
 80048b0:	6039      	str	r1, [r7, #0]
  uint32_t tmpcr1;
  tmpcr1 = TIMx->CR1;
 80048b2:	687b      	ldr	r3, [r7, #4]
 80048b4:	681b      	ldr	r3, [r3, #0]
 80048b6:	60fb      	str	r3, [r7, #12]

  /* Set TIM Time Base Unit parameters ---------------------------------------*/
  if (IS_TIM_COUNTER_MODE_SELECT_INSTANCE(TIMx))
 80048b8:	687a      	ldr	r2, [r7, #4]
 80048ba:	2380      	movs	r3, #128	@ 0x80
 80048bc:	05db      	lsls	r3, r3, #23
 80048be:	429a      	cmp	r2, r3
 80048c0:	d00b      	beq.n	80048da <TIM_Base_SetConfig+0x32>
 80048c2:	687b      	ldr	r3, [r7, #4]
 80048c4:	4a26      	ldr	r2, [pc, #152]	@ (8004960 <TIM_Base_SetConfig+0xb8>)
 80048c6:	4293      	cmp	r3, r2
 80048c8:	d007      	beq.n	80048da <TIM_Base_SetConfig+0x32>
 80048ca:	687b      	ldr	r3, [r7, #4]
 80048cc:	4a25      	ldr	r2, [pc, #148]	@ (8004964 <TIM_Base_SetConfig+0xbc>)
 80048ce:	4293      	cmp	r3, r2
 80048d0:	d003      	beq.n	80048da <TIM_Base_SetConfig+0x32>
 80048d2:	687b      	ldr	r3, [r7, #4]
 80048d4:	4a24      	ldr	r2, [pc, #144]	@ (8004968 <TIM_Base_SetConfig+0xc0>)
 80048d6:	4293      	cmp	r3, r2
 80048d8:	d108      	bne.n	80048ec <TIM_Base_SetConfig+0x44>
  {
    /* Select the Counter Mode */
    tmpcr1 &= ~(TIM_CR1_DIR | TIM_CR1_CMS);
 80048da:	68fb      	ldr	r3, [r7, #12]
 80048dc:	2270      	movs	r2, #112	@ 0x70
 80048de:	4393      	bics	r3, r2
 80048e0:	60fb      	str	r3, [r7, #12]
    tmpcr1 |= Structure->CounterMode;
 80048e2:	683b      	ldr	r3, [r7, #0]
 80048e4:	685b      	ldr	r3, [r3, #4]
 80048e6:	68fa      	ldr	r2, [r7, #12]
 80048e8:	4313      	orrs	r3, r2
 80048ea:	60fb      	str	r3, [r7, #12]
  }

  if (IS_TIM_CLOCK_DIVISION_INSTANCE(TIMx))
 80048ec:	687a      	ldr	r2, [r7, #4]
 80048ee:	2380      	movs	r3, #128	@ 0x80
 80048f0:	05db      	lsls	r3, r3, #23
 80048f2:	429a      	cmp	r2, r3
 80048f4:	d00b      	beq.n	800490e <TIM_Base_SetConfig+0x66>
 80048f6:	687b      	ldr	r3, [r7, #4]
 80048f8:	4a19      	ldr	r2, [pc, #100]	@ (8004960 <TIM_Base_SetConfig+0xb8>)
 80048fa:	4293      	cmp	r3, r2
 80048fc:	d007      	beq.n	800490e <TIM_Base_SetConfig+0x66>
 80048fe:	687b      	ldr	r3, [r7, #4]
 8004900:	4a18      	ldr	r2, [pc, #96]	@ (8004964 <TIM_Base_SetConfig+0xbc>)
 8004902:	4293      	cmp	r3, r2
 8004904:	d003      	beq.n	800490e <TIM_Base_SetConfig+0x66>
 8004906:	687b      	ldr	r3, [r7, #4]
 8004908:	4a17      	ldr	r2, [pc, #92]	@ (8004968 <TIM_Base_SetConfig+0xc0>)
 800490a:	4293      	cmp	r3, r2
 800490c:	d108      	bne.n	8004920 <TIM_Base_SetConfig+0x78>
  {
    /* Set the clock division */
    tmpcr1 &= ~TIM_CR1_CKD;
 800490e:	68fb      	ldr	r3, [r7, #12]
 8004910:	4a16      	ldr	r2, [pc, #88]	@ (800496c <TIM_Base_SetConfig+0xc4>)
 8004912:	4013      	ands	r3, r2
 8004914:	60fb      	str	r3, [r7, #12]
    tmpcr1 |= (uint32_t)Structure->ClockDivision;
 8004916:	683b      	ldr	r3, [r7, #0]
 8004918:	68db      	ldr	r3, [r3, #12]
 800491a:	68fa      	ldr	r2, [r7, #12]
 800491c:	4313      	orrs	r3, r2
 800491e:	60fb      	str	r3, [r7, #12]
  }

  /* Set the auto-reload preload */
  MODIFY_REG(tmpcr1, TIM_CR1_ARPE, Structure->AutoReloadPreload);
 8004920:	68fb      	ldr	r3, [r7, #12]
 8004922:	2280      	movs	r2, #128	@ 0x80
 8004924:	4393      	bics	r3, r2
 8004926:	001a      	movs	r2, r3
 8004928:	683b      	ldr	r3, [r7, #0]
 800492a:	691b      	ldr	r3, [r3, #16]
 800492c:	4313      	orrs	r3, r2
 800492e:	60fb      	str	r3, [r7, #12]

  /* Set the Autoreload value */
  TIMx->ARR = (uint32_t)Structure->Period ;
 8004930:	683b      	ldr	r3, [r7, #0]
 8004932:	689a      	ldr	r2, [r3, #8]
 8004934:	687b      	ldr	r3, [r7, #4]
 8004936:	62da      	str	r2, [r3, #44]	@ 0x2c

  /* Set the Prescaler value */
  TIMx->PSC = Structure->Prescaler;
 8004938:	683b      	ldr	r3, [r7, #0]
 800493a:	681a      	ldr	r2, [r3, #0]
 800493c:	687b      	ldr	r3, [r7, #4]
 800493e:	629a      	str	r2, [r3, #40]	@ 0x28

  /* Disable Update Event (UEV) with Update Generation (UG)
     by changing Update Request Source (URS) to avoid Update flag (UIF) */
  SET_BIT(TIMx->CR1, TIM_CR1_URS);
 8004940:	687b      	ldr	r3, [r7, #4]
 8004942:	681b      	ldr	r3, [r3, #0]
 8004944:	2204      	movs	r2, #4
 8004946:	431a      	orrs	r2, r3
 8004948:	687b      	ldr	r3, [r7, #4]
 800494a:	601a      	str	r2, [r3, #0]

  /* Generate an update event to reload the Prescaler
     and the repetition counter (only for advanced timer) value immediately */
  TIMx->EGR = TIM_EGR_UG;
 800494c:	687b      	ldr	r3, [r7, #4]
 800494e:	2201      	movs	r2, #1
 8004950:	615a      	str	r2, [r3, #20]

  TIMx->CR1 = tmpcr1;
 8004952:	687b      	ldr	r3, [r7, #4]
 8004954:	68fa      	ldr	r2, [r7, #12]
 8004956:	601a      	str	r2, [r3, #0]
}
 8004958:	46c0      	nop			@ (mov r8, r8)
 800495a:	46bd      	mov	sp, r7
 800495c:	b004      	add	sp, #16
 800495e:	bd80      	pop	{r7, pc}
 8004960:	40000400 	.word	0x40000400
 8004964:	40010800 	.word	0x40010800
 8004968:	40011400 	.word	0x40011400
 800496c:	fffffcff 	.word	0xfffffcff

08004970 <TIM_TI1_ConfigInputStage>:
  * @param  TIM_ICFilter Specifies the Input Capture Filter.
  *          This parameter must be a value between 0x00 and 0x0F.
  * @retval None
  */
static void TIM_TI1_ConfigInputStage(TIM_TypeDef *TIMx, uint32_t TIM_ICPolarity, uint32_t TIM_ICFilter)
{
 8004970:	b580      	push	{r7, lr}
 8004972:	b086      	sub	sp, #24
 8004974:	af00      	add	r7, sp, #0
 8004976:	60f8      	str	r0, [r7, #12]
 8004978:	60b9      	str	r1, [r7, #8]
 800497a:	607a      	str	r2, [r7, #4]
  uint32_t tmpccmr1;
  uint32_t tmpccer;

  /* Disable the Channel 1: Reset the CC1E Bit */
  tmpccer = TIMx->CCER;
 800497c:	68fb      	ldr	r3, [r7, #12]
 800497e:	6a1b      	ldr	r3, [r3, #32]
 8004980:	617b      	str	r3, [r7, #20]
  TIMx->CCER &= ~TIM_CCER_CC1E;
 8004982:	68fb      	ldr	r3, [r7, #12]
 8004984:	6a1b      	ldr	r3, [r3, #32]
 8004986:	2201      	movs	r2, #1
 8004988:	4393      	bics	r3, r2
 800498a:	001a      	movs	r2, r3
 800498c:	68fb      	ldr	r3, [r7, #12]
 800498e:	621a      	str	r2, [r3, #32]
  tmpccmr1 = TIMx->CCMR1;
 8004990:	68fb      	ldr	r3, [r7, #12]
 8004992:	699b      	ldr	r3, [r3, #24]
 8004994:	613b      	str	r3, [r7, #16]

  /* Set the filter */
  tmpccmr1 &= ~TIM_CCMR1_IC1F;
 8004996:	693b      	ldr	r3, [r7, #16]
 8004998:	22f0      	movs	r2, #240	@ 0xf0
 800499a:	4393      	bics	r3, r2
 800499c:	613b      	str	r3, [r7, #16]
  tmpccmr1 |= (TIM_ICFilter << 4U);
 800499e:	687b      	ldr	r3, [r7, #4]
 80049a0:	011b      	lsls	r3, r3, #4
 80049a2:	693a      	ldr	r2, [r7, #16]
 80049a4:	4313      	orrs	r3, r2
 80049a6:	613b      	str	r3, [r7, #16]

  /* Select the Polarity and set the CC1E Bit */
  tmpccer &= ~(TIM_CCER_CC1P | TIM_CCER_CC1NP);
 80049a8:	697b      	ldr	r3, [r7, #20]
 80049aa:	220a      	movs	r2, #10
 80049ac:	4393      	bics	r3, r2
 80049ae:	617b      	str	r3, [r7, #20]
  tmpccer |= TIM_ICPolarity;
 80049b0:	697a      	ldr	r2, [r7, #20]
 80049b2:	68bb      	ldr	r3, [r7, #8]
 80049b4:	4313      	orrs	r3, r2
 80049b6:	617b      	str	r3, [r7, #20]

  /* Write to TIMx CCMR1 and CCER registers */
  TIMx->CCMR1 = tmpccmr1;
 80049b8:	68fb      	ldr	r3, [r7, #12]
 80049ba:	693a      	ldr	r2, [r7, #16]
 80049bc:	619a      	str	r2, [r3, #24]
  TIMx->CCER = tmpccer;
 80049be:	68fb      	ldr	r3, [r7, #12]
 80049c0:	697a      	ldr	r2, [r7, #20]
 80049c2:	621a      	str	r2, [r3, #32]
}
 80049c4:	46c0      	nop			@ (mov r8, r8)
 80049c6:	46bd      	mov	sp, r7
 80049c8:	b006      	add	sp, #24
 80049ca:	bd80      	pop	{r7, pc}

080049cc <TIM_TI2_ConfigInputStage>:
  * @param  TIM_ICFilter Specifies the Input Capture Filter.
  *          This parameter must be a value between 0x00 and 0x0F.
  * @retval None
  */
static void TIM_TI2_ConfigInputStage(TIM_TypeDef *TIMx, uint32_t TIM_ICPolarity, uint32_t TIM_ICFilter)
{
 80049cc:	b580      	push	{r7, lr}
 80049ce:	b086      	sub	sp, #24
 80049d0:	af00      	add	r7, sp, #0
 80049d2:	60f8      	str	r0, [r7, #12]
 80049d4:	60b9      	str	r1, [r7, #8]
 80049d6:	607a      	str	r2, [r7, #4]
  uint32_t tmpccmr1;
  uint32_t tmpccer;

  /* Disable the Channel 2: Reset the CC2E Bit */
  tmpccer = TIMx->CCER;
 80049d8:	68fb      	ldr	r3, [r7, #12]
 80049da:	6a1b      	ldr	r3, [r3, #32]
 80049dc:	617b      	str	r3, [r7, #20]
  TIMx->CCER &= ~TIM_CCER_CC2E;
 80049de:	68fb      	ldr	r3, [r7, #12]
 80049e0:	6a1b      	ldr	r3, [r3, #32]
 80049e2:	2210      	movs	r2, #16
 80049e4:	4393      	bics	r3, r2
 80049e6:	001a      	movs	r2, r3
 80049e8:	68fb      	ldr	r3, [r7, #12]
 80049ea:	621a      	str	r2, [r3, #32]
  tmpccmr1 = TIMx->CCMR1;
 80049ec:	68fb      	ldr	r3, [r7, #12]
 80049ee:	699b      	ldr	r3, [r3, #24]
 80049f0:	613b      	str	r3, [r7, #16]

  /* Set the filter */
  tmpccmr1 &= ~TIM_CCMR1_IC2F;
 80049f2:	693b      	ldr	r3, [r7, #16]
 80049f4:	4a0d      	ldr	r2, [pc, #52]	@ (8004a2c <TIM_TI2_ConfigInputStage+0x60>)
 80049f6:	4013      	ands	r3, r2
 80049f8:	613b      	str	r3, [r7, #16]
  tmpccmr1 |= (TIM_ICFilter << 12U);
 80049fa:	687b      	ldr	r3, [r7, #4]
 80049fc:	031b      	lsls	r3, r3, #12
 80049fe:	693a      	ldr	r2, [r7, #16]
 8004a00:	4313      	orrs	r3, r2
 8004a02:	613b      	str	r3, [r7, #16]

  /* Select the Polarity and set the CC2E Bit */
  tmpccer &= ~(TIM_CCER_CC2P | TIM_CCER_CC2NP);
 8004a04:	697b      	ldr	r3, [r7, #20]
 8004a06:	22a0      	movs	r2, #160	@ 0xa0
 8004a08:	4393      	bics	r3, r2
 8004a0a:	617b      	str	r3, [r7, #20]
  tmpccer |= (TIM_ICPolarity << 4U);
 8004a0c:	68bb      	ldr	r3, [r7, #8]
 8004a0e:	011b      	lsls	r3, r3, #4
 8004a10:	697a      	ldr	r2, [r7, #20]
 8004a12:	4313      	orrs	r3, r2
 8004a14:	617b      	str	r3, [r7, #20]

  /* Write to TIMx CCMR1 and CCER registers */
  TIMx->CCMR1 = tmpccmr1 ;
 8004a16:	68fb      	ldr	r3, [r7, #12]
 8004a18:	693a      	ldr	r2, [r7, #16]
 8004a1a:	619a      	str	r2, [r3, #24]
  TIMx->CCER = tmpccer;
 8004a1c:	68fb      	ldr	r3, [r7, #12]
 8004a1e:	697a      	ldr	r2, [r7, #20]
 8004a20:	621a      	str	r2, [r3, #32]
}
 8004a22:	46c0      	nop			@ (mov r8, r8)
 8004a24:	46bd      	mov	sp, r7
 8004a26:	b006      	add	sp, #24
 8004a28:	bd80      	pop	{r7, pc}
 8004a2a:	46c0      	nop			@ (mov r8, r8)
 8004a2c:	ffff0fff 	.word	0xffff0fff

08004a30 <TIM_ITRx_SetConfig>:
  *            @arg TIM_TS_TI2FP2: Filtered Timer Input 2
  *            @arg TIM_TS_ETRF: External Trigger input
  * @retval None
  */
static void TIM_ITRx_SetConfig(TIM_TypeDef *TIMx, uint32_t InputTriggerSource)
{
 8004a30:	b580      	push	{r7, lr}
 8004a32:	b084      	sub	sp, #16
 8004a34:	af00      	add	r7, sp, #0
 8004a36:	6078      	str	r0, [r7, #4]
 8004a38:	6039      	str	r1, [r7, #0]
  uint32_t tmpsmcr;

  /* Get the TIMx SMCR register value */
  tmpsmcr = TIMx->SMCR;
 8004a3a:	687b      	ldr	r3, [r7, #4]
 8004a3c:	689b      	ldr	r3, [r3, #8]
 8004a3e:	60fb      	str	r3, [r7, #12]
  /* Reset the TS Bits */
  tmpsmcr &= ~TIM_SMCR_TS;
 8004a40:	68fb      	ldr	r3, [r7, #12]
 8004a42:	2270      	movs	r2, #112	@ 0x70
 8004a44:	4393      	bics	r3, r2
 8004a46:	60fb      	str	r3, [r7, #12]
  /* Set the Input Trigger source and the slave mode*/
  tmpsmcr |= (InputTriggerSource | TIM_SLAVEMODE_EXTERNAL1);
 8004a48:	683a      	ldr	r2, [r7, #0]
 8004a4a:	68fb      	ldr	r3, [r7, #12]
 8004a4c:	4313      	orrs	r3, r2
 8004a4e:	2207      	movs	r2, #7
 8004a50:	4313      	orrs	r3, r2
 8004a52:	60fb      	str	r3, [r7, #12]
  /* Write to TIMx SMCR */
  TIMx->SMCR = tmpsmcr;
 8004a54:	687b      	ldr	r3, [r7, #4]
 8004a56:	68fa      	ldr	r2, [r7, #12]
 8004a58:	609a      	str	r2, [r3, #8]
}
 8004a5a:	46c0      	nop			@ (mov r8, r8)
 8004a5c:	46bd      	mov	sp, r7
 8004a5e:	b004      	add	sp, #16
 8004a60:	bd80      	pop	{r7, pc}
	...

08004a64 <TIM_ETR_SetConfig>:
  *          This parameter must be a value between 0x00 and 0x0F
  * @retval None
  */
static void TIM_ETR_SetConfig(TIM_TypeDef *TIMx, uint32_t TIM_ExtTRGPrescaler,
                              uint32_t TIM_ExtTRGPolarity, uint32_t ExtTRGFilter)
{
 8004a64:	b580      	push	{r7, lr}
 8004a66:	b086      	sub	sp, #24
 8004a68:	af00      	add	r7, sp, #0
 8004a6a:	60f8      	str	r0, [r7, #12]
 8004a6c:	60b9      	str	r1, [r7, #8]
 8004a6e:	607a      	str	r2, [r7, #4]
 8004a70:	603b      	str	r3, [r7, #0]
  uint32_t tmpsmcr;

  tmpsmcr = TIMx->SMCR;
 8004a72:	68fb      	ldr	r3, [r7, #12]
 8004a74:	689b      	ldr	r3, [r3, #8]
 8004a76:	617b      	str	r3, [r7, #20]

  /* Reset the ETR Bits */
  tmpsmcr &= ~(TIM_SMCR_ETF | TIM_SMCR_ETPS | TIM_SMCR_ECE | TIM_SMCR_ETP);
 8004a78:	697b      	ldr	r3, [r7, #20]
 8004a7a:	4a09      	ldr	r2, [pc, #36]	@ (8004aa0 <TIM_ETR_SetConfig+0x3c>)
 8004a7c:	4013      	ands	r3, r2
 8004a7e:	617b      	str	r3, [r7, #20]

  /* Set the Prescaler, the Filter value and the Polarity */
  tmpsmcr |= (uint32_t)(TIM_ExtTRGPrescaler | (TIM_ExtTRGPolarity | (ExtTRGFilter << 8U)));
 8004a80:	683b      	ldr	r3, [r7, #0]
 8004a82:	021a      	lsls	r2, r3, #8
 8004a84:	687b      	ldr	r3, [r7, #4]
 8004a86:	431a      	orrs	r2, r3
 8004a88:	68bb      	ldr	r3, [r7, #8]
 8004a8a:	4313      	orrs	r3, r2
 8004a8c:	697a      	ldr	r2, [r7, #20]
 8004a8e:	4313      	orrs	r3, r2
 8004a90:	617b      	str	r3, [r7, #20]

  /* Write to TIMx SMCR */
  TIMx->SMCR = tmpsmcr;
 8004a92:	68fb      	ldr	r3, [r7, #12]
 8004a94:	697a      	ldr	r2, [r7, #20]
 8004a96:	609a      	str	r2, [r3, #8]
}
 8004a98:	46c0      	nop			@ (mov r8, r8)
 8004a9a:	46bd      	mov	sp, r7
 8004a9c:	b006      	add	sp, #24
 8004a9e:	bd80      	pop	{r7, pc}
 8004aa0:	ffff00ff 	.word	0xffff00ff

08004aa4 <HAL_TIMEx_MasterConfigSynchronization>:
  *         mode.
  * @retval HAL status
  */
HAL_StatusTypeDef HAL_TIMEx_MasterConfigSynchronization(TIM_HandleTypeDef *htim,
                                                        const TIM_MasterConfigTypeDef *sMasterConfig)
{
 8004aa4:	b580      	push	{r7, lr}
 8004aa6:	b084      	sub	sp, #16
 8004aa8:	af00      	add	r7, sp, #0
 8004aaa:	6078      	str	r0, [r7, #4]
 8004aac:	6039      	str	r1, [r7, #0]
  assert_param(IS_TIM_MASTER_INSTANCE(htim->Instance));
  assert_param(IS_TIM_TRGO_SOURCE(sMasterConfig->MasterOutputTrigger));
  assert_param(IS_TIM_MSM_STATE(sMasterConfig->MasterSlaveMode));

  /* Check input state */
  __HAL_LOCK(htim);
 8004aae:	687b      	ldr	r3, [r7, #4]
 8004ab0:	2238      	movs	r2, #56	@ 0x38
 8004ab2:	5c9b      	ldrb	r3, [r3, r2]
 8004ab4:	2b01      	cmp	r3, #1
 8004ab6:	d101      	bne.n	8004abc <HAL_TIMEx_MasterConfigSynchronization+0x18>
 8004ab8:	2302      	movs	r3, #2
 8004aba:	e047      	b.n	8004b4c <HAL_TIMEx_MasterConfigSynchronization+0xa8>
 8004abc:	687b      	ldr	r3, [r7, #4]
 8004abe:	2238      	movs	r2, #56	@ 0x38
 8004ac0:	2101      	movs	r1, #1
 8004ac2:	5499      	strb	r1, [r3, r2]

  /* Change the handler state */
  htim->State = HAL_TIM_STATE_BUSY;
 8004ac4:	687b      	ldr	r3, [r7, #4]
 8004ac6:	2239      	movs	r2, #57	@ 0x39
 8004ac8:	2102      	movs	r1, #2
 8004aca:	5499      	strb	r1, [r3, r2]

  /* Get the TIMx CR2 register value */
  tmpcr2 = htim->Instance->CR2;
 8004acc:	687b      	ldr	r3, [r7, #4]
 8004ace:	681b      	ldr	r3, [r3, #0]
 8004ad0:	685b      	ldr	r3, [r3, #4]
 8004ad2:	60fb      	str	r3, [r7, #12]

  /* Get the TIMx SMCR register value */
  tmpsmcr = htim->Instance->SMCR;
 8004ad4:	687b      	ldr	r3, [r7, #4]
 8004ad6:	681b      	ldr	r3, [r3, #0]
 8004ad8:	689b      	ldr	r3, [r3, #8]
 8004ada:	60bb      	str	r3, [r7, #8]

  /* Reset the MMS Bits */
  tmpcr2 &= ~TIM_CR2_MMS;
 8004adc:	68fb      	ldr	r3, [r7, #12]
 8004ade:	2270      	movs	r2, #112	@ 0x70
 8004ae0:	4393      	bics	r3, r2
 8004ae2:	60fb      	str	r3, [r7, #12]
  /* Select the TRGO source */
  tmpcr2 |=  sMasterConfig->MasterOutputTrigger;
 8004ae4:	683b      	ldr	r3, [r7, #0]
 8004ae6:	681b      	ldr	r3, [r3, #0]
 8004ae8:	68fa      	ldr	r2, [r7, #12]
 8004aea:	4313      	orrs	r3, r2
 8004aec:	60fb      	str	r3, [r7, #12]

  /* Update TIMx CR2 */
  htim->Instance->CR2 = tmpcr2;
 8004aee:	687b      	ldr	r3, [r7, #4]
 8004af0:	681b      	ldr	r3, [r3, #0]
 8004af2:	68fa      	ldr	r2, [r7, #12]
 8004af4:	605a      	str	r2, [r3, #4]

  if (IS_TIM_SLAVE_INSTANCE(htim->Instance))
 8004af6:	687b      	ldr	r3, [r7, #4]
 8004af8:	681a      	ldr	r2, [r3, #0]
 8004afa:	2380      	movs	r3, #128	@ 0x80
 8004afc:	05db      	lsls	r3, r3, #23
 8004afe:	429a      	cmp	r2, r3
 8004b00:	d00e      	beq.n	8004b20 <HAL_TIMEx_MasterConfigSynchronization+0x7c>
 8004b02:	687b      	ldr	r3, [r7, #4]
 8004b04:	681b      	ldr	r3, [r3, #0]
 8004b06:	4a13      	ldr	r2, [pc, #76]	@ (8004b54 <HAL_TIMEx_MasterConfigSynchronization+0xb0>)
 8004b08:	4293      	cmp	r3, r2
 8004b0a:	d009      	beq.n	8004b20 <HAL_TIMEx_MasterConfigSynchronization+0x7c>
 8004b0c:	687b      	ldr	r3, [r7, #4]
 8004b0e:	681b      	ldr	r3, [r3, #0]
 8004b10:	4a11      	ldr	r2, [pc, #68]	@ (8004b58 <HAL_TIMEx_MasterConfigSynchronization+0xb4>)
 8004b12:	4293      	cmp	r3, r2
 8004b14:	d004      	beq.n	8004b20 <HAL_TIMEx_MasterConfigSynchronization+0x7c>
 8004b16:	687b      	ldr	r3, [r7, #4]
 8004b18:	681b      	ldr	r3, [r3, #0]
 8004b1a:	4a10      	ldr	r2, [pc, #64]	@ (8004b5c <HAL_TIMEx_MasterConfigSynchronization+0xb8>)
 8004b1c:	4293      	cmp	r3, r2
 8004b1e:	d10c      	bne.n	8004b3a <HAL_TIMEx_MasterConfigSynchronization+0x96>
  {
    /* Reset the MSM Bit */
    tmpsmcr &= ~TIM_SMCR_MSM;
 8004b20:	68bb      	ldr	r3, [r7, #8]
 8004b22:	2280      	movs	r2, #128	@ 0x80
 8004b24:	4393      	bics	r3, r2
 8004b26:	60bb      	str	r3, [r7, #8]
    /* Set master mode */
    tmpsmcr |= sMasterConfig->MasterSlaveMode;
 8004b28:	683b      	ldr	r3, [r7, #0]
 8004b2a:	685b      	ldr	r3, [r3, #4]
 8004b2c:	68ba      	ldr	r2, [r7, #8]
 8004b2e:	4313      	orrs	r3, r2
 8004b30:	60bb      	str	r3, [r7, #8]

    /* Update TIMx SMCR */
    htim->Instance->SMCR = tmpsmcr;
 8004b32:	687b      	ldr	r3, [r7, #4]
 8004b34:	681b      	ldr	r3, [r3, #0]
 8004b36:	68ba      	ldr	r2, [r7, #8]
 8004b38:	609a      	str	r2, [r3, #8]
  }

  /* Change the htim state */
  htim->State = HAL_TIM_STATE_READY;
 8004b3a:	687b      	ldr	r3, [r7, #4]
 8004b3c:	2239      	movs	r2, #57	@ 0x39
 8004b3e:	2101      	movs	r1, #1
 8004b40:	5499      	strb	r1, [r3, r2]

  __HAL_UNLOCK(htim);
 8004b42:	687b      	ldr	r3, [r7, #4]
 8004b44:	2238      	movs	r2, #56	@ 0x38
 8004b46:	2100      	movs	r1, #0
 8004b48:	5499      	strb	r1, [r3, r2]

  return HAL_OK;
 8004b4a:	2300      	movs	r3, #0
}
 8004b4c:	0018      	movs	r0, r3
 8004b4e:	46bd      	mov	sp, r7
 8004b50:	b004      	add	sp, #16
 8004b52:	bd80      	pop	{r7, pc}
 8004b54:	40000400 	.word	0x40000400
 8004b58:	40010800 	.word	0x40010800
 8004b5c:	40011400 	.word	0x40011400

08004b60 <LL_GPIO_SetPinMode>:
  *         @arg @ref LL_GPIO_MODE_ALTERNATE
  *         @arg @ref LL_GPIO_MODE_ANALOG
  * @retval None
  */
__STATIC_INLINE void LL_GPIO_SetPinMode(GPIO_TypeDef *GPIOx, uint32_t Pin, uint32_t Mode)
{
 8004b60:	b580      	push	{r7, lr}
 8004b62:	b084      	sub	sp, #16
 8004b64:	af00      	add	r7, sp, #0
 8004b66:	60f8      	str	r0, [r7, #12]
 8004b68:	60b9      	str	r1, [r7, #8]
 8004b6a:	607a      	str	r2, [r7, #4]
  MODIFY_REG(GPIOx->MODER, ((Pin * Pin) * GPIO_MODER_MODE0), ((Pin * Pin) * Mode));
 8004b6c:	68fb      	ldr	r3, [r7, #12]
 8004b6e:	6819      	ldr	r1, [r3, #0]
 8004b70:	68bb      	ldr	r3, [r7, #8]
 8004b72:	435b      	muls	r3, r3
 8004b74:	001a      	movs	r2, r3
 8004b76:	0013      	movs	r3, r2
 8004b78:	005b      	lsls	r3, r3, #1
 8004b7a:	189b      	adds	r3, r3, r2
 8004b7c:	43db      	mvns	r3, r3
 8004b7e:	400b      	ands	r3, r1
 8004b80:	001a      	movs	r2, r3
 8004b82:	68bb      	ldr	r3, [r7, #8]
 8004b84:	435b      	muls	r3, r3
 8004b86:	6879      	ldr	r1, [r7, #4]
 8004b88:	434b      	muls	r3, r1
 8004b8a:	431a      	orrs	r2, r3
 8004b8c:	68fb      	ldr	r3, [r7, #12]
 8004b8e:	601a      	str	r2, [r3, #0]
}
 8004b90:	46c0      	nop			@ (mov r8, r8)
 8004b92:	46bd      	mov	sp, r7
 8004b94:	b004      	add	sp, #16
 8004b96:	bd80      	pop	{r7, pc}

08004b98 <LL_GPIO_SetPinOutputType>:
  *         @arg @ref LL_GPIO_OUTPUT_PUSHPULL
  *         @arg @ref LL_GPIO_OUTPUT_OPENDRAIN
  * @retval None
  */
__STATIC_INLINE void LL_GPIO_SetPinOutputType(GPIO_TypeDef *GPIOx, uint32_t PinMask, uint32_t OutputType)
{
 8004b98:	b580      	push	{r7, lr}
 8004b9a:	b084      	sub	sp, #16
 8004b9c:	af00      	add	r7, sp, #0
 8004b9e:	60f8      	str	r0, [r7, #12]
 8004ba0:	60b9      	str	r1, [r7, #8]
 8004ba2:	607a      	str	r2, [r7, #4]
  MODIFY_REG(GPIOx->OTYPER, PinMask, (PinMask * OutputType));
 8004ba4:	68fb      	ldr	r3, [r7, #12]
 8004ba6:	685b      	ldr	r3, [r3, #4]
 8004ba8:	68ba      	ldr	r2, [r7, #8]
 8004baa:	43d2      	mvns	r2, r2
 8004bac:	401a      	ands	r2, r3
 8004bae:	68bb      	ldr	r3, [r7, #8]
 8004bb0:	6879      	ldr	r1, [r7, #4]
 8004bb2:	434b      	muls	r3, r1
 8004bb4:	431a      	orrs	r2, r3
 8004bb6:	68fb      	ldr	r3, [r7, #12]
 8004bb8:	605a      	str	r2, [r3, #4]
}
 8004bba:	46c0      	nop			@ (mov r8, r8)
 8004bbc:	46bd      	mov	sp, r7
 8004bbe:	b004      	add	sp, #16
 8004bc0:	bd80      	pop	{r7, pc}

08004bc2 <LL_GPIO_SetPinSpeed>:
  *         @arg @ref LL_GPIO_SPEED_FREQ_HIGH
  *         @arg @ref LL_GPIO_SPEED_FREQ_VERY_HIGH
  * @retval None
  */
__STATIC_INLINE void LL_GPIO_SetPinSpeed(GPIO_TypeDef *GPIOx, uint32_t Pin, uint32_t  Speed)
{
 8004bc2:	b580      	push	{r7, lr}
 8004bc4:	b084      	sub	sp, #16
 8004bc6:	af00      	add	r7, sp, #0
 8004bc8:	60f8      	str	r0, [r7, #12]
 8004bca:	60b9      	str	r1, [r7, #8]
 8004bcc:	607a      	str	r2, [r7, #4]
  MODIFY_REG(GPIOx->OSPEEDR, ((Pin * Pin) * GPIO_OSPEEDER_OSPEED0), ((Pin * Pin) * Speed));
 8004bce:	68fb      	ldr	r3, [r7, #12]
 8004bd0:	6899      	ldr	r1, [r3, #8]
 8004bd2:	68bb      	ldr	r3, [r7, #8]
 8004bd4:	435b      	muls	r3, r3
 8004bd6:	001a      	movs	r2, r3
 8004bd8:	0013      	movs	r3, r2
 8004bda:	005b      	lsls	r3, r3, #1
 8004bdc:	189b      	adds	r3, r3, r2
 8004bde:	43db      	mvns	r3, r3
 8004be0:	400b      	ands	r3, r1
 8004be2:	001a      	movs	r2, r3
 8004be4:	68bb      	ldr	r3, [r7, #8]
 8004be6:	435b      	muls	r3, r3
 8004be8:	6879      	ldr	r1, [r7, #4]
 8004bea:	434b      	muls	r3, r1
 8004bec:	431a      	orrs	r2, r3
 8004bee:	68fb      	ldr	r3, [r7, #12]
 8004bf0:	609a      	str	r2, [r3, #8]
}
 8004bf2:	46c0      	nop			@ (mov r8, r8)
 8004bf4:	46bd      	mov	sp, r7
 8004bf6:	b004      	add	sp, #16
 8004bf8:	bd80      	pop	{r7, pc}

08004bfa <LL_GPIO_SetPinPull>:
  *         @arg @ref LL_GPIO_PULL_UP
  *         @arg @ref LL_GPIO_PULL_DOWN
  * @retval None
  */
__STATIC_INLINE void LL_GPIO_SetPinPull(GPIO_TypeDef *GPIOx, uint32_t Pin, uint32_t Pull)
{
 8004bfa:	b580      	push	{r7, lr}
 8004bfc:	b084      	sub	sp, #16
 8004bfe:	af00      	add	r7, sp, #0
 8004c00:	60f8      	str	r0, [r7, #12]
 8004c02:	60b9      	str	r1, [r7, #8]
 8004c04:	607a      	str	r2, [r7, #4]
  MODIFY_REG(GPIOx->PUPDR, ((Pin * Pin) * GPIO_PUPDR_PUPD0), ((Pin * Pin) * Pull));
 8004c06:	68fb      	ldr	r3, [r7, #12]
 8004c08:	68d9      	ldr	r1, [r3, #12]
 8004c0a:	68bb      	ldr	r3, [r7, #8]
 8004c0c:	435b      	muls	r3, r3
 8004c0e:	001a      	movs	r2, r3
 8004c10:	0013      	movs	r3, r2
 8004c12:	005b      	lsls	r3, r3, #1
 8004c14:	189b      	adds	r3, r3, r2
 8004c16:	43db      	mvns	r3, r3
 8004c18:	400b      	ands	r3, r1
 8004c1a:	001a      	movs	r2, r3
 8004c1c:	68bb      	ldr	r3, [r7, #8]
 8004c1e:	435b      	muls	r3, r3
 8004c20:	6879      	ldr	r1, [r7, #4]
 8004c22:	434b      	muls	r3, r1
 8004c24:	431a      	orrs	r2, r3
 8004c26:	68fb      	ldr	r3, [r7, #12]
 8004c28:	60da      	str	r2, [r3, #12]
}
 8004c2a:	46c0      	nop			@ (mov r8, r8)
 8004c2c:	46bd      	mov	sp, r7
 8004c2e:	b004      	add	sp, #16
 8004c30:	bd80      	pop	{r7, pc}

08004c32 <LL_GPIO_SetAFPin_0_7>:
  *         @arg @ref LL_GPIO_AF_6
  *         @arg @ref LL_GPIO_AF_7
  * @retval None
  */
__STATIC_INLINE void LL_GPIO_SetAFPin_0_7(GPIO_TypeDef *GPIOx, uint32_t Pin, uint32_t Alternate)
{
 8004c32:	b580      	push	{r7, lr}
 8004c34:	b084      	sub	sp, #16
 8004c36:	af00      	add	r7, sp, #0
 8004c38:	60f8      	str	r0, [r7, #12]
 8004c3a:	60b9      	str	r1, [r7, #8]
 8004c3c:	607a      	str	r2, [r7, #4]
  MODIFY_REG(GPIOx->AFR[0], ((((Pin * Pin) * Pin) * Pin) * GPIO_AFRL_AFSEL0),
 8004c3e:	68fb      	ldr	r3, [r7, #12]
 8004c40:	6a19      	ldr	r1, [r3, #32]
 8004c42:	68bb      	ldr	r3, [r7, #8]
 8004c44:	435b      	muls	r3, r3
 8004c46:	68ba      	ldr	r2, [r7, #8]
 8004c48:	4353      	muls	r3, r2
 8004c4a:	68ba      	ldr	r2, [r7, #8]
 8004c4c:	435a      	muls	r2, r3
 8004c4e:	0013      	movs	r3, r2
 8004c50:	011b      	lsls	r3, r3, #4
 8004c52:	1a9b      	subs	r3, r3, r2
 8004c54:	43db      	mvns	r3, r3
 8004c56:	400b      	ands	r3, r1
 8004c58:	001a      	movs	r2, r3
 8004c5a:	68bb      	ldr	r3, [r7, #8]
 8004c5c:	435b      	muls	r3, r3
 8004c5e:	68b9      	ldr	r1, [r7, #8]
 8004c60:	434b      	muls	r3, r1
 8004c62:	68b9      	ldr	r1, [r7, #8]
 8004c64:	434b      	muls	r3, r1
 8004c66:	6879      	ldr	r1, [r7, #4]
 8004c68:	434b      	muls	r3, r1
 8004c6a:	431a      	orrs	r2, r3
 8004c6c:	68fb      	ldr	r3, [r7, #12]
 8004c6e:	621a      	str	r2, [r3, #32]
             ((((Pin * Pin) * Pin) * Pin) * Alternate));
}
 8004c70:	46c0      	nop			@ (mov r8, r8)
 8004c72:	46bd      	mov	sp, r7
 8004c74:	b004      	add	sp, #16
 8004c76:	bd80      	pop	{r7, pc}

08004c78 <LL_GPIO_SetAFPin_8_15>:
  *         @arg @ref LL_GPIO_AF_6
  *         @arg @ref LL_GPIO_AF_7
  * @retval None
  */
__STATIC_INLINE void LL_GPIO_SetAFPin_8_15(GPIO_TypeDef *GPIOx, uint32_t Pin, uint32_t Alternate)
{
 8004c78:	b580      	push	{r7, lr}
 8004c7a:	b084      	sub	sp, #16
 8004c7c:	af00      	add	r7, sp, #0
 8004c7e:	60f8      	str	r0, [r7, #12]
 8004c80:	60b9      	str	r1, [r7, #8]
 8004c82:	607a      	str	r2, [r7, #4]
  MODIFY_REG(GPIOx->AFR[1], (((((Pin >> 8U) * (Pin >> 8U)) * (Pin >> 8U)) * (Pin >> 8U)) * GPIO_AFRH_AFSEL8),
 8004c84:	68fb      	ldr	r3, [r7, #12]
 8004c86:	6a59      	ldr	r1, [r3, #36]	@ 0x24
 8004c88:	68bb      	ldr	r3, [r7, #8]
 8004c8a:	0a1b      	lsrs	r3, r3, #8
 8004c8c:	68ba      	ldr	r2, [r7, #8]
 8004c8e:	0a12      	lsrs	r2, r2, #8
 8004c90:	4353      	muls	r3, r2
 8004c92:	68ba      	ldr	r2, [r7, #8]
 8004c94:	0a12      	lsrs	r2, r2, #8
 8004c96:	4353      	muls	r3, r2
 8004c98:	68ba      	ldr	r2, [r7, #8]
 8004c9a:	0a12      	lsrs	r2, r2, #8
 8004c9c:	435a      	muls	r2, r3
 8004c9e:	0013      	movs	r3, r2
 8004ca0:	011b      	lsls	r3, r3, #4
 8004ca2:	1a9b      	subs	r3, r3, r2
 8004ca4:	43db      	mvns	r3, r3
 8004ca6:	400b      	ands	r3, r1
 8004ca8:	001a      	movs	r2, r3
 8004caa:	68bb      	ldr	r3, [r7, #8]
 8004cac:	0a1b      	lsrs	r3, r3, #8
 8004cae:	68b9      	ldr	r1, [r7, #8]
 8004cb0:	0a09      	lsrs	r1, r1, #8
 8004cb2:	434b      	muls	r3, r1
 8004cb4:	68b9      	ldr	r1, [r7, #8]
 8004cb6:	0a09      	lsrs	r1, r1, #8
 8004cb8:	434b      	muls	r3, r1
 8004cba:	68b9      	ldr	r1, [r7, #8]
 8004cbc:	0a09      	lsrs	r1, r1, #8
 8004cbe:	434b      	muls	r3, r1
 8004cc0:	6879      	ldr	r1, [r7, #4]
 8004cc2:	434b      	muls	r3, r1
 8004cc4:	431a      	orrs	r2, r3
 8004cc6:	68fb      	ldr	r3, [r7, #12]
 8004cc8:	625a      	str	r2, [r3, #36]	@ 0x24
             (((((Pin >> 8U) * (Pin >> 8U)) * (Pin >> 8U)) * (Pin >> 8U)) * Alternate));
}
 8004cca:	46c0      	nop			@ (mov r8, r8)
 8004ccc:	46bd      	mov	sp, r7
 8004cce:	b004      	add	sp, #16
 8004cd0:	bd80      	pop	{r7, pc}

08004cd2 <LL_GPIO_Init>:
  * @retval An ErrorStatus enumeration value:
  *          - SUCCESS: GPIO registers are initialized according to GPIO_InitStruct content
  *          - ERROR:   Not applicable
  */
ErrorStatus LL_GPIO_Init(GPIO_TypeDef *GPIOx, LL_GPIO_InitTypeDef *GPIO_InitStruct)
{
 8004cd2:	b580      	push	{r7, lr}
 8004cd4:	b084      	sub	sp, #16
 8004cd6:	af00      	add	r7, sp, #0
 8004cd8:	6078      	str	r0, [r7, #4]
 8004cda:	6039      	str	r1, [r7, #0]
  uint32_t pinpos     = 0x00000000U;
 8004cdc:	2300      	movs	r3, #0
 8004cde:	60fb      	str	r3, [r7, #12]
  uint32_t currentpin = 0x00000000U;
 8004ce0:	2300      	movs	r3, #0
 8004ce2:	60bb      	str	r3, [r7, #8]
  /* ------------------------- Configure the port pins ---------------- */
  /* Initialize  pinpos on first pin set */
  /* pinpos = 0; useless as already done in default initialization */

  /* Configure the port pins */
  while (((GPIO_InitStruct->Pin) >> pinpos) != 0x00000000U)
 8004ce4:	e048      	b.n	8004d78 <LL_GPIO_Init+0xa6>
  {
    /* Get current io position */
    currentpin = (GPIO_InitStruct->Pin) & (0x00000001U << pinpos);
 8004ce6:	683b      	ldr	r3, [r7, #0]
 8004ce8:	681b      	ldr	r3, [r3, #0]
 8004cea:	2101      	movs	r1, #1
 8004cec:	68fa      	ldr	r2, [r7, #12]
 8004cee:	4091      	lsls	r1, r2
 8004cf0:	000a      	movs	r2, r1
 8004cf2:	4013      	ands	r3, r2
 8004cf4:	60bb      	str	r3, [r7, #8]

    if (currentpin)
 8004cf6:	68bb      	ldr	r3, [r7, #8]
 8004cf8:	2b00      	cmp	r3, #0
 8004cfa:	d03a      	beq.n	8004d72 <LL_GPIO_Init+0xa0>
    {
      if ((GPIO_InitStruct->Mode == LL_GPIO_MODE_OUTPUT) || (GPIO_InitStruct->Mode == LL_GPIO_MODE_ALTERNATE))
 8004cfc:	683b      	ldr	r3, [r7, #0]
 8004cfe:	685b      	ldr	r3, [r3, #4]
 8004d00:	2b01      	cmp	r3, #1
 8004d02:	d003      	beq.n	8004d0c <LL_GPIO_Init+0x3a>
 8004d04:	683b      	ldr	r3, [r7, #0]
 8004d06:	685b      	ldr	r3, [r3, #4]
 8004d08:	2b02      	cmp	r3, #2
 8004d0a:	d10e      	bne.n	8004d2a <LL_GPIO_Init+0x58>
      {
        /* Check Speed mode parameters */
        assert_param(IS_LL_GPIO_SPEED(GPIO_InitStruct->Speed));

        /* Speed mode configuration */
        LL_GPIO_SetPinSpeed(GPIOx, currentpin, GPIO_InitStruct->Speed);
 8004d0c:	683b      	ldr	r3, [r7, #0]
 8004d0e:	689a      	ldr	r2, [r3, #8]
 8004d10:	68b9      	ldr	r1, [r7, #8]
 8004d12:	687b      	ldr	r3, [r7, #4]
 8004d14:	0018      	movs	r0, r3
 8004d16:	f7ff ff54 	bl	8004bc2 <LL_GPIO_SetPinSpeed>

        /* Check Output mode parameters */
        assert_param(IS_LL_GPIO_OUTPUT_TYPE(GPIO_InitStruct->OutputType));

        /* Output mode configuration*/
        LL_GPIO_SetPinOutputType(GPIOx, GPIO_InitStruct->Pin, GPIO_InitStruct->OutputType);
 8004d1a:	683b      	ldr	r3, [r7, #0]
 8004d1c:	6819      	ldr	r1, [r3, #0]
 8004d1e:	683b      	ldr	r3, [r7, #0]
 8004d20:	68da      	ldr	r2, [r3, #12]
 8004d22:	687b      	ldr	r3, [r7, #4]
 8004d24:	0018      	movs	r0, r3
 8004d26:	f7ff ff37 	bl	8004b98 <LL_GPIO_SetPinOutputType>
      }

      /* Pull-up Pull down resistor configuration*/
      LL_GPIO_SetPinPull(GPIOx, currentpin, GPIO_InitStruct->Pull);
 8004d2a:	683b      	ldr	r3, [r7, #0]
 8004d2c:	691a      	ldr	r2, [r3, #16]
 8004d2e:	68b9      	ldr	r1, [r7, #8]
 8004d30:	687b      	ldr	r3, [r7, #4]
 8004d32:	0018      	movs	r0, r3
 8004d34:	f7ff ff61 	bl	8004bfa <LL_GPIO_SetPinPull>

      if (GPIO_InitStruct->Mode == LL_GPIO_MODE_ALTERNATE)
 8004d38:	683b      	ldr	r3, [r7, #0]
 8004d3a:	685b      	ldr	r3, [r3, #4]
 8004d3c:	2b02      	cmp	r3, #2
 8004d3e:	d111      	bne.n	8004d64 <LL_GPIO_Init+0x92>
      {
        /* Check Alternate parameter */
        assert_param(IS_LL_GPIO_ALTERNATE(GPIO_InitStruct->Alternate));

        /* Speed mode configuration */
        if (currentpin < LL_GPIO_PIN_8)
 8004d40:	68bb      	ldr	r3, [r7, #8]
 8004d42:	2bff      	cmp	r3, #255	@ 0xff
 8004d44:	d807      	bhi.n	8004d56 <LL_GPIO_Init+0x84>
        {
          LL_GPIO_SetAFPin_0_7(GPIOx, currentpin, GPIO_InitStruct->Alternate);
 8004d46:	683b      	ldr	r3, [r7, #0]
 8004d48:	695a      	ldr	r2, [r3, #20]
 8004d4a:	68b9      	ldr	r1, [r7, #8]
 8004d4c:	687b      	ldr	r3, [r7, #4]
 8004d4e:	0018      	movs	r0, r3
 8004d50:	f7ff ff6f 	bl	8004c32 <LL_GPIO_SetAFPin_0_7>
 8004d54:	e006      	b.n	8004d64 <LL_GPIO_Init+0x92>
        }
        else
        {
          LL_GPIO_SetAFPin_8_15(GPIOx, currentpin, GPIO_InitStruct->Alternate);
 8004d56:	683b      	ldr	r3, [r7, #0]
 8004d58:	695a      	ldr	r2, [r3, #20]
 8004d5a:	68b9      	ldr	r1, [r7, #8]
 8004d5c:	687b      	ldr	r3, [r7, #4]
 8004d5e:	0018      	movs	r0, r3
 8004d60:	f7ff ff8a 	bl	8004c78 <LL_GPIO_SetAFPin_8_15>
        }
      }

      /* Pin Mode configuration */
      LL_GPIO_SetPinMode(GPIOx, currentpin, GPIO_InitStruct->Mode);
 8004d64:	683b      	ldr	r3, [r7, #0]
 8004d66:	685a      	ldr	r2, [r3, #4]
 8004d68:	68b9      	ldr	r1, [r7, #8]
 8004d6a:	687b      	ldr	r3, [r7, #4]
 8004d6c:	0018      	movs	r0, r3
 8004d6e:	f7ff fef7 	bl	8004b60 <LL_GPIO_SetPinMode>
    }
    pinpos++;
 8004d72:	68fb      	ldr	r3, [r7, #12]
 8004d74:	3301      	adds	r3, #1
 8004d76:	60fb      	str	r3, [r7, #12]
  while (((GPIO_InitStruct->Pin) >> pinpos) != 0x00000000U)
 8004d78:	683b      	ldr	r3, [r7, #0]
 8004d7a:	681a      	ldr	r2, [r3, #0]
 8004d7c:	68fb      	ldr	r3, [r7, #12]
 8004d7e:	40da      	lsrs	r2, r3
 8004d80:	1e13      	subs	r3, r2, #0
 8004d82:	d1b0      	bne.n	8004ce6 <LL_GPIO_Init+0x14>
  }


  return (SUCCESS);
 8004d84:	2300      	movs	r3, #0
}
 8004d86:	0018      	movs	r0, r3
 8004d88:	46bd      	mov	sp, r7
 8004d8a:	b004      	add	sp, #16
 8004d8c:	bd80      	pop	{r7, pc}
	...

08004d90 <LL_RCC_HSI_IsReady>:
{
 8004d90:	b580      	push	{r7, lr}
 8004d92:	af00      	add	r7, sp, #0
  return ((READ_BIT(RCC->CR, RCC_CR_HSIRDY) == RCC_CR_HSIRDY) ? 1UL : 0UL);
 8004d94:	4b05      	ldr	r3, [pc, #20]	@ (8004dac <LL_RCC_HSI_IsReady+0x1c>)
 8004d96:	681b      	ldr	r3, [r3, #0]
 8004d98:	2204      	movs	r2, #4
 8004d9a:	4013      	ands	r3, r2
 8004d9c:	2b04      	cmp	r3, #4
 8004d9e:	d101      	bne.n	8004da4 <LL_RCC_HSI_IsReady+0x14>
 8004da0:	2301      	movs	r3, #1
 8004da2:	e000      	b.n	8004da6 <LL_RCC_HSI_IsReady+0x16>
 8004da4:	2300      	movs	r3, #0
}
 8004da6:	0018      	movs	r0, r3
 8004da8:	46bd      	mov	sp, r7
 8004daa:	bd80      	pop	{r7, pc}
 8004dac:	40021000 	.word	0x40021000

08004db0 <LL_RCC_LSE_IsReady>:
{
 8004db0:	b580      	push	{r7, lr}
 8004db2:	af00      	add	r7, sp, #0
  return ((READ_BIT(RCC->CSR, RCC_CSR_LSERDY) == RCC_CSR_LSERDY) ? 1UL : 0UL);
 8004db4:	4b07      	ldr	r3, [pc, #28]	@ (8004dd4 <LL_RCC_LSE_IsReady+0x24>)
 8004db6:	6d1a      	ldr	r2, [r3, #80]	@ 0x50
 8004db8:	2380      	movs	r3, #128	@ 0x80
 8004dba:	009b      	lsls	r3, r3, #2
 8004dbc:	401a      	ands	r2, r3
 8004dbe:	2380      	movs	r3, #128	@ 0x80
 8004dc0:	009b      	lsls	r3, r3, #2
 8004dc2:	429a      	cmp	r2, r3
 8004dc4:	d101      	bne.n	8004dca <LL_RCC_LSE_IsReady+0x1a>
 8004dc6:	2301      	movs	r3, #1
 8004dc8:	e000      	b.n	8004dcc <LL_RCC_LSE_IsReady+0x1c>
 8004dca:	2300      	movs	r3, #0
}
 8004dcc:	0018      	movs	r0, r3
 8004dce:	46bd      	mov	sp, r7
 8004dd0:	bd80      	pop	{r7, pc}
 8004dd2:	46c0      	nop			@ (mov r8, r8)
 8004dd4:	40021000 	.word	0x40021000

08004dd8 <LL_RCC_MSI_GetRange>:
{
 8004dd8:	b580      	push	{r7, lr}
 8004dda:	af00      	add	r7, sp, #0
  return (uint32_t)(READ_BIT(RCC->ICSCR, RCC_ICSCR_MSIRANGE));
 8004ddc:	4b03      	ldr	r3, [pc, #12]	@ (8004dec <LL_RCC_MSI_GetRange+0x14>)
 8004dde:	685a      	ldr	r2, [r3, #4]
 8004de0:	23e0      	movs	r3, #224	@ 0xe0
 8004de2:	021b      	lsls	r3, r3, #8
 8004de4:	4013      	ands	r3, r2
}
 8004de6:	0018      	movs	r0, r3
 8004de8:	46bd      	mov	sp, r7
 8004dea:	bd80      	pop	{r7, pc}
 8004dec:	40021000 	.word	0x40021000

08004df0 <LL_RCC_GetSysClkSource>:
{
 8004df0:	b580      	push	{r7, lr}
 8004df2:	af00      	add	r7, sp, #0
  return (uint32_t)(READ_BIT(RCC->CFGR, RCC_CFGR_SWS));
 8004df4:	4b03      	ldr	r3, [pc, #12]	@ (8004e04 <LL_RCC_GetSysClkSource+0x14>)
 8004df6:	68db      	ldr	r3, [r3, #12]
 8004df8:	220c      	movs	r2, #12
 8004dfa:	4013      	ands	r3, r2
}
 8004dfc:	0018      	movs	r0, r3
 8004dfe:	46bd      	mov	sp, r7
 8004e00:	bd80      	pop	{r7, pc}
 8004e02:	46c0      	nop			@ (mov r8, r8)
 8004e04:	40021000 	.word	0x40021000

08004e08 <LL_RCC_GetAHBPrescaler>:
{
 8004e08:	b580      	push	{r7, lr}
 8004e0a:	af00      	add	r7, sp, #0
  return (uint32_t)(READ_BIT(RCC->CFGR, RCC_CFGR_HPRE));
 8004e0c:	4b03      	ldr	r3, [pc, #12]	@ (8004e1c <LL_RCC_GetAHBPrescaler+0x14>)
 8004e0e:	68db      	ldr	r3, [r3, #12]
 8004e10:	22f0      	movs	r2, #240	@ 0xf0
 8004e12:	4013      	ands	r3, r2
}
 8004e14:	0018      	movs	r0, r3
 8004e16:	46bd      	mov	sp, r7
 8004e18:	bd80      	pop	{r7, pc}
 8004e1a:	46c0      	nop			@ (mov r8, r8)
 8004e1c:	40021000 	.word	0x40021000

08004e20 <LL_RCC_GetAPB1Prescaler>:
{
 8004e20:	b580      	push	{r7, lr}
 8004e22:	af00      	add	r7, sp, #0
  return (uint32_t)(READ_BIT(RCC->CFGR, RCC_CFGR_PPRE1));
 8004e24:	4b03      	ldr	r3, [pc, #12]	@ (8004e34 <LL_RCC_GetAPB1Prescaler+0x14>)
 8004e26:	68da      	ldr	r2, [r3, #12]
 8004e28:	23e0      	movs	r3, #224	@ 0xe0
 8004e2a:	00db      	lsls	r3, r3, #3
 8004e2c:	4013      	ands	r3, r2
}
 8004e2e:	0018      	movs	r0, r3
 8004e30:	46bd      	mov	sp, r7
 8004e32:	bd80      	pop	{r7, pc}
 8004e34:	40021000 	.word	0x40021000

08004e38 <LL_RCC_GetAPB2Prescaler>:
{
 8004e38:	b580      	push	{r7, lr}
 8004e3a:	af00      	add	r7, sp, #0
  return (uint32_t)(READ_BIT(RCC->CFGR, RCC_CFGR_PPRE2));
 8004e3c:	4b03      	ldr	r3, [pc, #12]	@ (8004e4c <LL_RCC_GetAPB2Prescaler+0x14>)
 8004e3e:	68da      	ldr	r2, [r3, #12]
 8004e40:	23e0      	movs	r3, #224	@ 0xe0
 8004e42:	019b      	lsls	r3, r3, #6
 8004e44:	4013      	ands	r3, r2
}
 8004e46:	0018      	movs	r0, r3
 8004e48:	46bd      	mov	sp, r7
 8004e4a:	bd80      	pop	{r7, pc}
 8004e4c:	40021000 	.word	0x40021000

08004e50 <LL_RCC_GetUSARTClockSource>:
  *         @arg @ref LL_RCC_USART2_CLKSOURCE_LSE
  *
  *         (*) value not defined in all devices.
  */
__STATIC_INLINE uint32_t LL_RCC_GetUSARTClockSource(uint32_t USARTx)
{
 8004e50:	b580      	push	{r7, lr}
 8004e52:	b082      	sub	sp, #8
 8004e54:	af00      	add	r7, sp, #0
 8004e56:	6078      	str	r0, [r7, #4]
  return (uint32_t)(READ_BIT(RCC->CCIPR, USARTx) | (USARTx << 16U));
 8004e58:	4b05      	ldr	r3, [pc, #20]	@ (8004e70 <LL_RCC_GetUSARTClockSource+0x20>)
 8004e5a:	6cdb      	ldr	r3, [r3, #76]	@ 0x4c
 8004e5c:	687a      	ldr	r2, [r7, #4]
 8004e5e:	401a      	ands	r2, r3
 8004e60:	687b      	ldr	r3, [r7, #4]
 8004e62:	041b      	lsls	r3, r3, #16
 8004e64:	4313      	orrs	r3, r2
}
 8004e66:	0018      	movs	r0, r3
 8004e68:	46bd      	mov	sp, r7
 8004e6a:	b002      	add	sp, #8
 8004e6c:	bd80      	pop	{r7, pc}
 8004e6e:	46c0      	nop			@ (mov r8, r8)
 8004e70:	40021000 	.word	0x40021000

08004e74 <LL_RCC_PLL_GetMainSource>:
  * @retval Returned value can be one of the following values:
  *         @arg @ref LL_RCC_PLLSOURCE_HSI
  *         @arg @ref LL_RCC_PLLSOURCE_HSE
  */
__STATIC_INLINE uint32_t LL_RCC_PLL_GetMainSource(void)
{
 8004e74:	b580      	push	{r7, lr}
 8004e76:	af00      	add	r7, sp, #0
  return (uint32_t)(READ_BIT(RCC->CFGR, RCC_CFGR_PLLSRC));
 8004e78:	4b03      	ldr	r3, [pc, #12]	@ (8004e88 <LL_RCC_PLL_GetMainSource+0x14>)
 8004e7a:	68da      	ldr	r2, [r3, #12]
 8004e7c:	2380      	movs	r3, #128	@ 0x80
 8004e7e:	025b      	lsls	r3, r3, #9
 8004e80:	4013      	ands	r3, r2
}
 8004e82:	0018      	movs	r0, r3
 8004e84:	46bd      	mov	sp, r7
 8004e86:	bd80      	pop	{r7, pc}
 8004e88:	40021000 	.word	0x40021000

08004e8c <LL_RCC_PLL_GetMultiplicator>:
  *         @arg @ref LL_RCC_PLL_MUL_24
  *         @arg @ref LL_RCC_PLL_MUL_32
  *         @arg @ref LL_RCC_PLL_MUL_48
  */
__STATIC_INLINE uint32_t LL_RCC_PLL_GetMultiplicator(void)
{
 8004e8c:	b580      	push	{r7, lr}
 8004e8e:	af00      	add	r7, sp, #0
  return (uint32_t)(READ_BIT(RCC->CFGR, RCC_CFGR_PLLMUL));
 8004e90:	4b03      	ldr	r3, [pc, #12]	@ (8004ea0 <LL_RCC_PLL_GetMultiplicator+0x14>)
 8004e92:	68da      	ldr	r2, [r3, #12]
 8004e94:	23f0      	movs	r3, #240	@ 0xf0
 8004e96:	039b      	lsls	r3, r3, #14
 8004e98:	4013      	ands	r3, r2
}
 8004e9a:	0018      	movs	r0, r3
 8004e9c:	46bd      	mov	sp, r7
 8004e9e:	bd80      	pop	{r7, pc}
 8004ea0:	40021000 	.word	0x40021000

08004ea4 <LL_RCC_PLL_GetDivider>:
  *         @arg @ref LL_RCC_PLL_DIV_2
  *         @arg @ref LL_RCC_PLL_DIV_3
  *         @arg @ref LL_RCC_PLL_DIV_4
  */
__STATIC_INLINE uint32_t LL_RCC_PLL_GetDivider(void)
{
 8004ea4:	b580      	push	{r7, lr}
 8004ea6:	af00      	add	r7, sp, #0
  return (uint32_t)(READ_BIT(RCC->CFGR, RCC_CFGR_PLLDIV));
 8004ea8:	4b03      	ldr	r3, [pc, #12]	@ (8004eb8 <LL_RCC_PLL_GetDivider+0x14>)
 8004eaa:	68da      	ldr	r2, [r3, #12]
 8004eac:	23c0      	movs	r3, #192	@ 0xc0
 8004eae:	041b      	lsls	r3, r3, #16
 8004eb0:	4013      	ands	r3, r2
}
 8004eb2:	0018      	movs	r0, r3
 8004eb4:	46bd      	mov	sp, r7
 8004eb6:	bd80      	pop	{r7, pc}
 8004eb8:	40021000 	.word	0x40021000

08004ebc <LL_RCC_IsActiveFlag_HSIDIV>:
  * @brief  Check if HSI Divider is enabled (it divides by 4)
  * @rmtoll CR        HSIDIVF        LL_RCC_IsActiveFlag_HSIDIV
  * @retval State of bit (1 or 0).
  */
__STATIC_INLINE uint32_t LL_RCC_IsActiveFlag_HSIDIV(void)
{
 8004ebc:	b580      	push	{r7, lr}
 8004ebe:	af00      	add	r7, sp, #0
  return ((READ_BIT(RCC->CR, RCC_CR_HSIDIVF) == RCC_CR_HSIDIVF) ? 1UL : 0UL);
 8004ec0:	4b05      	ldr	r3, [pc, #20]	@ (8004ed8 <LL_RCC_IsActiveFlag_HSIDIV+0x1c>)
 8004ec2:	681b      	ldr	r3, [r3, #0]
 8004ec4:	2210      	movs	r2, #16
 8004ec6:	4013      	ands	r3, r2
 8004ec8:	2b10      	cmp	r3, #16
 8004eca:	d101      	bne.n	8004ed0 <LL_RCC_IsActiveFlag_HSIDIV+0x14>
 8004ecc:	2301      	movs	r3, #1
 8004ece:	e000      	b.n	8004ed2 <LL_RCC_IsActiveFlag_HSIDIV+0x16>
 8004ed0:	2300      	movs	r3, #0
}
 8004ed2:	0018      	movs	r0, r3
 8004ed4:	46bd      	mov	sp, r7
 8004ed6:	bd80      	pop	{r7, pc}
 8004ed8:	40021000 	.word	0x40021000

08004edc <LL_RCC_GetSystemClocksFreq>:
  *         configuration based on this function will be incorrect.
  * @param  RCC_Clocks pointer to a @ref LL_RCC_ClocksTypeDef structure which will hold the clocks frequencies
  * @retval None
  */
void LL_RCC_GetSystemClocksFreq(LL_RCC_ClocksTypeDef *RCC_Clocks)
{
 8004edc:	b580      	push	{r7, lr}
 8004ede:	b082      	sub	sp, #8
 8004ee0:	af00      	add	r7, sp, #0
 8004ee2:	6078      	str	r0, [r7, #4]
  /* Get SYSCLK frequency */
  RCC_Clocks->SYSCLK_Frequency = RCC_GetSystemClockFreq();
 8004ee4:	f000 f8bc 	bl	8005060 <RCC_GetSystemClockFreq>
 8004ee8:	0002      	movs	r2, r0
 8004eea:	687b      	ldr	r3, [r7, #4]
 8004eec:	601a      	str	r2, [r3, #0]

  /* HCLK clock frequency */
  RCC_Clocks->HCLK_Frequency   = RCC_GetHCLKClockFreq(RCC_Clocks->SYSCLK_Frequency);
 8004eee:	687b      	ldr	r3, [r7, #4]
 8004ef0:	681b      	ldr	r3, [r3, #0]
 8004ef2:	0018      	movs	r0, r3
 8004ef4:	f000 f8f8 	bl	80050e8 <RCC_GetHCLKClockFreq>
 8004ef8:	0002      	movs	r2, r0
 8004efa:	687b      	ldr	r3, [r7, #4]
 8004efc:	605a      	str	r2, [r3, #4]

  /* PCLK1 clock frequency */
  RCC_Clocks->PCLK1_Frequency  = RCC_GetPCLK1ClockFreq(RCC_Clocks->HCLK_Frequency);
 8004efe:	687b      	ldr	r3, [r7, #4]
 8004f00:	685b      	ldr	r3, [r3, #4]
 8004f02:	0018      	movs	r0, r3
 8004f04:	f000 f906 	bl	8005114 <RCC_GetPCLK1ClockFreq>
 8004f08:	0002      	movs	r2, r0
 8004f0a:	687b      	ldr	r3, [r7, #4]
 8004f0c:	609a      	str	r2, [r3, #8]

  /* PCLK2 clock frequency */
  RCC_Clocks->PCLK2_Frequency  = RCC_GetPCLK2ClockFreq(RCC_Clocks->HCLK_Frequency);
 8004f0e:	687b      	ldr	r3, [r7, #4]
 8004f10:	685b      	ldr	r3, [r3, #4]
 8004f12:	0018      	movs	r0, r3
 8004f14:	f000 f912 	bl	800513c <RCC_GetPCLK2ClockFreq>
 8004f18:	0002      	movs	r2, r0
 8004f1a:	687b      	ldr	r3, [r7, #4]
 8004f1c:	60da      	str	r2, [r3, #12]
}
 8004f1e:	46c0      	nop			@ (mov r8, r8)
 8004f20:	46bd      	mov	sp, r7
 8004f22:	b002      	add	sp, #8
 8004f24:	bd80      	pop	{r7, pc}
	...

08004f28 <LL_RCC_GetUSARTClockFreq>:
  *         (*) value not defined in all devices.
  * @retval USART clock frequency (in Hz)
  *         @arg @ref LL_RCC_PERIPH_FREQUENCY_NO indicates that oscillator (HSI or LSE) is not ready
  */
uint32_t LL_RCC_GetUSARTClockFreq(uint32_t USARTxSource)
{
 8004f28:	b580      	push	{r7, lr}
 8004f2a:	b084      	sub	sp, #16
 8004f2c:	af00      	add	r7, sp, #0
 8004f2e:	6078      	str	r0, [r7, #4]
  uint32_t usart_frequency = LL_RCC_PERIPH_FREQUENCY_NO;
 8004f30:	2300      	movs	r3, #0
 8004f32:	60fb      	str	r3, [r7, #12]

  /* Check parameter */
  assert_param(IS_LL_RCC_USART_CLKSOURCE(USARTxSource));
#if defined(RCC_CCIPR_USART1SEL)
  if (USARTxSource == LL_RCC_USART1_CLKSOURCE)
 8004f34:	687b      	ldr	r3, [r7, #4]
 8004f36:	2b03      	cmp	r3, #3
 8004f38:	d13c      	bne.n	8004fb4 <LL_RCC_GetUSARTClockFreq+0x8c>
  {
    /* USART1CLK clock frequency */
    switch (LL_RCC_GetUSARTClockSource(USARTxSource))
 8004f3a:	687b      	ldr	r3, [r7, #4]
 8004f3c:	0018      	movs	r0, r3
 8004f3e:	f7ff ff87 	bl	8004e50 <LL_RCC_GetUSARTClockSource>
 8004f42:	0003      	movs	r3, r0
 8004f44:	4a3e      	ldr	r2, [pc, #248]	@ (8005040 <LL_RCC_GetUSARTClockFreq+0x118>)
 8004f46:	4293      	cmp	r3, r2
 8004f48:	d01c      	beq.n	8004f84 <LL_RCC_GetUSARTClockFreq+0x5c>
 8004f4a:	4a3d      	ldr	r2, [pc, #244]	@ (8005040 <LL_RCC_GetUSARTClockFreq+0x118>)
 8004f4c:	4293      	cmp	r3, r2
 8004f4e:	d821      	bhi.n	8004f94 <LL_RCC_GetUSARTClockFreq+0x6c>
 8004f50:	4a3c      	ldr	r2, [pc, #240]	@ (8005044 <LL_RCC_GetUSARTClockFreq+0x11c>)
 8004f52:	4293      	cmp	r3, r2
 8004f54:	d003      	beq.n	8004f5e <LL_RCC_GetUSARTClockFreq+0x36>
 8004f56:	4a3c      	ldr	r2, [pc, #240]	@ (8005048 <LL_RCC_GetUSARTClockFreq+0x120>)
 8004f58:	4293      	cmp	r3, r2
 8004f5a:	d005      	beq.n	8004f68 <LL_RCC_GetUSARTClockFreq+0x40>
 8004f5c:	e01a      	b.n	8004f94 <LL_RCC_GetUSARTClockFreq+0x6c>
    {
      case LL_RCC_USART1_CLKSOURCE_SYSCLK: /* USART1 Clock is System Clock */
        usart_frequency = RCC_GetSystemClockFreq();
 8004f5e:	f000 f87f 	bl	8005060 <RCC_GetSystemClockFreq>
 8004f62:	0003      	movs	r3, r0
 8004f64:	60fb      	str	r3, [r7, #12]
        break;
 8004f66:	e025      	b.n	8004fb4 <LL_RCC_GetUSARTClockFreq+0x8c>

      case LL_RCC_USART1_CLKSOURCE_HSI:    /* USART1 Clock is HSI Osc. */
        if (LL_RCC_HSI_IsReady() != 0U)
 8004f68:	f7ff ff12 	bl	8004d90 <LL_RCC_HSI_IsReady>
 8004f6c:	1e03      	subs	r3, r0, #0
 8004f6e:	d01e      	beq.n	8004fae <LL_RCC_GetUSARTClockFreq+0x86>
        {
          if (LL_RCC_IsActiveFlag_HSIDIV() != 0U)
 8004f70:	f7ff ffa4 	bl	8004ebc <LL_RCC_IsActiveFlag_HSIDIV>
 8004f74:	1e03      	subs	r3, r0, #0
 8004f76:	d002      	beq.n	8004f7e <LL_RCC_GetUSARTClockFreq+0x56>
          {
            usart_frequency = (HSI_VALUE >> 2U);
 8004f78:	4b34      	ldr	r3, [pc, #208]	@ (800504c <LL_RCC_GetUSARTClockFreq+0x124>)
 8004f7a:	60fb      	str	r3, [r7, #12]
          else
          {
            usart_frequency = HSI_VALUE;
          }
        }
        break;
 8004f7c:	e017      	b.n	8004fae <LL_RCC_GetUSARTClockFreq+0x86>
            usart_frequency = HSI_VALUE;
 8004f7e:	4b34      	ldr	r3, [pc, #208]	@ (8005050 <LL_RCC_GetUSARTClockFreq+0x128>)
 8004f80:	60fb      	str	r3, [r7, #12]
        break;
 8004f82:	e014      	b.n	8004fae <LL_RCC_GetUSARTClockFreq+0x86>

      case LL_RCC_USART1_CLKSOURCE_LSE:    /* USART1 Clock is LSE Osc. */
        if (LL_RCC_LSE_IsReady() != 0U)
 8004f84:	f7ff ff14 	bl	8004db0 <LL_RCC_LSE_IsReady>
 8004f88:	1e03      	subs	r3, r0, #0
 8004f8a:	d012      	beq.n	8004fb2 <LL_RCC_GetUSARTClockFreq+0x8a>
        {
          usart_frequency = LSE_VALUE;
 8004f8c:	2380      	movs	r3, #128	@ 0x80
 8004f8e:	021b      	lsls	r3, r3, #8
 8004f90:	60fb      	str	r3, [r7, #12]
        }
        break;
 8004f92:	e00e      	b.n	8004fb2 <LL_RCC_GetUSARTClockFreq+0x8a>

      case LL_RCC_USART1_CLKSOURCE_PCLK2:  /* USART1 Clock is PCLK2 */
      default:
        usart_frequency = RCC_GetPCLK2ClockFreq(RCC_GetHCLKClockFreq(RCC_GetSystemClockFreq()));
 8004f94:	f000 f864 	bl	8005060 <RCC_GetSystemClockFreq>
 8004f98:	0003      	movs	r3, r0
 8004f9a:	0018      	movs	r0, r3
 8004f9c:	f000 f8a4 	bl	80050e8 <RCC_GetHCLKClockFreq>
 8004fa0:	0003      	movs	r3, r0
 8004fa2:	0018      	movs	r0, r3
 8004fa4:	f000 f8ca 	bl	800513c <RCC_GetPCLK2ClockFreq>
 8004fa8:	0003      	movs	r3, r0
 8004faa:	60fb      	str	r3, [r7, #12]
        break;
 8004fac:	e002      	b.n	8004fb4 <LL_RCC_GetUSARTClockFreq+0x8c>
        break;
 8004fae:	46c0      	nop			@ (mov r8, r8)
 8004fb0:	e000      	b.n	8004fb4 <LL_RCC_GetUSARTClockFreq+0x8c>
        break;
 8004fb2:	46c0      	nop			@ (mov r8, r8)
    }
  }
#endif /* RCC_CCIPR_USART1SEL  */

#if defined(RCC_CCIPR_USART2SEL)
  if (USARTxSource == LL_RCC_USART2_CLKSOURCE)
 8004fb4:	687b      	ldr	r3, [r7, #4]
 8004fb6:	2b0c      	cmp	r3, #12
 8004fb8:	d13c      	bne.n	8005034 <LL_RCC_GetUSARTClockFreq+0x10c>
  {
    /* USART2CLK clock frequency */
    switch (LL_RCC_GetUSARTClockSource(USARTxSource))
 8004fba:	687b      	ldr	r3, [r7, #4]
 8004fbc:	0018      	movs	r0, r3
 8004fbe:	f7ff ff47 	bl	8004e50 <LL_RCC_GetUSARTClockSource>
 8004fc2:	0003      	movs	r3, r0
 8004fc4:	4a23      	ldr	r2, [pc, #140]	@ (8005054 <LL_RCC_GetUSARTClockFreq+0x12c>)
 8004fc6:	4293      	cmp	r3, r2
 8004fc8:	d01c      	beq.n	8005004 <LL_RCC_GetUSARTClockFreq+0xdc>
 8004fca:	4a22      	ldr	r2, [pc, #136]	@ (8005054 <LL_RCC_GetUSARTClockFreq+0x12c>)
 8004fcc:	4293      	cmp	r3, r2
 8004fce:	d821      	bhi.n	8005014 <LL_RCC_GetUSARTClockFreq+0xec>
 8004fd0:	4a21      	ldr	r2, [pc, #132]	@ (8005058 <LL_RCC_GetUSARTClockFreq+0x130>)
 8004fd2:	4293      	cmp	r3, r2
 8004fd4:	d003      	beq.n	8004fde <LL_RCC_GetUSARTClockFreq+0xb6>
 8004fd6:	4a21      	ldr	r2, [pc, #132]	@ (800505c <LL_RCC_GetUSARTClockFreq+0x134>)
 8004fd8:	4293      	cmp	r3, r2
 8004fda:	d005      	beq.n	8004fe8 <LL_RCC_GetUSARTClockFreq+0xc0>
 8004fdc:	e01a      	b.n	8005014 <LL_RCC_GetUSARTClockFreq+0xec>
    {
      case LL_RCC_USART2_CLKSOURCE_SYSCLK: /* USART2 Clock is System Clock */
        usart_frequency = RCC_GetSystemClockFreq();
 8004fde:	f000 f83f 	bl	8005060 <RCC_GetSystemClockFreq>
 8004fe2:	0003      	movs	r3, r0
 8004fe4:	60fb      	str	r3, [r7, #12]
        break;
 8004fe6:	e025      	b.n	8005034 <LL_RCC_GetUSARTClockFreq+0x10c>

      case LL_RCC_USART2_CLKSOURCE_HSI:    /* USART2 Clock is HSI Osc. */
        if (LL_RCC_HSI_IsReady() != 0U)
 8004fe8:	f7ff fed2 	bl	8004d90 <LL_RCC_HSI_IsReady>
 8004fec:	1e03      	subs	r3, r0, #0
 8004fee:	d01e      	beq.n	800502e <LL_RCC_GetUSARTClockFreq+0x106>
        {
          if (LL_RCC_IsActiveFlag_HSIDIV() != 0U)
 8004ff0:	f7ff ff64 	bl	8004ebc <LL_RCC_IsActiveFlag_HSIDIV>
 8004ff4:	1e03      	subs	r3, r0, #0
 8004ff6:	d002      	beq.n	8004ffe <LL_RCC_GetUSARTClockFreq+0xd6>
          {
            usart_frequency = (HSI_VALUE >> 2U);
 8004ff8:	4b14      	ldr	r3, [pc, #80]	@ (800504c <LL_RCC_GetUSARTClockFreq+0x124>)
 8004ffa:	60fb      	str	r3, [r7, #12]
          else
          {
            usart_frequency = HSI_VALUE;
          }
        }
        break;
 8004ffc:	e017      	b.n	800502e <LL_RCC_GetUSARTClockFreq+0x106>
            usart_frequency = HSI_VALUE;
 8004ffe:	4b14      	ldr	r3, [pc, #80]	@ (8005050 <LL_RCC_GetUSARTClockFreq+0x128>)
 8005000:	60fb      	str	r3, [r7, #12]
        break;
 8005002:	e014      	b.n	800502e <LL_RCC_GetUSARTClockFreq+0x106>

      case LL_RCC_USART2_CLKSOURCE_LSE:    /* USART2 Clock is LSE Osc. */
        if (LL_RCC_LSE_IsReady() != 0U)
 8005004:	f7ff fed4 	bl	8004db0 <LL_RCC_LSE_IsReady>
 8005008:	1e03      	subs	r3, r0, #0
 800500a:	d012      	beq.n	8005032 <LL_RCC_GetUSARTClockFreq+0x10a>
        {
          usart_frequency = LSE_VALUE;
 800500c:	2380      	movs	r3, #128	@ 0x80
 800500e:	021b      	lsls	r3, r3, #8
 8005010:	60fb      	str	r3, [r7, #12]
        }
        break;
 8005012:	e00e      	b.n	8005032 <LL_RCC_GetUSARTClockFreq+0x10a>

      case LL_RCC_USART2_CLKSOURCE_PCLK1:  /* USART2 Clock is PCLK1 */
      default:
        usart_frequency = RCC_GetPCLK1ClockFreq(RCC_GetHCLKClockFreq(RCC_GetSystemClockFreq()));
 8005014:	f000 f824 	bl	8005060 <RCC_GetSystemClockFreq>
 8005018:	0003      	movs	r3, r0
 800501a:	0018      	movs	r0, r3
 800501c:	f000 f864 	bl	80050e8 <RCC_GetHCLKClockFreq>
 8005020:	0003      	movs	r3, r0
 8005022:	0018      	movs	r0, r3
 8005024:	f000 f876 	bl	8005114 <RCC_GetPCLK1ClockFreq>
 8005028:	0003      	movs	r3, r0
 800502a:	60fb      	str	r3, [r7, #12]
        break;
 800502c:	e002      	b.n	8005034 <LL_RCC_GetUSARTClockFreq+0x10c>
        break;
 800502e:	46c0      	nop			@ (mov r8, r8)
 8005030:	e000      	b.n	8005034 <LL_RCC_GetUSARTClockFreq+0x10c>
        break;
 8005032:	46c0      	nop			@ (mov r8, r8)
    }
  }
#endif /* RCC_CCIPR_USART2SEL */

  return usart_frequency;
 8005034:	68fb      	ldr	r3, [r7, #12]
}
 8005036:	0018      	movs	r0, r3
 8005038:	46bd      	mov	sp, r7
 800503a:	b004      	add	sp, #16
 800503c:	bd80      	pop	{r7, pc}
 800503e:	46c0      	nop			@ (mov r8, r8)
 8005040:	00030003 	.word	0x00030003
 8005044:	00030001 	.word	0x00030001
 8005048:	00030002 	.word	0x00030002
 800504c:	003d0900 	.word	0x003d0900
 8005050:	00f42400 	.word	0x00f42400
 8005054:	000c000c 	.word	0x000c000c
 8005058:	000c0004 	.word	0x000c0004
 800505c:	000c0008 	.word	0x000c0008

08005060 <RCC_GetSystemClockFreq>:
/**
  * @brief  Return SYSTEM clock frequency
  * @retval SYSTEM clock frequency (in Hz)
  */
static uint32_t RCC_GetSystemClockFreq(void)
{
 8005060:	b580      	push	{r7, lr}
 8005062:	b082      	sub	sp, #8
 8005064:	af00      	add	r7, sp, #0
  uint32_t frequency;

  /* Get SYSCLK source -------------------------------------------------------*/
  switch (LL_RCC_GetSysClkSource())
 8005066:	f7ff fec3 	bl	8004df0 <LL_RCC_GetSysClkSource>
 800506a:	0003      	movs	r3, r0
 800506c:	2b0c      	cmp	r3, #12
 800506e:	d020      	beq.n	80050b2 <RCC_GetSystemClockFreq+0x52>
 8005070:	d824      	bhi.n	80050bc <RCC_GetSystemClockFreq+0x5c>
 8005072:	2b08      	cmp	r3, #8
 8005074:	d01a      	beq.n	80050ac <RCC_GetSystemClockFreq+0x4c>
 8005076:	d821      	bhi.n	80050bc <RCC_GetSystemClockFreq+0x5c>
 8005078:	2b00      	cmp	r3, #0
 800507a:	d002      	beq.n	8005082 <RCC_GetSystemClockFreq+0x22>
 800507c:	2b04      	cmp	r3, #4
 800507e:	d00b      	beq.n	8005098 <RCC_GetSystemClockFreq+0x38>
 8005080:	e01c      	b.n	80050bc <RCC_GetSystemClockFreq+0x5c>
  {
    case LL_RCC_SYS_CLKSOURCE_STATUS_MSI:  /* MSI used as system clock source */
      frequency = __LL_RCC_CALC_MSI_FREQ(LL_RCC_MSI_GetRange());
 8005082:	f7ff fea9 	bl	8004dd8 <LL_RCC_MSI_GetRange>
 8005086:	0003      	movs	r3, r0
 8005088:	0b5b      	lsrs	r3, r3, #13
 800508a:	3301      	adds	r3, #1
 800508c:	2280      	movs	r2, #128	@ 0x80
 800508e:	0212      	lsls	r2, r2, #8
 8005090:	409a      	lsls	r2, r3
 8005092:	0013      	movs	r3, r2
 8005094:	607b      	str	r3, [r7, #4]
      break;
 8005096:	e01c      	b.n	80050d2 <RCC_GetSystemClockFreq+0x72>

    case LL_RCC_SYS_CLKSOURCE_STATUS_HSI:  /* HSI used as system clock source */
      if (LL_RCC_IsActiveFlag_HSIDIV() != 0U)
 8005098:	f7ff ff10 	bl	8004ebc <LL_RCC_IsActiveFlag_HSIDIV>
 800509c:	1e03      	subs	r3, r0, #0
 800509e:	d002      	beq.n	80050a6 <RCC_GetSystemClockFreq+0x46>
      {
        frequency = (HSI_VALUE >> 2U);
 80050a0:	4b0e      	ldr	r3, [pc, #56]	@ (80050dc <RCC_GetSystemClockFreq+0x7c>)
 80050a2:	607b      	str	r3, [r7, #4]
      }
      else
      {
        frequency = HSI_VALUE;
      }
      break;
 80050a4:	e015      	b.n	80050d2 <RCC_GetSystemClockFreq+0x72>
        frequency = HSI_VALUE;
 80050a6:	4b0e      	ldr	r3, [pc, #56]	@ (80050e0 <RCC_GetSystemClockFreq+0x80>)
 80050a8:	607b      	str	r3, [r7, #4]
      break;
 80050aa:	e012      	b.n	80050d2 <RCC_GetSystemClockFreq+0x72>

    case LL_RCC_SYS_CLKSOURCE_STATUS_HSE:  /* HSE used as system clock source */
      frequency = HSE_VALUE;
 80050ac:	4b0d      	ldr	r3, [pc, #52]	@ (80050e4 <RCC_GetSystemClockFreq+0x84>)
 80050ae:	607b      	str	r3, [r7, #4]
      break;
 80050b0:	e00f      	b.n	80050d2 <RCC_GetSystemClockFreq+0x72>

    case LL_RCC_SYS_CLKSOURCE_STATUS_PLL:  /* PLL used as system clock  source */
      frequency = RCC_PLL_GetFreqDomain_SYS();
 80050b2:	f000 f857 	bl	8005164 <RCC_PLL_GetFreqDomain_SYS>
 80050b6:	0003      	movs	r3, r0
 80050b8:	607b      	str	r3, [r7, #4]
      break;
 80050ba:	e00a      	b.n	80050d2 <RCC_GetSystemClockFreq+0x72>

    default:
      frequency = __LL_RCC_CALC_MSI_FREQ(LL_RCC_MSI_GetRange());
 80050bc:	f7ff fe8c 	bl	8004dd8 <LL_RCC_MSI_GetRange>
 80050c0:	0003      	movs	r3, r0
 80050c2:	0b5b      	lsrs	r3, r3, #13
 80050c4:	3301      	adds	r3, #1
 80050c6:	2280      	movs	r2, #128	@ 0x80
 80050c8:	0212      	lsls	r2, r2, #8
 80050ca:	409a      	lsls	r2, r3
 80050cc:	0013      	movs	r3, r2
 80050ce:	607b      	str	r3, [r7, #4]
      break;
 80050d0:	46c0      	nop			@ (mov r8, r8)
  }

  return frequency;
 80050d2:	687b      	ldr	r3, [r7, #4]
}
 80050d4:	0018      	movs	r0, r3
 80050d6:	46bd      	mov	sp, r7
 80050d8:	b002      	add	sp, #8
 80050da:	bd80      	pop	{r7, pc}
 80050dc:	003d0900 	.word	0x003d0900
 80050e0:	00f42400 	.word	0x00f42400
 80050e4:	007a1200 	.word	0x007a1200

080050e8 <RCC_GetHCLKClockFreq>:
  * @brief  Return HCLK clock frequency
  * @param  SYSCLK_Frequency SYSCLK clock frequency
  * @retval HCLK clock frequency (in Hz)
  */
static uint32_t RCC_GetHCLKClockFreq(uint32_t SYSCLK_Frequency)
{
 80050e8:	b580      	push	{r7, lr}
 80050ea:	b082      	sub	sp, #8
 80050ec:	af00      	add	r7, sp, #0
 80050ee:	6078      	str	r0, [r7, #4]
  /* HCLK clock frequency */
  return __LL_RCC_CALC_HCLK_FREQ(SYSCLK_Frequency, LL_RCC_GetAHBPrescaler());
 80050f0:	f7ff fe8a 	bl	8004e08 <LL_RCC_GetAHBPrescaler>
 80050f4:	0003      	movs	r3, r0
 80050f6:	091b      	lsrs	r3, r3, #4
 80050f8:	220f      	movs	r2, #15
 80050fa:	4013      	ands	r3, r2
 80050fc:	4a04      	ldr	r2, [pc, #16]	@ (8005110 <RCC_GetHCLKClockFreq+0x28>)
 80050fe:	5cd3      	ldrb	r3, [r2, r3]
 8005100:	001a      	movs	r2, r3
 8005102:	687b      	ldr	r3, [r7, #4]
 8005104:	40d3      	lsrs	r3, r2
}
 8005106:	0018      	movs	r0, r3
 8005108:	46bd      	mov	sp, r7
 800510a:	b002      	add	sp, #8
 800510c:	bd80      	pop	{r7, pc}
 800510e:	46c0      	nop			@ (mov r8, r8)
 8005110:	0800822c 	.word	0x0800822c

08005114 <RCC_GetPCLK1ClockFreq>:
  * @brief  Return PCLK1 clock frequency
  * @param  HCLK_Frequency HCLK clock frequency
  * @retval PCLK1 clock frequency (in Hz)
  */
static uint32_t RCC_GetPCLK1ClockFreq(uint32_t HCLK_Frequency)
{
 8005114:	b580      	push	{r7, lr}
 8005116:	b082      	sub	sp, #8
 8005118:	af00      	add	r7, sp, #0
 800511a:	6078      	str	r0, [r7, #4]
  /* PCLK1 clock frequency */
  return __LL_RCC_CALC_PCLK1_FREQ(HCLK_Frequency, LL_RCC_GetAPB1Prescaler());
 800511c:	f7ff fe80 	bl	8004e20 <LL_RCC_GetAPB1Prescaler>
 8005120:	0003      	movs	r3, r0
 8005122:	0a1b      	lsrs	r3, r3, #8
 8005124:	4a04      	ldr	r2, [pc, #16]	@ (8005138 <RCC_GetPCLK1ClockFreq+0x24>)
 8005126:	5cd3      	ldrb	r3, [r2, r3]
 8005128:	001a      	movs	r2, r3
 800512a:	687b      	ldr	r3, [r7, #4]
 800512c:	40d3      	lsrs	r3, r2
}
 800512e:	0018      	movs	r0, r3
 8005130:	46bd      	mov	sp, r7
 8005132:	b002      	add	sp, #8
 8005134:	bd80      	pop	{r7, pc}
 8005136:	46c0      	nop			@ (mov r8, r8)
 8005138:	0800823c 	.word	0x0800823c

0800513c <RCC_GetPCLK2ClockFreq>:
  * @brief  Return PCLK2 clock frequency
  * @param  HCLK_Frequency HCLK clock frequency
  * @retval PCLK2 clock frequency (in Hz)
  */
static uint32_t RCC_GetPCLK2ClockFreq(uint32_t HCLK_Frequency)
{
 800513c:	b580      	push	{r7, lr}
 800513e:	b082      	sub	sp, #8
 8005140:	af00      	add	r7, sp, #0
 8005142:	6078      	str	r0, [r7, #4]
  /* PCLK2 clock frequency */
  return __LL_RCC_CALC_PCLK2_FREQ(HCLK_Frequency, LL_RCC_GetAPB2Prescaler());
 8005144:	f7ff fe78 	bl	8004e38 <LL_RCC_GetAPB2Prescaler>
 8005148:	0003      	movs	r3, r0
 800514a:	0adb      	lsrs	r3, r3, #11
 800514c:	4a04      	ldr	r2, [pc, #16]	@ (8005160 <RCC_GetPCLK2ClockFreq+0x24>)
 800514e:	5cd3      	ldrb	r3, [r2, r3]
 8005150:	001a      	movs	r2, r3
 8005152:	687b      	ldr	r3, [r7, #4]
 8005154:	40d3      	lsrs	r3, r2
}
 8005156:	0018      	movs	r0, r3
 8005158:	46bd      	mov	sp, r7
 800515a:	b002      	add	sp, #8
 800515c:	bd80      	pop	{r7, pc}
 800515e:	46c0      	nop			@ (mov r8, r8)
 8005160:	0800823c 	.word	0x0800823c

08005164 <RCC_PLL_GetFreqDomain_SYS>:
/**
  * @brief  Return PLL clock frequency used for system domain
  * @retval PLL clock frequency (in Hz)
  */
static uint32_t RCC_PLL_GetFreqDomain_SYS(void)
{
 8005164:	b590      	push	{r4, r7, lr}
 8005166:	b083      	sub	sp, #12
 8005168:	af00      	add	r7, sp, #0
  uint32_t pllinputfreq, pllsource;

  /* PLL_VCO = (HSE_VALUE or HSI_VALUE / PLL divider) * PLL Multiplicator */

  /* Get PLL source */
  pllsource = LL_RCC_PLL_GetMainSource();
 800516a:	f7ff fe83 	bl	8004e74 <LL_RCC_PLL_GetMainSource>
 800516e:	0003      	movs	r3, r0
 8005170:	603b      	str	r3, [r7, #0]

  switch (pllsource)
 8005172:	683b      	ldr	r3, [r7, #0]
 8005174:	2b00      	cmp	r3, #0
 8005176:	d109      	bne.n	800518c <RCC_PLL_GetFreqDomain_SYS+0x28>
  {
    case LL_RCC_PLLSOURCE_HSI:       /* HSI used as PLL clock source */
      if (LL_RCC_IsActiveFlag_HSIDIV() != 0U)
 8005178:	f7ff fea0 	bl	8004ebc <LL_RCC_IsActiveFlag_HSIDIV>
 800517c:	1e03      	subs	r3, r0, #0
 800517e:	d002      	beq.n	8005186 <RCC_PLL_GetFreqDomain_SYS+0x22>
      {
        pllinputfreq = (HSI_VALUE >> 2U);
 8005180:	4b10      	ldr	r3, [pc, #64]	@ (80051c4 <RCC_PLL_GetFreqDomain_SYS+0x60>)
 8005182:	607b      	str	r3, [r7, #4]
      }
      else
      {
        pllinputfreq = HSI_VALUE;
      }
      break;
 8005184:	e005      	b.n	8005192 <RCC_PLL_GetFreqDomain_SYS+0x2e>
        pllinputfreq = HSI_VALUE;
 8005186:	4b10      	ldr	r3, [pc, #64]	@ (80051c8 <RCC_PLL_GetFreqDomain_SYS+0x64>)
 8005188:	607b      	str	r3, [r7, #4]
      break;
 800518a:	e002      	b.n	8005192 <RCC_PLL_GetFreqDomain_SYS+0x2e>

    default:       /* HSE used as PLL clock source */
      pllinputfreq = HSE_VALUE;
 800518c:	4b0f      	ldr	r3, [pc, #60]	@ (80051cc <RCC_PLL_GetFreqDomain_SYS+0x68>)
 800518e:	607b      	str	r3, [r7, #4]
      break;
 8005190:	46c0      	nop			@ (mov r8, r8)
  }
  return __LL_RCC_CALC_PLLCLK_FREQ(pllinputfreq, LL_RCC_PLL_GetMultiplicator(), LL_RCC_PLL_GetDivider());
 8005192:	f7ff fe7b 	bl	8004e8c <LL_RCC_PLL_GetMultiplicator>
 8005196:	0003      	movs	r3, r0
 8005198:	0c9b      	lsrs	r3, r3, #18
 800519a:	4a0d      	ldr	r2, [pc, #52]	@ (80051d0 <RCC_PLL_GetFreqDomain_SYS+0x6c>)
 800519c:	5cd3      	ldrb	r3, [r2, r3]
 800519e:	001a      	movs	r2, r3
 80051a0:	687b      	ldr	r3, [r7, #4]
 80051a2:	4353      	muls	r3, r2
 80051a4:	001c      	movs	r4, r3
 80051a6:	f7ff fe7d 	bl	8004ea4 <LL_RCC_PLL_GetDivider>
 80051aa:	0003      	movs	r3, r0
 80051ac:	0d9b      	lsrs	r3, r3, #22
 80051ae:	3301      	adds	r3, #1
 80051b0:	0019      	movs	r1, r3
 80051b2:	0020      	movs	r0, r4
 80051b4:	f7fa ffc4 	bl	8000140 <__udivsi3>
 80051b8:	0003      	movs	r3, r0
}
 80051ba:	0018      	movs	r0, r3
 80051bc:	46bd      	mov	sp, r7
 80051be:	b003      	add	sp, #12
 80051c0:	bd90      	pop	{r4, r7, pc}
 80051c2:	46c0      	nop			@ (mov r8, r8)
 80051c4:	003d0900 	.word	0x003d0900
 80051c8:	00f42400 	.word	0x00f42400
 80051cc:	007a1200 	.word	0x007a1200
 80051d0:	08008244 	.word	0x08008244

080051d4 <LL_USART_IsEnabled>:
{
 80051d4:	b580      	push	{r7, lr}
 80051d6:	b082      	sub	sp, #8
 80051d8:	af00      	add	r7, sp, #0
 80051da:	6078      	str	r0, [r7, #4]
  return ((READ_BIT(USARTx->CR1, USART_CR1_UE) == (USART_CR1_UE)) ? 1UL : 0UL);
 80051dc:	687b      	ldr	r3, [r7, #4]
 80051de:	681b      	ldr	r3, [r3, #0]
 80051e0:	2201      	movs	r2, #1
 80051e2:	4013      	ands	r3, r2
 80051e4:	2b01      	cmp	r3, #1
 80051e6:	d101      	bne.n	80051ec <LL_USART_IsEnabled+0x18>
 80051e8:	2301      	movs	r3, #1
 80051ea:	e000      	b.n	80051ee <LL_USART_IsEnabled+0x1a>
 80051ec:	2300      	movs	r3, #0
}
 80051ee:	0018      	movs	r0, r3
 80051f0:	46bd      	mov	sp, r7
 80051f2:	b002      	add	sp, #8
 80051f4:	bd80      	pop	{r7, pc}
	...

080051f8 <LL_USART_SetStopBitsLength>:
{
 80051f8:	b580      	push	{r7, lr}
 80051fa:	b082      	sub	sp, #8
 80051fc:	af00      	add	r7, sp, #0
 80051fe:	6078      	str	r0, [r7, #4]
 8005200:	6039      	str	r1, [r7, #0]
  MODIFY_REG(USARTx->CR2, USART_CR2_STOP, StopBits);
 8005202:	687b      	ldr	r3, [r7, #4]
 8005204:	685b      	ldr	r3, [r3, #4]
 8005206:	4a05      	ldr	r2, [pc, #20]	@ (800521c <LL_USART_SetStopBitsLength+0x24>)
 8005208:	401a      	ands	r2, r3
 800520a:	683b      	ldr	r3, [r7, #0]
 800520c:	431a      	orrs	r2, r3
 800520e:	687b      	ldr	r3, [r7, #4]
 8005210:	605a      	str	r2, [r3, #4]
}
 8005212:	46c0      	nop			@ (mov r8, r8)
 8005214:	46bd      	mov	sp, r7
 8005216:	b002      	add	sp, #8
 8005218:	bd80      	pop	{r7, pc}
 800521a:	46c0      	nop			@ (mov r8, r8)
 800521c:	ffffcfff 	.word	0xffffcfff

08005220 <LL_USART_SetHWFlowCtrl>:
{
 8005220:	b580      	push	{r7, lr}
 8005222:	b082      	sub	sp, #8
 8005224:	af00      	add	r7, sp, #0
 8005226:	6078      	str	r0, [r7, #4]
 8005228:	6039      	str	r1, [r7, #0]
  MODIFY_REG(USARTx->CR3, USART_CR3_RTSE | USART_CR3_CTSE, HardwareFlowControl);
 800522a:	687b      	ldr	r3, [r7, #4]
 800522c:	689b      	ldr	r3, [r3, #8]
 800522e:	4a05      	ldr	r2, [pc, #20]	@ (8005244 <LL_USART_SetHWFlowCtrl+0x24>)
 8005230:	401a      	ands	r2, r3
 8005232:	683b      	ldr	r3, [r7, #0]
 8005234:	431a      	orrs	r2, r3
 8005236:	687b      	ldr	r3, [r7, #4]
 8005238:	609a      	str	r2, [r3, #8]
}
 800523a:	46c0      	nop			@ (mov r8, r8)
 800523c:	46bd      	mov	sp, r7
 800523e:	b002      	add	sp, #8
 8005240:	bd80      	pop	{r7, pc}
 8005242:	46c0      	nop			@ (mov r8, r8)
 8005244:	fffffcff 	.word	0xfffffcff

08005248 <LL_USART_SetBaudRate>:
{
 8005248:	b580      	push	{r7, lr}
 800524a:	b086      	sub	sp, #24
 800524c:	af00      	add	r7, sp, #0
 800524e:	60f8      	str	r0, [r7, #12]
 8005250:	60b9      	str	r1, [r7, #8]
 8005252:	607a      	str	r2, [r7, #4]
 8005254:	603b      	str	r3, [r7, #0]
  if (OverSampling == LL_USART_OVERSAMPLING_8)
 8005256:	687a      	ldr	r2, [r7, #4]
 8005258:	2380      	movs	r3, #128	@ 0x80
 800525a:	021b      	lsls	r3, r3, #8
 800525c:	429a      	cmp	r2, r3
 800525e:	d11c      	bne.n	800529a <LL_USART_SetBaudRate+0x52>
    usartdiv = (uint16_t)(__LL_USART_DIV_SAMPLING8(PeriphClk, BaudRate));
 8005260:	68bb      	ldr	r3, [r7, #8]
 8005262:	005a      	lsls	r2, r3, #1
 8005264:	683b      	ldr	r3, [r7, #0]
 8005266:	085b      	lsrs	r3, r3, #1
 8005268:	18d3      	adds	r3, r2, r3
 800526a:	6839      	ldr	r1, [r7, #0]
 800526c:	0018      	movs	r0, r3
 800526e:	f7fa ff67 	bl	8000140 <__udivsi3>
 8005272:	0003      	movs	r3, r0
 8005274:	b29b      	uxth	r3, r3
 8005276:	617b      	str	r3, [r7, #20]
    brrtemp = usartdiv & 0xFFF0U;
 8005278:	697b      	ldr	r3, [r7, #20]
 800527a:	4a10      	ldr	r2, [pc, #64]	@ (80052bc <LL_USART_SetBaudRate+0x74>)
 800527c:	4013      	ands	r3, r2
 800527e:	613b      	str	r3, [r7, #16]
    brrtemp |= (uint16_t)((usartdiv & (uint16_t)0x000FU) >> 1U);
 8005280:	697b      	ldr	r3, [r7, #20]
 8005282:	085b      	lsrs	r3, r3, #1
 8005284:	b29b      	uxth	r3, r3
 8005286:	001a      	movs	r2, r3
 8005288:	2307      	movs	r3, #7
 800528a:	4013      	ands	r3, r2
 800528c:	693a      	ldr	r2, [r7, #16]
 800528e:	4313      	orrs	r3, r2
 8005290:	613b      	str	r3, [r7, #16]
    USARTx->BRR = brrtemp;
 8005292:	68fb      	ldr	r3, [r7, #12]
 8005294:	693a      	ldr	r2, [r7, #16]
 8005296:	60da      	str	r2, [r3, #12]
}
 8005298:	e00c      	b.n	80052b4 <LL_USART_SetBaudRate+0x6c>
    USARTx->BRR = (uint16_t)(__LL_USART_DIV_SAMPLING16(PeriphClk, BaudRate));
 800529a:	683b      	ldr	r3, [r7, #0]
 800529c:	085a      	lsrs	r2, r3, #1
 800529e:	68bb      	ldr	r3, [r7, #8]
 80052a0:	18d3      	adds	r3, r2, r3
 80052a2:	6839      	ldr	r1, [r7, #0]
 80052a4:	0018      	movs	r0, r3
 80052a6:	f7fa ff4b 	bl	8000140 <__udivsi3>
 80052aa:	0003      	movs	r3, r0
 80052ac:	b29b      	uxth	r3, r3
 80052ae:	001a      	movs	r2, r3
 80052b0:	68fb      	ldr	r3, [r7, #12]
 80052b2:	60da      	str	r2, [r3, #12]
}
 80052b4:	46c0      	nop			@ (mov r8, r8)
 80052b6:	46bd      	mov	sp, r7
 80052b8:	b006      	add	sp, #24
 80052ba:	bd80      	pop	{r7, pc}
 80052bc:	0000fff0 	.word	0x0000fff0

080052c0 <LL_USART_Init>:
  * @retval An ErrorStatus enumeration value:
  *          - SUCCESS: USART registers are initialized according to USART_InitStruct content
  *          - ERROR: Problem occurred during USART Registers initialization
  */
ErrorStatus LL_USART_Init(USART_TypeDef *USARTx, const LL_USART_InitTypeDef *USART_InitStruct)
{
 80052c0:	b590      	push	{r4, r7, lr}
 80052c2:	b089      	sub	sp, #36	@ 0x24
 80052c4:	af00      	add	r7, sp, #0
 80052c6:	6078      	str	r0, [r7, #4]
 80052c8:	6039      	str	r1, [r7, #0]
  ErrorStatus status = ERROR;
 80052ca:	231f      	movs	r3, #31
 80052cc:	18fb      	adds	r3, r7, r3
 80052ce:	2201      	movs	r2, #1
 80052d0:	701a      	strb	r2, [r3, #0]
  uint32_t periphclk = LL_RCC_PERIPH_FREQUENCY_NO;
 80052d2:	2300      	movs	r3, #0
 80052d4:	61bb      	str	r3, [r7, #24]
  assert_param(IS_LL_USART_HWCONTROL(USART_InitStruct->HardwareFlowControl));
  assert_param(IS_LL_USART_OVERSAMPLING(USART_InitStruct->OverSampling));

  /* USART needs to be in disabled state, in order to be able to configure some bits in
     CRx registers */
  if (LL_USART_IsEnabled(USARTx) == 0U)
 80052d6:	687b      	ldr	r3, [r7, #4]
 80052d8:	0018      	movs	r0, r3
 80052da:	f7ff ff7b 	bl	80051d4 <LL_USART_IsEnabled>
 80052de:	1e03      	subs	r3, r0, #0
 80052e0:	d15f      	bne.n	80053a2 <LL_USART_Init+0xe2>
     * - DataWidth:          USART_CR1_M bits according to USART_InitStruct->DataWidth value
     * - Parity:             USART_CR1_PCE, USART_CR1_PS bits according to USART_InitStruct->Parity value
     * - TransferDirection:  USART_CR1_TE, USART_CR1_RE bits according to USART_InitStruct->TransferDirection value
     * - Oversampling:       USART_CR1_OVER8 bit according to USART_InitStruct->OverSampling value.
     */
    MODIFY_REG(USARTx->CR1,
 80052e2:	687b      	ldr	r3, [r7, #4]
 80052e4:	681b      	ldr	r3, [r3, #0]
 80052e6:	4a32      	ldr	r2, [pc, #200]	@ (80053b0 <LL_USART_Init+0xf0>)
 80052e8:	401a      	ands	r2, r3
 80052ea:	683b      	ldr	r3, [r7, #0]
 80052ec:	6859      	ldr	r1, [r3, #4]
 80052ee:	683b      	ldr	r3, [r7, #0]
 80052f0:	68db      	ldr	r3, [r3, #12]
 80052f2:	4319      	orrs	r1, r3
 80052f4:	683b      	ldr	r3, [r7, #0]
 80052f6:	691b      	ldr	r3, [r3, #16]
 80052f8:	4319      	orrs	r1, r3
 80052fa:	683b      	ldr	r3, [r7, #0]
 80052fc:	699b      	ldr	r3, [r3, #24]
 80052fe:	430b      	orrs	r3, r1
 8005300:	431a      	orrs	r2, r3
 8005302:	687b      	ldr	r3, [r7, #4]
 8005304:	601a      	str	r2, [r3, #0]
    /*---------------------------- USART CR2 Configuration ---------------------
     * Configure USARTx CR2 (Stop bits) with parameters:
     * - Stop Bits:          USART_CR2_STOP bits according to USART_InitStruct->StopBits value.
     * - CLKEN, CPOL, CPHA and LBCL bits are to be configured using LL_USART_ClockInit().
     */
    LL_USART_SetStopBitsLength(USARTx, USART_InitStruct->StopBits);
 8005306:	683b      	ldr	r3, [r7, #0]
 8005308:	689a      	ldr	r2, [r3, #8]
 800530a:	687b      	ldr	r3, [r7, #4]
 800530c:	0011      	movs	r1, r2
 800530e:	0018      	movs	r0, r3
 8005310:	f7ff ff72 	bl	80051f8 <LL_USART_SetStopBitsLength>
    /*---------------------------- USART CR3 Configuration ---------------------
     * Configure USARTx CR3 (Hardware Flow Control) with parameters:
     * - HardwareFlowControl: USART_CR3_RTSE, USART_CR3_CTSE bits according to
     *   USART_InitStruct->HardwareFlowControl value.
     */
    LL_USART_SetHWFlowCtrl(USARTx, USART_InitStruct->HardwareFlowControl);
 8005314:	683b      	ldr	r3, [r7, #0]
 8005316:	695a      	ldr	r2, [r3, #20]
 8005318:	687b      	ldr	r3, [r7, #4]
 800531a:	0011      	movs	r1, r2
 800531c:	0018      	movs	r0, r3
 800531e:	f7ff ff7f 	bl	8005220 <LL_USART_SetHWFlowCtrl>

    /*---------------------------- USART BRR Configuration ---------------------
     * Retrieve Clock frequency used for USART Peripheral
     */
#if defined(USART1)
    if (USARTx == USART1)
 8005322:	687b      	ldr	r3, [r7, #4]
 8005324:	4a23      	ldr	r2, [pc, #140]	@ (80053b4 <LL_USART_Init+0xf4>)
 8005326:	4293      	cmp	r3, r2
 8005328:	d105      	bne.n	8005336 <LL_USART_Init+0x76>
    {
      periphclk = LL_RCC_GetUSARTClockFreq(LL_RCC_USART1_CLKSOURCE);
 800532a:	2003      	movs	r0, #3
 800532c:	f7ff fdfc 	bl	8004f28 <LL_RCC_GetUSARTClockFreq>
 8005330:	0003      	movs	r3, r0
 8005332:	61bb      	str	r3, [r7, #24]
 8005334:	e022      	b.n	800537c <LL_USART_Init+0xbc>
    }
#endif /* USART1 */
#if defined(USART1)
    else if (USARTx == USART2)
 8005336:	687b      	ldr	r3, [r7, #4]
 8005338:	4a1f      	ldr	r2, [pc, #124]	@ (80053b8 <LL_USART_Init+0xf8>)
 800533a:	4293      	cmp	r3, r2
 800533c:	d105      	bne.n	800534a <LL_USART_Init+0x8a>
#else
    if (USARTx == USART2)
#endif /* USART1 */
    {
      periphclk = LL_RCC_GetUSARTClockFreq(LL_RCC_USART2_CLKSOURCE);
 800533e:	200c      	movs	r0, #12
 8005340:	f7ff fdf2 	bl	8004f28 <LL_RCC_GetUSARTClockFreq>
 8005344:	0003      	movs	r3, r0
 8005346:	61bb      	str	r3, [r7, #24]
 8005348:	e018      	b.n	800537c <LL_USART_Init+0xbc>
    }
#if defined(USART4)
    else if (USARTx == USART4)
 800534a:	687b      	ldr	r3, [r7, #4]
 800534c:	4a1b      	ldr	r2, [pc, #108]	@ (80053bc <LL_USART_Init+0xfc>)
 800534e:	4293      	cmp	r3, r2
 8005350:	d108      	bne.n	8005364 <LL_USART_Init+0xa4>
    {
      /* USART4 clock is PCLK1 */
      LL_RCC_GetSystemClocksFreq(&RCC_Clocks);
 8005352:	2408      	movs	r4, #8
 8005354:	193b      	adds	r3, r7, r4
 8005356:	0018      	movs	r0, r3
 8005358:	f7ff fdc0 	bl	8004edc <LL_RCC_GetSystemClocksFreq>
      periphclk = RCC_Clocks.PCLK1_Frequency;
 800535c:	193b      	adds	r3, r7, r4
 800535e:	689b      	ldr	r3, [r3, #8]
 8005360:	61bb      	str	r3, [r7, #24]
 8005362:	e00b      	b.n	800537c <LL_USART_Init+0xbc>
    }
#endif /* USART4 */
#if defined(USART5)
    else if (USARTx == USART5)
 8005364:	687b      	ldr	r3, [r7, #4]
 8005366:	4a16      	ldr	r2, [pc, #88]	@ (80053c0 <LL_USART_Init+0x100>)
 8005368:	4293      	cmp	r3, r2
 800536a:	d107      	bne.n	800537c <LL_USART_Init+0xbc>
    {
      /* USART5 clock is PCLK1 */
      LL_RCC_GetSystemClocksFreq(&RCC_Clocks);
 800536c:	2408      	movs	r4, #8
 800536e:	193b      	adds	r3, r7, r4
 8005370:	0018      	movs	r0, r3
 8005372:	f7ff fdb3 	bl	8004edc <LL_RCC_GetSystemClocksFreq>
      periphclk = RCC_Clocks.PCLK1_Frequency;
 8005376:	193b      	adds	r3, r7, r4
 8005378:	689b      	ldr	r3, [r3, #8]
 800537a:	61bb      	str	r3, [r7, #24]

    /* Configure the USART Baud Rate :
       - valid baud rate value (different from 0) is required
       - Peripheral clock as returned by RCC service, should be valid (different from 0).
    */
    if ((periphclk != LL_RCC_PERIPH_FREQUENCY_NO)
 800537c:	69bb      	ldr	r3, [r7, #24]
 800537e:	2b00      	cmp	r3, #0
 8005380:	d00f      	beq.n	80053a2 <LL_USART_Init+0xe2>
        && (USART_InitStruct->BaudRate != 0U))
 8005382:	683b      	ldr	r3, [r7, #0]
 8005384:	681b      	ldr	r3, [r3, #0]
 8005386:	2b00      	cmp	r3, #0
 8005388:	d00b      	beq.n	80053a2 <LL_USART_Init+0xe2>
    {
      status = SUCCESS;
 800538a:	231f      	movs	r3, #31
 800538c:	18fb      	adds	r3, r7, r3
 800538e:	2200      	movs	r2, #0
 8005390:	701a      	strb	r2, [r3, #0]
      LL_USART_SetBaudRate(USARTx,
                           periphclk,
                           USART_InitStruct->OverSampling,
 8005392:	683b      	ldr	r3, [r7, #0]
 8005394:	699a      	ldr	r2, [r3, #24]
                           USART_InitStruct->BaudRate);
 8005396:	683b      	ldr	r3, [r7, #0]
 8005398:	681b      	ldr	r3, [r3, #0]
      LL_USART_SetBaudRate(USARTx,
 800539a:	69b9      	ldr	r1, [r7, #24]
 800539c:	6878      	ldr	r0, [r7, #4]
 800539e:	f7ff ff53 	bl	8005248 <LL_USART_SetBaudRate>
      assert_param(IS_LL_USART_BRR_MIN(USARTx->BRR));
    }
  }
  /* Endif (=> USART not in Disabled state => return ERROR) */

  return (status);
 80053a2:	231f      	movs	r3, #31
 80053a4:	18fb      	adds	r3, r7, r3
 80053a6:	781b      	ldrb	r3, [r3, #0]
}
 80053a8:	0018      	movs	r0, r3
 80053aa:	46bd      	mov	sp, r7
 80053ac:	b009      	add	sp, #36	@ 0x24
 80053ae:	bd90      	pop	{r4, r7, pc}
 80053b0:	efff69f3 	.word	0xefff69f3
 80053b4:	40013800 	.word	0x40013800
 80053b8:	40004400 	.word	0x40004400
 80053bc:	40004c00 	.word	0x40004c00
 80053c0:	40005000 	.word	0x40005000

080053c4 <LL_SetSystemCoreClock>:
  * @note   Variable can be calculated also through SystemCoreClockUpdate function.
  * @param  HCLKFrequency HCLK frequency in Hz (can be calculated thanks to RCC helper macro)
  * @retval None
  */
void LL_SetSystemCoreClock(uint32_t HCLKFrequency)
{
 80053c4:	b580      	push	{r7, lr}
 80053c6:	b082      	sub	sp, #8
 80053c8:	af00      	add	r7, sp, #0
 80053ca:	6078      	str	r0, [r7, #4]
  /* HCLK clock frequency */
  SystemCoreClock = HCLKFrequency;
 80053cc:	4b03      	ldr	r3, [pc, #12]	@ (80053dc <LL_SetSystemCoreClock+0x18>)
 80053ce:	687a      	ldr	r2, [r7, #4]
 80053d0:	601a      	str	r2, [r3, #0]
}
 80053d2:	46c0      	nop			@ (mov r8, r8)
 80053d4:	46bd      	mov	sp, r7
 80053d6:	b002      	add	sp, #8
 80053d8:	bd80      	pop	{r7, pc}
 80053da:	46c0      	nop			@ (mov r8, r8)
 80053dc:	20000000 	.word	0x20000000

080053e0 <__cvt>:
 80053e0:	b5f0      	push	{r4, r5, r6, r7, lr}
 80053e2:	001f      	movs	r7, r3
 80053e4:	2300      	movs	r3, #0
 80053e6:	0016      	movs	r6, r2
 80053e8:	b08b      	sub	sp, #44	@ 0x2c
 80053ea:	429f      	cmp	r7, r3
 80053ec:	da04      	bge.n	80053f8 <__cvt+0x18>
 80053ee:	2180      	movs	r1, #128	@ 0x80
 80053f0:	0609      	lsls	r1, r1, #24
 80053f2:	187b      	adds	r3, r7, r1
 80053f4:	001f      	movs	r7, r3
 80053f6:	232d      	movs	r3, #45	@ 0x2d
 80053f8:	9a12      	ldr	r2, [sp, #72]	@ 0x48
 80053fa:	9d14      	ldr	r5, [sp, #80]	@ 0x50
 80053fc:	7013      	strb	r3, [r2, #0]
 80053fe:	2320      	movs	r3, #32
 8005400:	2203      	movs	r2, #3
 8005402:	439d      	bics	r5, r3
 8005404:	2d46      	cmp	r5, #70	@ 0x46
 8005406:	d007      	beq.n	8005418 <__cvt+0x38>
 8005408:	002b      	movs	r3, r5
 800540a:	3b45      	subs	r3, #69	@ 0x45
 800540c:	4259      	negs	r1, r3
 800540e:	414b      	adcs	r3, r1
 8005410:	9910      	ldr	r1, [sp, #64]	@ 0x40
 8005412:	3a01      	subs	r2, #1
 8005414:	18cb      	adds	r3, r1, r3
 8005416:	9310      	str	r3, [sp, #64]	@ 0x40
 8005418:	ab09      	add	r3, sp, #36	@ 0x24
 800541a:	9304      	str	r3, [sp, #16]
 800541c:	ab08      	add	r3, sp, #32
 800541e:	9303      	str	r3, [sp, #12]
 8005420:	9b13      	ldr	r3, [sp, #76]	@ 0x4c
 8005422:	9200      	str	r2, [sp, #0]
 8005424:	9302      	str	r3, [sp, #8]
 8005426:	9b10      	ldr	r3, [sp, #64]	@ 0x40
 8005428:	0032      	movs	r2, r6
 800542a:	9301      	str	r3, [sp, #4]
 800542c:	003b      	movs	r3, r7
 800542e:	f001 f825 	bl	800647c <_dtoa_r>
 8005432:	0004      	movs	r4, r0
 8005434:	2d47      	cmp	r5, #71	@ 0x47
 8005436:	d11b      	bne.n	8005470 <__cvt+0x90>
 8005438:	9b11      	ldr	r3, [sp, #68]	@ 0x44
 800543a:	07db      	lsls	r3, r3, #31
 800543c:	d511      	bpl.n	8005462 <__cvt+0x82>
 800543e:	9b10      	ldr	r3, [sp, #64]	@ 0x40
 8005440:	18c3      	adds	r3, r0, r3
 8005442:	9307      	str	r3, [sp, #28]
 8005444:	2200      	movs	r2, #0
 8005446:	2300      	movs	r3, #0
 8005448:	0030      	movs	r0, r6
 800544a:	0039      	movs	r1, r7
 800544c:	f7fa fffe 	bl	800044c <__aeabi_dcmpeq>
 8005450:	2800      	cmp	r0, #0
 8005452:	d001      	beq.n	8005458 <__cvt+0x78>
 8005454:	9b07      	ldr	r3, [sp, #28]
 8005456:	9309      	str	r3, [sp, #36]	@ 0x24
 8005458:	2230      	movs	r2, #48	@ 0x30
 800545a:	9b09      	ldr	r3, [sp, #36]	@ 0x24
 800545c:	9907      	ldr	r1, [sp, #28]
 800545e:	428b      	cmp	r3, r1
 8005460:	d320      	bcc.n	80054a4 <__cvt+0xc4>
 8005462:	0020      	movs	r0, r4
 8005464:	9b09      	ldr	r3, [sp, #36]	@ 0x24
 8005466:	9a15      	ldr	r2, [sp, #84]	@ 0x54
 8005468:	1b1b      	subs	r3, r3, r4
 800546a:	6013      	str	r3, [r2, #0]
 800546c:	b00b      	add	sp, #44	@ 0x2c
 800546e:	bdf0      	pop	{r4, r5, r6, r7, pc}
 8005470:	9b10      	ldr	r3, [sp, #64]	@ 0x40
 8005472:	18c3      	adds	r3, r0, r3
 8005474:	9307      	str	r3, [sp, #28]
 8005476:	2d46      	cmp	r5, #70	@ 0x46
 8005478:	d1e4      	bne.n	8005444 <__cvt+0x64>
 800547a:	7803      	ldrb	r3, [r0, #0]
 800547c:	2b30      	cmp	r3, #48	@ 0x30
 800547e:	d10c      	bne.n	800549a <__cvt+0xba>
 8005480:	2200      	movs	r2, #0
 8005482:	2300      	movs	r3, #0
 8005484:	0030      	movs	r0, r6
 8005486:	0039      	movs	r1, r7
 8005488:	f7fa ffe0 	bl	800044c <__aeabi_dcmpeq>
 800548c:	2800      	cmp	r0, #0
 800548e:	d104      	bne.n	800549a <__cvt+0xba>
 8005490:	2301      	movs	r3, #1
 8005492:	9a10      	ldr	r2, [sp, #64]	@ 0x40
 8005494:	1a9b      	subs	r3, r3, r2
 8005496:	9a13      	ldr	r2, [sp, #76]	@ 0x4c
 8005498:	6013      	str	r3, [r2, #0]
 800549a:	9b13      	ldr	r3, [sp, #76]	@ 0x4c
 800549c:	9a07      	ldr	r2, [sp, #28]
 800549e:	681b      	ldr	r3, [r3, #0]
 80054a0:	18d3      	adds	r3, r2, r3
 80054a2:	e7ce      	b.n	8005442 <__cvt+0x62>
 80054a4:	1c59      	adds	r1, r3, #1
 80054a6:	9109      	str	r1, [sp, #36]	@ 0x24
 80054a8:	701a      	strb	r2, [r3, #0]
 80054aa:	e7d6      	b.n	800545a <__cvt+0x7a>

080054ac <__exponent>:
 80054ac:	b5f0      	push	{r4, r5, r6, r7, lr}
 80054ae:	232b      	movs	r3, #43	@ 0x2b
 80054b0:	b085      	sub	sp, #20
 80054b2:	0005      	movs	r5, r0
 80054b4:	1e0c      	subs	r4, r1, #0
 80054b6:	7002      	strb	r2, [r0, #0]
 80054b8:	da01      	bge.n	80054be <__exponent+0x12>
 80054ba:	424c      	negs	r4, r1
 80054bc:	3302      	adds	r3, #2
 80054be:	706b      	strb	r3, [r5, #1]
 80054c0:	2c09      	cmp	r4, #9
 80054c2:	dd2c      	ble.n	800551e <__exponent+0x72>
 80054c4:	ab02      	add	r3, sp, #8
 80054c6:	1dde      	adds	r6, r3, #7
 80054c8:	0020      	movs	r0, r4
 80054ca:	210a      	movs	r1, #10
 80054cc:	f7fa ffa8 	bl	8000420 <__aeabi_idivmod>
 80054d0:	0037      	movs	r7, r6
 80054d2:	3130      	adds	r1, #48	@ 0x30
 80054d4:	3e01      	subs	r6, #1
 80054d6:	0020      	movs	r0, r4
 80054d8:	7031      	strb	r1, [r6, #0]
 80054da:	210a      	movs	r1, #10
 80054dc:	9401      	str	r4, [sp, #4]
 80054de:	f7fa feb9 	bl	8000254 <__divsi3>
 80054e2:	9b01      	ldr	r3, [sp, #4]
 80054e4:	0004      	movs	r4, r0
 80054e6:	2b63      	cmp	r3, #99	@ 0x63
 80054e8:	dcee      	bgt.n	80054c8 <__exponent+0x1c>
 80054ea:	1eba      	subs	r2, r7, #2
 80054ec:	1ca8      	adds	r0, r5, #2
 80054ee:	0001      	movs	r1, r0
 80054f0:	0013      	movs	r3, r2
 80054f2:	3430      	adds	r4, #48	@ 0x30
 80054f4:	7014      	strb	r4, [r2, #0]
 80054f6:	ac02      	add	r4, sp, #8
 80054f8:	3407      	adds	r4, #7
 80054fa:	429c      	cmp	r4, r3
 80054fc:	d80a      	bhi.n	8005514 <__exponent+0x68>
 80054fe:	2300      	movs	r3, #0
 8005500:	4294      	cmp	r4, r2
 8005502:	d303      	bcc.n	800550c <__exponent+0x60>
 8005504:	3309      	adds	r3, #9
 8005506:	aa02      	add	r2, sp, #8
 8005508:	189b      	adds	r3, r3, r2
 800550a:	1bdb      	subs	r3, r3, r7
 800550c:	18c0      	adds	r0, r0, r3
 800550e:	1b40      	subs	r0, r0, r5
 8005510:	b005      	add	sp, #20
 8005512:	bdf0      	pop	{r4, r5, r6, r7, pc}
 8005514:	781c      	ldrb	r4, [r3, #0]
 8005516:	3301      	adds	r3, #1
 8005518:	700c      	strb	r4, [r1, #0]
 800551a:	3101      	adds	r1, #1
 800551c:	e7eb      	b.n	80054f6 <__exponent+0x4a>
 800551e:	2330      	movs	r3, #48	@ 0x30
 8005520:	18e4      	adds	r4, r4, r3
 8005522:	70ab      	strb	r3, [r5, #2]
 8005524:	1d28      	adds	r0, r5, #4
 8005526:	70ec      	strb	r4, [r5, #3]
 8005528:	e7f1      	b.n	800550e <__exponent+0x62>
	...

0800552c <_printf_float>:
 800552c:	b5f0      	push	{r4, r5, r6, r7, lr}
 800552e:	b097      	sub	sp, #92	@ 0x5c
 8005530:	000d      	movs	r5, r1
 8005532:	920a      	str	r2, [sp, #40]	@ 0x28
 8005534:	9c1c      	ldr	r4, [sp, #112]	@ 0x70
 8005536:	930b      	str	r3, [sp, #44]	@ 0x2c
 8005538:	9009      	str	r0, [sp, #36]	@ 0x24
 800553a:	f000 fe8f 	bl	800625c <_localeconv_r>
 800553e:	6803      	ldr	r3, [r0, #0]
 8005540:	0018      	movs	r0, r3
 8005542:	930d      	str	r3, [sp, #52]	@ 0x34
 8005544:	f7fa fde0 	bl	8000108 <strlen>
 8005548:	2300      	movs	r3, #0
 800554a:	900f      	str	r0, [sp, #60]	@ 0x3c
 800554c:	9314      	str	r3, [sp, #80]	@ 0x50
 800554e:	7e2b      	ldrb	r3, [r5, #24]
 8005550:	2207      	movs	r2, #7
 8005552:	930c      	str	r3, [sp, #48]	@ 0x30
 8005554:	682b      	ldr	r3, [r5, #0]
 8005556:	930e      	str	r3, [sp, #56]	@ 0x38
 8005558:	990e      	ldr	r1, [sp, #56]	@ 0x38
 800555a:	6823      	ldr	r3, [r4, #0]
 800555c:	05c9      	lsls	r1, r1, #23
 800555e:	d545      	bpl.n	80055ec <_printf_float+0xc0>
 8005560:	189b      	adds	r3, r3, r2
 8005562:	4393      	bics	r3, r2
 8005564:	001a      	movs	r2, r3
 8005566:	3208      	adds	r2, #8
 8005568:	6022      	str	r2, [r4, #0]
 800556a:	2201      	movs	r2, #1
 800556c:	681e      	ldr	r6, [r3, #0]
 800556e:	685f      	ldr	r7, [r3, #4]
 8005570:	007b      	lsls	r3, r7, #1
 8005572:	085b      	lsrs	r3, r3, #1
 8005574:	9311      	str	r3, [sp, #68]	@ 0x44
 8005576:	9610      	str	r6, [sp, #64]	@ 0x40
 8005578:	64ae      	str	r6, [r5, #72]	@ 0x48
 800557a:	64ef      	str	r7, [r5, #76]	@ 0x4c
 800557c:	9810      	ldr	r0, [sp, #64]	@ 0x40
 800557e:	9911      	ldr	r1, [sp, #68]	@ 0x44
 8005580:	4ba7      	ldr	r3, [pc, #668]	@ (8005820 <_printf_float+0x2f4>)
 8005582:	4252      	negs	r2, r2
 8005584:	f7fd f936 	bl	80027f4 <__aeabi_dcmpun>
 8005588:	2800      	cmp	r0, #0
 800558a:	d131      	bne.n	80055f0 <_printf_float+0xc4>
 800558c:	9810      	ldr	r0, [sp, #64]	@ 0x40
 800558e:	9911      	ldr	r1, [sp, #68]	@ 0x44
 8005590:	2201      	movs	r2, #1
 8005592:	4ba3      	ldr	r3, [pc, #652]	@ (8005820 <_printf_float+0x2f4>)
 8005594:	4252      	negs	r2, r2
 8005596:	f7fa ff69 	bl	800046c <__aeabi_dcmple>
 800559a:	2800      	cmp	r0, #0
 800559c:	d128      	bne.n	80055f0 <_printf_float+0xc4>
 800559e:	2200      	movs	r2, #0
 80055a0:	2300      	movs	r3, #0
 80055a2:	0030      	movs	r0, r6
 80055a4:	0039      	movs	r1, r7
 80055a6:	f7fa ff57 	bl	8000458 <__aeabi_dcmplt>
 80055aa:	2800      	cmp	r0, #0
 80055ac:	d003      	beq.n	80055b6 <_printf_float+0x8a>
 80055ae:	002b      	movs	r3, r5
 80055b0:	222d      	movs	r2, #45	@ 0x2d
 80055b2:	3343      	adds	r3, #67	@ 0x43
 80055b4:	701a      	strb	r2, [r3, #0]
 80055b6:	9b0c      	ldr	r3, [sp, #48]	@ 0x30
 80055b8:	4f9a      	ldr	r7, [pc, #616]	@ (8005824 <_printf_float+0x2f8>)
 80055ba:	2b47      	cmp	r3, #71	@ 0x47
 80055bc:	d800      	bhi.n	80055c0 <_printf_float+0x94>
 80055be:	4f9a      	ldr	r7, [pc, #616]	@ (8005828 <_printf_float+0x2fc>)
 80055c0:	2303      	movs	r3, #3
 80055c2:	2400      	movs	r4, #0
 80055c4:	9a0e      	ldr	r2, [sp, #56]	@ 0x38
 80055c6:	612b      	str	r3, [r5, #16]
 80055c8:	3301      	adds	r3, #1
 80055ca:	439a      	bics	r2, r3
 80055cc:	602a      	str	r2, [r5, #0]
 80055ce:	9b0b      	ldr	r3, [sp, #44]	@ 0x2c
 80055d0:	0029      	movs	r1, r5
 80055d2:	9300      	str	r3, [sp, #0]
 80055d4:	9809      	ldr	r0, [sp, #36]	@ 0x24
 80055d6:	9b0a      	ldr	r3, [sp, #40]	@ 0x28
 80055d8:	aa15      	add	r2, sp, #84	@ 0x54
 80055da:	f000 f9e5 	bl	80059a8 <_printf_common>
 80055de:	3001      	adds	r0, #1
 80055e0:	d000      	beq.n	80055e4 <_printf_float+0xb8>
 80055e2:	e09e      	b.n	8005722 <_printf_float+0x1f6>
 80055e4:	2001      	movs	r0, #1
 80055e6:	4240      	negs	r0, r0
 80055e8:	b017      	add	sp, #92	@ 0x5c
 80055ea:	bdf0      	pop	{r4, r5, r6, r7, pc}
 80055ec:	3307      	adds	r3, #7
 80055ee:	e7b8      	b.n	8005562 <_printf_float+0x36>
 80055f0:	0032      	movs	r2, r6
 80055f2:	003b      	movs	r3, r7
 80055f4:	0030      	movs	r0, r6
 80055f6:	0039      	movs	r1, r7
 80055f8:	f7fd f8fc 	bl	80027f4 <__aeabi_dcmpun>
 80055fc:	2800      	cmp	r0, #0
 80055fe:	d00b      	beq.n	8005618 <_printf_float+0xec>
 8005600:	2f00      	cmp	r7, #0
 8005602:	da03      	bge.n	800560c <_printf_float+0xe0>
 8005604:	002b      	movs	r3, r5
 8005606:	222d      	movs	r2, #45	@ 0x2d
 8005608:	3343      	adds	r3, #67	@ 0x43
 800560a:	701a      	strb	r2, [r3, #0]
 800560c:	9b0c      	ldr	r3, [sp, #48]	@ 0x30
 800560e:	4f87      	ldr	r7, [pc, #540]	@ (800582c <_printf_float+0x300>)
 8005610:	2b47      	cmp	r3, #71	@ 0x47
 8005612:	d8d5      	bhi.n	80055c0 <_printf_float+0x94>
 8005614:	4f86      	ldr	r7, [pc, #536]	@ (8005830 <_printf_float+0x304>)
 8005616:	e7d3      	b.n	80055c0 <_printf_float+0x94>
 8005618:	2220      	movs	r2, #32
 800561a:	9c0c      	ldr	r4, [sp, #48]	@ 0x30
 800561c:	686b      	ldr	r3, [r5, #4]
 800561e:	4394      	bics	r4, r2
 8005620:	1c5a      	adds	r2, r3, #1
 8005622:	d146      	bne.n	80056b2 <_printf_float+0x186>
 8005624:	3307      	adds	r3, #7
 8005626:	606b      	str	r3, [r5, #4]
 8005628:	2380      	movs	r3, #128	@ 0x80
 800562a:	9a0e      	ldr	r2, [sp, #56]	@ 0x38
 800562c:	00db      	lsls	r3, r3, #3
 800562e:	4313      	orrs	r3, r2
 8005630:	2200      	movs	r2, #0
 8005632:	602b      	str	r3, [r5, #0]
 8005634:	9206      	str	r2, [sp, #24]
 8005636:	aa14      	add	r2, sp, #80	@ 0x50
 8005638:	9205      	str	r2, [sp, #20]
 800563a:	9a0c      	ldr	r2, [sp, #48]	@ 0x30
 800563c:	a90a      	add	r1, sp, #40	@ 0x28
 800563e:	9204      	str	r2, [sp, #16]
 8005640:	aa13      	add	r2, sp, #76	@ 0x4c
 8005642:	9203      	str	r2, [sp, #12]
 8005644:	2223      	movs	r2, #35	@ 0x23
 8005646:	1852      	adds	r2, r2, r1
 8005648:	9202      	str	r2, [sp, #8]
 800564a:	9301      	str	r3, [sp, #4]
 800564c:	686b      	ldr	r3, [r5, #4]
 800564e:	0032      	movs	r2, r6
 8005650:	9300      	str	r3, [sp, #0]
 8005652:	9809      	ldr	r0, [sp, #36]	@ 0x24
 8005654:	003b      	movs	r3, r7
 8005656:	f7ff fec3 	bl	80053e0 <__cvt>
 800565a:	9a13      	ldr	r2, [sp, #76]	@ 0x4c
 800565c:	0007      	movs	r7, r0
 800565e:	2c47      	cmp	r4, #71	@ 0x47
 8005660:	d12d      	bne.n	80056be <_printf_float+0x192>
 8005662:	1cd3      	adds	r3, r2, #3
 8005664:	db02      	blt.n	800566c <_printf_float+0x140>
 8005666:	686b      	ldr	r3, [r5, #4]
 8005668:	429a      	cmp	r2, r3
 800566a:	dd47      	ble.n	80056fc <_printf_float+0x1d0>
 800566c:	9b0c      	ldr	r3, [sp, #48]	@ 0x30
 800566e:	3b02      	subs	r3, #2
 8005670:	b2db      	uxtb	r3, r3
 8005672:	930c      	str	r3, [sp, #48]	@ 0x30
 8005674:	0028      	movs	r0, r5
 8005676:	9913      	ldr	r1, [sp, #76]	@ 0x4c
 8005678:	9a0c      	ldr	r2, [sp, #48]	@ 0x30
 800567a:	3901      	subs	r1, #1
 800567c:	3050      	adds	r0, #80	@ 0x50
 800567e:	9113      	str	r1, [sp, #76]	@ 0x4c
 8005680:	f7ff ff14 	bl	80054ac <__exponent>
 8005684:	9a14      	ldr	r2, [sp, #80]	@ 0x50
 8005686:	0004      	movs	r4, r0
 8005688:	1813      	adds	r3, r2, r0
 800568a:	612b      	str	r3, [r5, #16]
 800568c:	2a01      	cmp	r2, #1
 800568e:	dc02      	bgt.n	8005696 <_printf_float+0x16a>
 8005690:	682a      	ldr	r2, [r5, #0]
 8005692:	07d2      	lsls	r2, r2, #31
 8005694:	d501      	bpl.n	800569a <_printf_float+0x16e>
 8005696:	3301      	adds	r3, #1
 8005698:	612b      	str	r3, [r5, #16]
 800569a:	2323      	movs	r3, #35	@ 0x23
 800569c:	aa0a      	add	r2, sp, #40	@ 0x28
 800569e:	189b      	adds	r3, r3, r2
 80056a0:	781b      	ldrb	r3, [r3, #0]
 80056a2:	2b00      	cmp	r3, #0
 80056a4:	d100      	bne.n	80056a8 <_printf_float+0x17c>
 80056a6:	e792      	b.n	80055ce <_printf_float+0xa2>
 80056a8:	002b      	movs	r3, r5
 80056aa:	222d      	movs	r2, #45	@ 0x2d
 80056ac:	3343      	adds	r3, #67	@ 0x43
 80056ae:	701a      	strb	r2, [r3, #0]
 80056b0:	e78d      	b.n	80055ce <_printf_float+0xa2>
 80056b2:	2c47      	cmp	r4, #71	@ 0x47
 80056b4:	d1b8      	bne.n	8005628 <_printf_float+0xfc>
 80056b6:	2b00      	cmp	r3, #0
 80056b8:	d1b6      	bne.n	8005628 <_printf_float+0xfc>
 80056ba:	3301      	adds	r3, #1
 80056bc:	e7b3      	b.n	8005626 <_printf_float+0xfa>
 80056be:	9b0c      	ldr	r3, [sp, #48]	@ 0x30
 80056c0:	2b65      	cmp	r3, #101	@ 0x65
 80056c2:	d9d7      	bls.n	8005674 <_printf_float+0x148>
 80056c4:	9b0c      	ldr	r3, [sp, #48]	@ 0x30
 80056c6:	2b66      	cmp	r3, #102	@ 0x66
 80056c8:	d11a      	bne.n	8005700 <_printf_float+0x1d4>
 80056ca:	686b      	ldr	r3, [r5, #4]
 80056cc:	2a00      	cmp	r2, #0
 80056ce:	dd09      	ble.n	80056e4 <_printf_float+0x1b8>
 80056d0:	612a      	str	r2, [r5, #16]
 80056d2:	2b00      	cmp	r3, #0
 80056d4:	d102      	bne.n	80056dc <_printf_float+0x1b0>
 80056d6:	6829      	ldr	r1, [r5, #0]
 80056d8:	07c9      	lsls	r1, r1, #31
 80056da:	d50b      	bpl.n	80056f4 <_printf_float+0x1c8>
 80056dc:	3301      	adds	r3, #1
 80056de:	189b      	adds	r3, r3, r2
 80056e0:	612b      	str	r3, [r5, #16]
 80056e2:	e007      	b.n	80056f4 <_printf_float+0x1c8>
 80056e4:	2b00      	cmp	r3, #0
 80056e6:	d103      	bne.n	80056f0 <_printf_float+0x1c4>
 80056e8:	2201      	movs	r2, #1
 80056ea:	6829      	ldr	r1, [r5, #0]
 80056ec:	4211      	tst	r1, r2
 80056ee:	d000      	beq.n	80056f2 <_printf_float+0x1c6>
 80056f0:	1c9a      	adds	r2, r3, #2
 80056f2:	612a      	str	r2, [r5, #16]
 80056f4:	9b13      	ldr	r3, [sp, #76]	@ 0x4c
 80056f6:	2400      	movs	r4, #0
 80056f8:	65ab      	str	r3, [r5, #88]	@ 0x58
 80056fa:	e7ce      	b.n	800569a <_printf_float+0x16e>
 80056fc:	2367      	movs	r3, #103	@ 0x67
 80056fe:	930c      	str	r3, [sp, #48]	@ 0x30
 8005700:	9913      	ldr	r1, [sp, #76]	@ 0x4c
 8005702:	9b14      	ldr	r3, [sp, #80]	@ 0x50
 8005704:	4299      	cmp	r1, r3
 8005706:	db06      	blt.n	8005716 <_printf_float+0x1ea>
 8005708:	682b      	ldr	r3, [r5, #0]
 800570a:	6129      	str	r1, [r5, #16]
 800570c:	07db      	lsls	r3, r3, #31
 800570e:	d5f1      	bpl.n	80056f4 <_printf_float+0x1c8>
 8005710:	3101      	adds	r1, #1
 8005712:	6129      	str	r1, [r5, #16]
 8005714:	e7ee      	b.n	80056f4 <_printf_float+0x1c8>
 8005716:	2201      	movs	r2, #1
 8005718:	2900      	cmp	r1, #0
 800571a:	dce0      	bgt.n	80056de <_printf_float+0x1b2>
 800571c:	1892      	adds	r2, r2, r2
 800571e:	1a52      	subs	r2, r2, r1
 8005720:	e7dd      	b.n	80056de <_printf_float+0x1b2>
 8005722:	682a      	ldr	r2, [r5, #0]
 8005724:	0553      	lsls	r3, r2, #21
 8005726:	d408      	bmi.n	800573a <_printf_float+0x20e>
 8005728:	692b      	ldr	r3, [r5, #16]
 800572a:	003a      	movs	r2, r7
 800572c:	990a      	ldr	r1, [sp, #40]	@ 0x28
 800572e:	9809      	ldr	r0, [sp, #36]	@ 0x24
 8005730:	9c0b      	ldr	r4, [sp, #44]	@ 0x2c
 8005732:	47a0      	blx	r4
 8005734:	3001      	adds	r0, #1
 8005736:	d129      	bne.n	800578c <_printf_float+0x260>
 8005738:	e754      	b.n	80055e4 <_printf_float+0xb8>
 800573a:	9b0c      	ldr	r3, [sp, #48]	@ 0x30
 800573c:	2b65      	cmp	r3, #101	@ 0x65
 800573e:	d800      	bhi.n	8005742 <_printf_float+0x216>
 8005740:	e0db      	b.n	80058fa <_printf_float+0x3ce>
 8005742:	6ca8      	ldr	r0, [r5, #72]	@ 0x48
 8005744:	6ce9      	ldr	r1, [r5, #76]	@ 0x4c
 8005746:	2200      	movs	r2, #0
 8005748:	2300      	movs	r3, #0
 800574a:	f7fa fe7f 	bl	800044c <__aeabi_dcmpeq>
 800574e:	2800      	cmp	r0, #0
 8005750:	d033      	beq.n	80057ba <_printf_float+0x28e>
 8005752:	2301      	movs	r3, #1
 8005754:	4a37      	ldr	r2, [pc, #220]	@ (8005834 <_printf_float+0x308>)
 8005756:	990a      	ldr	r1, [sp, #40]	@ 0x28
 8005758:	9809      	ldr	r0, [sp, #36]	@ 0x24
 800575a:	9c0b      	ldr	r4, [sp, #44]	@ 0x2c
 800575c:	47a0      	blx	r4
 800575e:	3001      	adds	r0, #1
 8005760:	d100      	bne.n	8005764 <_printf_float+0x238>
 8005762:	e73f      	b.n	80055e4 <_printf_float+0xb8>
 8005764:	9e14      	ldr	r6, [sp, #80]	@ 0x50
 8005766:	9b13      	ldr	r3, [sp, #76]	@ 0x4c
 8005768:	42b3      	cmp	r3, r6
 800576a:	db02      	blt.n	8005772 <_printf_float+0x246>
 800576c:	682b      	ldr	r3, [r5, #0]
 800576e:	07db      	lsls	r3, r3, #31
 8005770:	d50c      	bpl.n	800578c <_printf_float+0x260>
 8005772:	9c0b      	ldr	r4, [sp, #44]	@ 0x2c
 8005774:	9b0f      	ldr	r3, [sp, #60]	@ 0x3c
 8005776:	9a0d      	ldr	r2, [sp, #52]	@ 0x34
 8005778:	990a      	ldr	r1, [sp, #40]	@ 0x28
 800577a:	9809      	ldr	r0, [sp, #36]	@ 0x24
 800577c:	47a0      	blx	r4
 800577e:	2400      	movs	r4, #0
 8005780:	3001      	adds	r0, #1
 8005782:	d100      	bne.n	8005786 <_printf_float+0x25a>
 8005784:	e72e      	b.n	80055e4 <_printf_float+0xb8>
 8005786:	1e73      	subs	r3, r6, #1
 8005788:	42a3      	cmp	r3, r4
 800578a:	dc0a      	bgt.n	80057a2 <_printf_float+0x276>
 800578c:	682b      	ldr	r3, [r5, #0]
 800578e:	079b      	lsls	r3, r3, #30
 8005790:	d500      	bpl.n	8005794 <_printf_float+0x268>
 8005792:	e106      	b.n	80059a2 <_printf_float+0x476>
 8005794:	9b15      	ldr	r3, [sp, #84]	@ 0x54
 8005796:	68e8      	ldr	r0, [r5, #12]
 8005798:	4298      	cmp	r0, r3
 800579a:	db00      	blt.n	800579e <_printf_float+0x272>
 800579c:	e724      	b.n	80055e8 <_printf_float+0xbc>
 800579e:	0018      	movs	r0, r3
 80057a0:	e722      	b.n	80055e8 <_printf_float+0xbc>
 80057a2:	002a      	movs	r2, r5
 80057a4:	2301      	movs	r3, #1
 80057a6:	990a      	ldr	r1, [sp, #40]	@ 0x28
 80057a8:	9809      	ldr	r0, [sp, #36]	@ 0x24
 80057aa:	9f0b      	ldr	r7, [sp, #44]	@ 0x2c
 80057ac:	321a      	adds	r2, #26
 80057ae:	47b8      	blx	r7
 80057b0:	3001      	adds	r0, #1
 80057b2:	d100      	bne.n	80057b6 <_printf_float+0x28a>
 80057b4:	e716      	b.n	80055e4 <_printf_float+0xb8>
 80057b6:	3401      	adds	r4, #1
 80057b8:	e7e5      	b.n	8005786 <_printf_float+0x25a>
 80057ba:	9b13      	ldr	r3, [sp, #76]	@ 0x4c
 80057bc:	2b00      	cmp	r3, #0
 80057be:	dc3b      	bgt.n	8005838 <_printf_float+0x30c>
 80057c0:	2301      	movs	r3, #1
 80057c2:	4a1c      	ldr	r2, [pc, #112]	@ (8005834 <_printf_float+0x308>)
 80057c4:	990a      	ldr	r1, [sp, #40]	@ 0x28
 80057c6:	9809      	ldr	r0, [sp, #36]	@ 0x24
 80057c8:	9c0b      	ldr	r4, [sp, #44]	@ 0x2c
 80057ca:	47a0      	blx	r4
 80057cc:	3001      	adds	r0, #1
 80057ce:	d100      	bne.n	80057d2 <_printf_float+0x2a6>
 80057d0:	e708      	b.n	80055e4 <_printf_float+0xb8>
 80057d2:	9e14      	ldr	r6, [sp, #80]	@ 0x50
 80057d4:	9b13      	ldr	r3, [sp, #76]	@ 0x4c
 80057d6:	4333      	orrs	r3, r6
 80057d8:	d102      	bne.n	80057e0 <_printf_float+0x2b4>
 80057da:	682b      	ldr	r3, [r5, #0]
 80057dc:	07db      	lsls	r3, r3, #31
 80057de:	d5d5      	bpl.n	800578c <_printf_float+0x260>
 80057e0:	9b0f      	ldr	r3, [sp, #60]	@ 0x3c
 80057e2:	9a0d      	ldr	r2, [sp, #52]	@ 0x34
 80057e4:	990a      	ldr	r1, [sp, #40]	@ 0x28
 80057e6:	9809      	ldr	r0, [sp, #36]	@ 0x24
 80057e8:	9c0b      	ldr	r4, [sp, #44]	@ 0x2c
 80057ea:	47a0      	blx	r4
 80057ec:	2300      	movs	r3, #0
 80057ee:	3001      	adds	r0, #1
 80057f0:	d100      	bne.n	80057f4 <_printf_float+0x2c8>
 80057f2:	e6f7      	b.n	80055e4 <_printf_float+0xb8>
 80057f4:	930c      	str	r3, [sp, #48]	@ 0x30
 80057f6:	9b13      	ldr	r3, [sp, #76]	@ 0x4c
 80057f8:	9a0c      	ldr	r2, [sp, #48]	@ 0x30
 80057fa:	425b      	negs	r3, r3
 80057fc:	4293      	cmp	r3, r2
 80057fe:	dc01      	bgt.n	8005804 <_printf_float+0x2d8>
 8005800:	0033      	movs	r3, r6
 8005802:	e792      	b.n	800572a <_printf_float+0x1fe>
 8005804:	002a      	movs	r2, r5
 8005806:	2301      	movs	r3, #1
 8005808:	990a      	ldr	r1, [sp, #40]	@ 0x28
 800580a:	9809      	ldr	r0, [sp, #36]	@ 0x24
 800580c:	9c0b      	ldr	r4, [sp, #44]	@ 0x2c
 800580e:	321a      	adds	r2, #26
 8005810:	47a0      	blx	r4
 8005812:	3001      	adds	r0, #1
 8005814:	d100      	bne.n	8005818 <_printf_float+0x2ec>
 8005816:	e6e5      	b.n	80055e4 <_printf_float+0xb8>
 8005818:	9b0c      	ldr	r3, [sp, #48]	@ 0x30
 800581a:	3301      	adds	r3, #1
 800581c:	e7ea      	b.n	80057f4 <_printf_float+0x2c8>
 800581e:	46c0      	nop			@ (mov r8, r8)
 8005820:	7fefffff 	.word	0x7fefffff
 8005824:	08008251 	.word	0x08008251
 8005828:	0800824d 	.word	0x0800824d
 800582c:	08008259 	.word	0x08008259
 8005830:	08008255 	.word	0x08008255
 8005834:	0800825d 	.word	0x0800825d
 8005838:	9b14      	ldr	r3, [sp, #80]	@ 0x50
 800583a:	6dae      	ldr	r6, [r5, #88]	@ 0x58
 800583c:	930c      	str	r3, [sp, #48]	@ 0x30
 800583e:	429e      	cmp	r6, r3
 8005840:	dd00      	ble.n	8005844 <_printf_float+0x318>
 8005842:	001e      	movs	r6, r3
 8005844:	2e00      	cmp	r6, #0
 8005846:	dc31      	bgt.n	80058ac <_printf_float+0x380>
 8005848:	43f3      	mvns	r3, r6
 800584a:	2400      	movs	r4, #0
 800584c:	17db      	asrs	r3, r3, #31
 800584e:	4033      	ands	r3, r6
 8005850:	930e      	str	r3, [sp, #56]	@ 0x38
 8005852:	6dae      	ldr	r6, [r5, #88]	@ 0x58
 8005854:	9b0e      	ldr	r3, [sp, #56]	@ 0x38
 8005856:	1af3      	subs	r3, r6, r3
 8005858:	42a3      	cmp	r3, r4
 800585a:	dc30      	bgt.n	80058be <_printf_float+0x392>
 800585c:	9b13      	ldr	r3, [sp, #76]	@ 0x4c
 800585e:	9a0c      	ldr	r2, [sp, #48]	@ 0x30
 8005860:	429a      	cmp	r2, r3
 8005862:	dc38      	bgt.n	80058d6 <_printf_float+0x3aa>
 8005864:	682b      	ldr	r3, [r5, #0]
 8005866:	07db      	lsls	r3, r3, #31
 8005868:	d435      	bmi.n	80058d6 <_printf_float+0x3aa>
 800586a:	9c13      	ldr	r4, [sp, #76]	@ 0x4c
 800586c:	9b0c      	ldr	r3, [sp, #48]	@ 0x30
 800586e:	9a0c      	ldr	r2, [sp, #48]	@ 0x30
 8005870:	1b9b      	subs	r3, r3, r6
 8005872:	1b14      	subs	r4, r2, r4
 8005874:	429c      	cmp	r4, r3
 8005876:	dd00      	ble.n	800587a <_printf_float+0x34e>
 8005878:	001c      	movs	r4, r3
 800587a:	2c00      	cmp	r4, #0
 800587c:	dc34      	bgt.n	80058e8 <_printf_float+0x3bc>
 800587e:	43e3      	mvns	r3, r4
 8005880:	2600      	movs	r6, #0
 8005882:	17db      	asrs	r3, r3, #31
 8005884:	401c      	ands	r4, r3
 8005886:	9b13      	ldr	r3, [sp, #76]	@ 0x4c
 8005888:	9a0c      	ldr	r2, [sp, #48]	@ 0x30
 800588a:	1ad3      	subs	r3, r2, r3
 800588c:	1b1b      	subs	r3, r3, r4
 800588e:	42b3      	cmp	r3, r6
 8005890:	dc00      	bgt.n	8005894 <_printf_float+0x368>
 8005892:	e77b      	b.n	800578c <_printf_float+0x260>
 8005894:	002a      	movs	r2, r5
 8005896:	2301      	movs	r3, #1
 8005898:	990a      	ldr	r1, [sp, #40]	@ 0x28
 800589a:	9809      	ldr	r0, [sp, #36]	@ 0x24
 800589c:	9f0b      	ldr	r7, [sp, #44]	@ 0x2c
 800589e:	321a      	adds	r2, #26
 80058a0:	47b8      	blx	r7
 80058a2:	3001      	adds	r0, #1
 80058a4:	d100      	bne.n	80058a8 <_printf_float+0x37c>
 80058a6:	e69d      	b.n	80055e4 <_printf_float+0xb8>
 80058a8:	3601      	adds	r6, #1
 80058aa:	e7ec      	b.n	8005886 <_printf_float+0x35a>
 80058ac:	0033      	movs	r3, r6
 80058ae:	003a      	movs	r2, r7
 80058b0:	990a      	ldr	r1, [sp, #40]	@ 0x28
 80058b2:	9809      	ldr	r0, [sp, #36]	@ 0x24
 80058b4:	9c0b      	ldr	r4, [sp, #44]	@ 0x2c
 80058b6:	47a0      	blx	r4
 80058b8:	3001      	adds	r0, #1
 80058ba:	d1c5      	bne.n	8005848 <_printf_float+0x31c>
 80058bc:	e692      	b.n	80055e4 <_printf_float+0xb8>
 80058be:	002a      	movs	r2, r5
 80058c0:	2301      	movs	r3, #1
 80058c2:	990a      	ldr	r1, [sp, #40]	@ 0x28
 80058c4:	9809      	ldr	r0, [sp, #36]	@ 0x24
 80058c6:	9e0b      	ldr	r6, [sp, #44]	@ 0x2c
 80058c8:	321a      	adds	r2, #26
 80058ca:	47b0      	blx	r6
 80058cc:	3001      	adds	r0, #1
 80058ce:	d100      	bne.n	80058d2 <_printf_float+0x3a6>
 80058d0:	e688      	b.n	80055e4 <_printf_float+0xb8>
 80058d2:	3401      	adds	r4, #1
 80058d4:	e7bd      	b.n	8005852 <_printf_float+0x326>
 80058d6:	9b0f      	ldr	r3, [sp, #60]	@ 0x3c
 80058d8:	9a0d      	ldr	r2, [sp, #52]	@ 0x34
 80058da:	990a      	ldr	r1, [sp, #40]	@ 0x28
 80058dc:	9809      	ldr	r0, [sp, #36]	@ 0x24
 80058de:	9c0b      	ldr	r4, [sp, #44]	@ 0x2c
 80058e0:	47a0      	blx	r4
 80058e2:	3001      	adds	r0, #1
 80058e4:	d1c1      	bne.n	800586a <_printf_float+0x33e>
 80058e6:	e67d      	b.n	80055e4 <_printf_float+0xb8>
 80058e8:	19ba      	adds	r2, r7, r6
 80058ea:	0023      	movs	r3, r4
 80058ec:	990a      	ldr	r1, [sp, #40]	@ 0x28
 80058ee:	9809      	ldr	r0, [sp, #36]	@ 0x24
 80058f0:	9e0b      	ldr	r6, [sp, #44]	@ 0x2c
 80058f2:	47b0      	blx	r6
 80058f4:	3001      	adds	r0, #1
 80058f6:	d1c2      	bne.n	800587e <_printf_float+0x352>
 80058f8:	e674      	b.n	80055e4 <_printf_float+0xb8>
 80058fa:	9b14      	ldr	r3, [sp, #80]	@ 0x50
 80058fc:	930c      	str	r3, [sp, #48]	@ 0x30
 80058fe:	2b01      	cmp	r3, #1
 8005900:	dc02      	bgt.n	8005908 <_printf_float+0x3dc>
 8005902:	2301      	movs	r3, #1
 8005904:	421a      	tst	r2, r3
 8005906:	d039      	beq.n	800597c <_printf_float+0x450>
 8005908:	2301      	movs	r3, #1
 800590a:	003a      	movs	r2, r7
 800590c:	990a      	ldr	r1, [sp, #40]	@ 0x28
 800590e:	9809      	ldr	r0, [sp, #36]	@ 0x24
 8005910:	9e0b      	ldr	r6, [sp, #44]	@ 0x2c
 8005912:	47b0      	blx	r6
 8005914:	3001      	adds	r0, #1
 8005916:	d100      	bne.n	800591a <_printf_float+0x3ee>
 8005918:	e664      	b.n	80055e4 <_printf_float+0xb8>
 800591a:	9b0f      	ldr	r3, [sp, #60]	@ 0x3c
 800591c:	9a0d      	ldr	r2, [sp, #52]	@ 0x34
 800591e:	990a      	ldr	r1, [sp, #40]	@ 0x28
 8005920:	9809      	ldr	r0, [sp, #36]	@ 0x24
 8005922:	9e0b      	ldr	r6, [sp, #44]	@ 0x2c
 8005924:	47b0      	blx	r6
 8005926:	3001      	adds	r0, #1
 8005928:	d100      	bne.n	800592c <_printf_float+0x400>
 800592a:	e65b      	b.n	80055e4 <_printf_float+0xb8>
 800592c:	6ca8      	ldr	r0, [r5, #72]	@ 0x48
 800592e:	6ce9      	ldr	r1, [r5, #76]	@ 0x4c
 8005930:	9b0c      	ldr	r3, [sp, #48]	@ 0x30
 8005932:	2200      	movs	r2, #0
 8005934:	3b01      	subs	r3, #1
 8005936:	930c      	str	r3, [sp, #48]	@ 0x30
 8005938:	2300      	movs	r3, #0
 800593a:	f7fa fd87 	bl	800044c <__aeabi_dcmpeq>
 800593e:	2800      	cmp	r0, #0
 8005940:	d11a      	bne.n	8005978 <_printf_float+0x44c>
 8005942:	9b0c      	ldr	r3, [sp, #48]	@ 0x30
 8005944:	1c7a      	adds	r2, r7, #1
 8005946:	990a      	ldr	r1, [sp, #40]	@ 0x28
 8005948:	9809      	ldr	r0, [sp, #36]	@ 0x24
 800594a:	9e0b      	ldr	r6, [sp, #44]	@ 0x2c
 800594c:	47b0      	blx	r6
 800594e:	3001      	adds	r0, #1
 8005950:	d10e      	bne.n	8005970 <_printf_float+0x444>
 8005952:	e647      	b.n	80055e4 <_printf_float+0xb8>
 8005954:	002a      	movs	r2, r5
 8005956:	2301      	movs	r3, #1
 8005958:	990a      	ldr	r1, [sp, #40]	@ 0x28
 800595a:	9809      	ldr	r0, [sp, #36]	@ 0x24
 800595c:	9f0b      	ldr	r7, [sp, #44]	@ 0x2c
 800595e:	321a      	adds	r2, #26
 8005960:	47b8      	blx	r7
 8005962:	3001      	adds	r0, #1
 8005964:	d100      	bne.n	8005968 <_printf_float+0x43c>
 8005966:	e63d      	b.n	80055e4 <_printf_float+0xb8>
 8005968:	3601      	adds	r6, #1
 800596a:	9b0c      	ldr	r3, [sp, #48]	@ 0x30
 800596c:	429e      	cmp	r6, r3
 800596e:	dbf1      	blt.n	8005954 <_printf_float+0x428>
 8005970:	002a      	movs	r2, r5
 8005972:	0023      	movs	r3, r4
 8005974:	3250      	adds	r2, #80	@ 0x50
 8005976:	e6d9      	b.n	800572c <_printf_float+0x200>
 8005978:	2600      	movs	r6, #0
 800597a:	e7f6      	b.n	800596a <_printf_float+0x43e>
 800597c:	003a      	movs	r2, r7
 800597e:	e7e2      	b.n	8005946 <_printf_float+0x41a>
 8005980:	002a      	movs	r2, r5
 8005982:	2301      	movs	r3, #1
 8005984:	990a      	ldr	r1, [sp, #40]	@ 0x28
 8005986:	9809      	ldr	r0, [sp, #36]	@ 0x24
 8005988:	9e0b      	ldr	r6, [sp, #44]	@ 0x2c
 800598a:	3219      	adds	r2, #25
 800598c:	47b0      	blx	r6
 800598e:	3001      	adds	r0, #1
 8005990:	d100      	bne.n	8005994 <_printf_float+0x468>
 8005992:	e627      	b.n	80055e4 <_printf_float+0xb8>
 8005994:	3401      	adds	r4, #1
 8005996:	68eb      	ldr	r3, [r5, #12]
 8005998:	9a15      	ldr	r2, [sp, #84]	@ 0x54
 800599a:	1a9b      	subs	r3, r3, r2
 800599c:	42a3      	cmp	r3, r4
 800599e:	dcef      	bgt.n	8005980 <_printf_float+0x454>
 80059a0:	e6f8      	b.n	8005794 <_printf_float+0x268>
 80059a2:	2400      	movs	r4, #0
 80059a4:	e7f7      	b.n	8005996 <_printf_float+0x46a>
 80059a6:	46c0      	nop			@ (mov r8, r8)

080059a8 <_printf_common>:
 80059a8:	b5f7      	push	{r0, r1, r2, r4, r5, r6, r7, lr}
 80059aa:	0016      	movs	r6, r2
 80059ac:	9301      	str	r3, [sp, #4]
 80059ae:	688a      	ldr	r2, [r1, #8]
 80059b0:	690b      	ldr	r3, [r1, #16]
 80059b2:	000c      	movs	r4, r1
 80059b4:	9000      	str	r0, [sp, #0]
 80059b6:	4293      	cmp	r3, r2
 80059b8:	da00      	bge.n	80059bc <_printf_common+0x14>
 80059ba:	0013      	movs	r3, r2
 80059bc:	0022      	movs	r2, r4
 80059be:	6033      	str	r3, [r6, #0]
 80059c0:	3243      	adds	r2, #67	@ 0x43
 80059c2:	7812      	ldrb	r2, [r2, #0]
 80059c4:	2a00      	cmp	r2, #0
 80059c6:	d001      	beq.n	80059cc <_printf_common+0x24>
 80059c8:	3301      	adds	r3, #1
 80059ca:	6033      	str	r3, [r6, #0]
 80059cc:	6823      	ldr	r3, [r4, #0]
 80059ce:	069b      	lsls	r3, r3, #26
 80059d0:	d502      	bpl.n	80059d8 <_printf_common+0x30>
 80059d2:	6833      	ldr	r3, [r6, #0]
 80059d4:	3302      	adds	r3, #2
 80059d6:	6033      	str	r3, [r6, #0]
 80059d8:	6822      	ldr	r2, [r4, #0]
 80059da:	2306      	movs	r3, #6
 80059dc:	0015      	movs	r5, r2
 80059de:	401d      	ands	r5, r3
 80059e0:	421a      	tst	r2, r3
 80059e2:	d027      	beq.n	8005a34 <_printf_common+0x8c>
 80059e4:	0023      	movs	r3, r4
 80059e6:	3343      	adds	r3, #67	@ 0x43
 80059e8:	781b      	ldrb	r3, [r3, #0]
 80059ea:	1e5a      	subs	r2, r3, #1
 80059ec:	4193      	sbcs	r3, r2
 80059ee:	6822      	ldr	r2, [r4, #0]
 80059f0:	0692      	lsls	r2, r2, #26
 80059f2:	d430      	bmi.n	8005a56 <_printf_common+0xae>
 80059f4:	0022      	movs	r2, r4
 80059f6:	9901      	ldr	r1, [sp, #4]
 80059f8:	9800      	ldr	r0, [sp, #0]
 80059fa:	9d08      	ldr	r5, [sp, #32]
 80059fc:	3243      	adds	r2, #67	@ 0x43
 80059fe:	47a8      	blx	r5
 8005a00:	3001      	adds	r0, #1
 8005a02:	d025      	beq.n	8005a50 <_printf_common+0xa8>
 8005a04:	2206      	movs	r2, #6
 8005a06:	6823      	ldr	r3, [r4, #0]
 8005a08:	2500      	movs	r5, #0
 8005a0a:	4013      	ands	r3, r2
 8005a0c:	2b04      	cmp	r3, #4
 8005a0e:	d105      	bne.n	8005a1c <_printf_common+0x74>
 8005a10:	6833      	ldr	r3, [r6, #0]
 8005a12:	68e5      	ldr	r5, [r4, #12]
 8005a14:	1aed      	subs	r5, r5, r3
 8005a16:	43eb      	mvns	r3, r5
 8005a18:	17db      	asrs	r3, r3, #31
 8005a1a:	401d      	ands	r5, r3
 8005a1c:	68a3      	ldr	r3, [r4, #8]
 8005a1e:	6922      	ldr	r2, [r4, #16]
 8005a20:	4293      	cmp	r3, r2
 8005a22:	dd01      	ble.n	8005a28 <_printf_common+0x80>
 8005a24:	1a9b      	subs	r3, r3, r2
 8005a26:	18ed      	adds	r5, r5, r3
 8005a28:	2600      	movs	r6, #0
 8005a2a:	42b5      	cmp	r5, r6
 8005a2c:	d120      	bne.n	8005a70 <_printf_common+0xc8>
 8005a2e:	2000      	movs	r0, #0
 8005a30:	e010      	b.n	8005a54 <_printf_common+0xac>
 8005a32:	3501      	adds	r5, #1
 8005a34:	68e3      	ldr	r3, [r4, #12]
 8005a36:	6832      	ldr	r2, [r6, #0]
 8005a38:	1a9b      	subs	r3, r3, r2
 8005a3a:	42ab      	cmp	r3, r5
 8005a3c:	ddd2      	ble.n	80059e4 <_printf_common+0x3c>
 8005a3e:	0022      	movs	r2, r4
 8005a40:	2301      	movs	r3, #1
 8005a42:	9901      	ldr	r1, [sp, #4]
 8005a44:	9800      	ldr	r0, [sp, #0]
 8005a46:	9f08      	ldr	r7, [sp, #32]
 8005a48:	3219      	adds	r2, #25
 8005a4a:	47b8      	blx	r7
 8005a4c:	3001      	adds	r0, #1
 8005a4e:	d1f0      	bne.n	8005a32 <_printf_common+0x8a>
 8005a50:	2001      	movs	r0, #1
 8005a52:	4240      	negs	r0, r0
 8005a54:	bdfe      	pop	{r1, r2, r3, r4, r5, r6, r7, pc}
 8005a56:	2030      	movs	r0, #48	@ 0x30
 8005a58:	18e1      	adds	r1, r4, r3
 8005a5a:	3143      	adds	r1, #67	@ 0x43
 8005a5c:	7008      	strb	r0, [r1, #0]
 8005a5e:	0021      	movs	r1, r4
 8005a60:	1c5a      	adds	r2, r3, #1
 8005a62:	3145      	adds	r1, #69	@ 0x45
 8005a64:	7809      	ldrb	r1, [r1, #0]
 8005a66:	18a2      	adds	r2, r4, r2
 8005a68:	3243      	adds	r2, #67	@ 0x43
 8005a6a:	3302      	adds	r3, #2
 8005a6c:	7011      	strb	r1, [r2, #0]
 8005a6e:	e7c1      	b.n	80059f4 <_printf_common+0x4c>
 8005a70:	0022      	movs	r2, r4
 8005a72:	2301      	movs	r3, #1
 8005a74:	9901      	ldr	r1, [sp, #4]
 8005a76:	9800      	ldr	r0, [sp, #0]
 8005a78:	9f08      	ldr	r7, [sp, #32]
 8005a7a:	321a      	adds	r2, #26
 8005a7c:	47b8      	blx	r7
 8005a7e:	3001      	adds	r0, #1
 8005a80:	d0e6      	beq.n	8005a50 <_printf_common+0xa8>
 8005a82:	3601      	adds	r6, #1
 8005a84:	e7d1      	b.n	8005a2a <_printf_common+0x82>
	...

08005a88 <_printf_i>:
 8005a88:	b5f0      	push	{r4, r5, r6, r7, lr}
 8005a8a:	b08b      	sub	sp, #44	@ 0x2c
 8005a8c:	9206      	str	r2, [sp, #24]
 8005a8e:	000a      	movs	r2, r1
 8005a90:	3243      	adds	r2, #67	@ 0x43
 8005a92:	9307      	str	r3, [sp, #28]
 8005a94:	9005      	str	r0, [sp, #20]
 8005a96:	9203      	str	r2, [sp, #12]
 8005a98:	7e0a      	ldrb	r2, [r1, #24]
 8005a9a:	000c      	movs	r4, r1
 8005a9c:	9b10      	ldr	r3, [sp, #64]	@ 0x40
 8005a9e:	2a78      	cmp	r2, #120	@ 0x78
 8005aa0:	d809      	bhi.n	8005ab6 <_printf_i+0x2e>
 8005aa2:	2a62      	cmp	r2, #98	@ 0x62
 8005aa4:	d80b      	bhi.n	8005abe <_printf_i+0x36>
 8005aa6:	2a00      	cmp	r2, #0
 8005aa8:	d100      	bne.n	8005aac <_printf_i+0x24>
 8005aaa:	e0ba      	b.n	8005c22 <_printf_i+0x19a>
 8005aac:	497a      	ldr	r1, [pc, #488]	@ (8005c98 <_printf_i+0x210>)
 8005aae:	9104      	str	r1, [sp, #16]
 8005ab0:	2a58      	cmp	r2, #88	@ 0x58
 8005ab2:	d100      	bne.n	8005ab6 <_printf_i+0x2e>
 8005ab4:	e08e      	b.n	8005bd4 <_printf_i+0x14c>
 8005ab6:	0025      	movs	r5, r4
 8005ab8:	3542      	adds	r5, #66	@ 0x42
 8005aba:	702a      	strb	r2, [r5, #0]
 8005abc:	e022      	b.n	8005b04 <_printf_i+0x7c>
 8005abe:	0010      	movs	r0, r2
 8005ac0:	3863      	subs	r0, #99	@ 0x63
 8005ac2:	2815      	cmp	r0, #21
 8005ac4:	d8f7      	bhi.n	8005ab6 <_printf_i+0x2e>
 8005ac6:	f7fa fb31 	bl	800012c <__gnu_thumb1_case_shi>
 8005aca:	0016      	.short	0x0016
 8005acc:	fff6001f 	.word	0xfff6001f
 8005ad0:	fff6fff6 	.word	0xfff6fff6
 8005ad4:	001ffff6 	.word	0x001ffff6
 8005ad8:	fff6fff6 	.word	0xfff6fff6
 8005adc:	fff6fff6 	.word	0xfff6fff6
 8005ae0:	0036009f 	.word	0x0036009f
 8005ae4:	fff6007e 	.word	0xfff6007e
 8005ae8:	00b0fff6 	.word	0x00b0fff6
 8005aec:	0036fff6 	.word	0x0036fff6
 8005af0:	fff6fff6 	.word	0xfff6fff6
 8005af4:	0082      	.short	0x0082
 8005af6:	0025      	movs	r5, r4
 8005af8:	681a      	ldr	r2, [r3, #0]
 8005afa:	3542      	adds	r5, #66	@ 0x42
 8005afc:	1d11      	adds	r1, r2, #4
 8005afe:	6019      	str	r1, [r3, #0]
 8005b00:	6813      	ldr	r3, [r2, #0]
 8005b02:	702b      	strb	r3, [r5, #0]
 8005b04:	2301      	movs	r3, #1
 8005b06:	e09e      	b.n	8005c46 <_printf_i+0x1be>
 8005b08:	6818      	ldr	r0, [r3, #0]
 8005b0a:	6809      	ldr	r1, [r1, #0]
 8005b0c:	1d02      	adds	r2, r0, #4
 8005b0e:	060d      	lsls	r5, r1, #24
 8005b10:	d50b      	bpl.n	8005b2a <_printf_i+0xa2>
 8005b12:	6806      	ldr	r6, [r0, #0]
 8005b14:	601a      	str	r2, [r3, #0]
 8005b16:	2e00      	cmp	r6, #0
 8005b18:	da03      	bge.n	8005b22 <_printf_i+0x9a>
 8005b1a:	232d      	movs	r3, #45	@ 0x2d
 8005b1c:	9a03      	ldr	r2, [sp, #12]
 8005b1e:	4276      	negs	r6, r6
 8005b20:	7013      	strb	r3, [r2, #0]
 8005b22:	4b5d      	ldr	r3, [pc, #372]	@ (8005c98 <_printf_i+0x210>)
 8005b24:	270a      	movs	r7, #10
 8005b26:	9304      	str	r3, [sp, #16]
 8005b28:	e018      	b.n	8005b5c <_printf_i+0xd4>
 8005b2a:	6806      	ldr	r6, [r0, #0]
 8005b2c:	601a      	str	r2, [r3, #0]
 8005b2e:	0649      	lsls	r1, r1, #25
 8005b30:	d5f1      	bpl.n	8005b16 <_printf_i+0x8e>
 8005b32:	b236      	sxth	r6, r6
 8005b34:	e7ef      	b.n	8005b16 <_printf_i+0x8e>
 8005b36:	6808      	ldr	r0, [r1, #0]
 8005b38:	6819      	ldr	r1, [r3, #0]
 8005b3a:	c940      	ldmia	r1!, {r6}
 8005b3c:	0605      	lsls	r5, r0, #24
 8005b3e:	d402      	bmi.n	8005b46 <_printf_i+0xbe>
 8005b40:	0640      	lsls	r0, r0, #25
 8005b42:	d500      	bpl.n	8005b46 <_printf_i+0xbe>
 8005b44:	b2b6      	uxth	r6, r6
 8005b46:	6019      	str	r1, [r3, #0]
 8005b48:	4b53      	ldr	r3, [pc, #332]	@ (8005c98 <_printf_i+0x210>)
 8005b4a:	270a      	movs	r7, #10
 8005b4c:	9304      	str	r3, [sp, #16]
 8005b4e:	2a6f      	cmp	r2, #111	@ 0x6f
 8005b50:	d100      	bne.n	8005b54 <_printf_i+0xcc>
 8005b52:	3f02      	subs	r7, #2
 8005b54:	0023      	movs	r3, r4
 8005b56:	2200      	movs	r2, #0
 8005b58:	3343      	adds	r3, #67	@ 0x43
 8005b5a:	701a      	strb	r2, [r3, #0]
 8005b5c:	6863      	ldr	r3, [r4, #4]
 8005b5e:	60a3      	str	r3, [r4, #8]
 8005b60:	2b00      	cmp	r3, #0
 8005b62:	db06      	blt.n	8005b72 <_printf_i+0xea>
 8005b64:	2104      	movs	r1, #4
 8005b66:	6822      	ldr	r2, [r4, #0]
 8005b68:	9d03      	ldr	r5, [sp, #12]
 8005b6a:	438a      	bics	r2, r1
 8005b6c:	6022      	str	r2, [r4, #0]
 8005b6e:	4333      	orrs	r3, r6
 8005b70:	d00c      	beq.n	8005b8c <_printf_i+0x104>
 8005b72:	9d03      	ldr	r5, [sp, #12]
 8005b74:	0030      	movs	r0, r6
 8005b76:	0039      	movs	r1, r7
 8005b78:	f7fa fb68 	bl	800024c <__aeabi_uidivmod>
 8005b7c:	9b04      	ldr	r3, [sp, #16]
 8005b7e:	3d01      	subs	r5, #1
 8005b80:	5c5b      	ldrb	r3, [r3, r1]
 8005b82:	702b      	strb	r3, [r5, #0]
 8005b84:	0033      	movs	r3, r6
 8005b86:	0006      	movs	r6, r0
 8005b88:	429f      	cmp	r7, r3
 8005b8a:	d9f3      	bls.n	8005b74 <_printf_i+0xec>
 8005b8c:	2f08      	cmp	r7, #8
 8005b8e:	d109      	bne.n	8005ba4 <_printf_i+0x11c>
 8005b90:	6823      	ldr	r3, [r4, #0]
 8005b92:	07db      	lsls	r3, r3, #31
 8005b94:	d506      	bpl.n	8005ba4 <_printf_i+0x11c>
 8005b96:	6862      	ldr	r2, [r4, #4]
 8005b98:	6923      	ldr	r3, [r4, #16]
 8005b9a:	429a      	cmp	r2, r3
 8005b9c:	dc02      	bgt.n	8005ba4 <_printf_i+0x11c>
 8005b9e:	2330      	movs	r3, #48	@ 0x30
 8005ba0:	3d01      	subs	r5, #1
 8005ba2:	702b      	strb	r3, [r5, #0]
 8005ba4:	9b03      	ldr	r3, [sp, #12]
 8005ba6:	1b5b      	subs	r3, r3, r5
 8005ba8:	6123      	str	r3, [r4, #16]
 8005baa:	9b07      	ldr	r3, [sp, #28]
 8005bac:	0021      	movs	r1, r4
 8005bae:	9300      	str	r3, [sp, #0]
 8005bb0:	9805      	ldr	r0, [sp, #20]
 8005bb2:	9b06      	ldr	r3, [sp, #24]
 8005bb4:	aa09      	add	r2, sp, #36	@ 0x24
 8005bb6:	f7ff fef7 	bl	80059a8 <_printf_common>
 8005bba:	3001      	adds	r0, #1
 8005bbc:	d148      	bne.n	8005c50 <_printf_i+0x1c8>
 8005bbe:	2001      	movs	r0, #1
 8005bc0:	4240      	negs	r0, r0
 8005bc2:	b00b      	add	sp, #44	@ 0x2c
 8005bc4:	bdf0      	pop	{r4, r5, r6, r7, pc}
 8005bc6:	2220      	movs	r2, #32
 8005bc8:	6809      	ldr	r1, [r1, #0]
 8005bca:	430a      	orrs	r2, r1
 8005bcc:	6022      	str	r2, [r4, #0]
 8005bce:	2278      	movs	r2, #120	@ 0x78
 8005bd0:	4932      	ldr	r1, [pc, #200]	@ (8005c9c <_printf_i+0x214>)
 8005bd2:	9104      	str	r1, [sp, #16]
 8005bd4:	0021      	movs	r1, r4
 8005bd6:	3145      	adds	r1, #69	@ 0x45
 8005bd8:	700a      	strb	r2, [r1, #0]
 8005bda:	6819      	ldr	r1, [r3, #0]
 8005bdc:	6822      	ldr	r2, [r4, #0]
 8005bde:	c940      	ldmia	r1!, {r6}
 8005be0:	0610      	lsls	r0, r2, #24
 8005be2:	d402      	bmi.n	8005bea <_printf_i+0x162>
 8005be4:	0650      	lsls	r0, r2, #25
 8005be6:	d500      	bpl.n	8005bea <_printf_i+0x162>
 8005be8:	b2b6      	uxth	r6, r6
 8005bea:	6019      	str	r1, [r3, #0]
 8005bec:	07d3      	lsls	r3, r2, #31
 8005bee:	d502      	bpl.n	8005bf6 <_printf_i+0x16e>
 8005bf0:	2320      	movs	r3, #32
 8005bf2:	4313      	orrs	r3, r2
 8005bf4:	6023      	str	r3, [r4, #0]
 8005bf6:	2e00      	cmp	r6, #0
 8005bf8:	d001      	beq.n	8005bfe <_printf_i+0x176>
 8005bfa:	2710      	movs	r7, #16
 8005bfc:	e7aa      	b.n	8005b54 <_printf_i+0xcc>
 8005bfe:	2220      	movs	r2, #32
 8005c00:	6823      	ldr	r3, [r4, #0]
 8005c02:	4393      	bics	r3, r2
 8005c04:	6023      	str	r3, [r4, #0]
 8005c06:	e7f8      	b.n	8005bfa <_printf_i+0x172>
 8005c08:	681a      	ldr	r2, [r3, #0]
 8005c0a:	680d      	ldr	r5, [r1, #0]
 8005c0c:	1d10      	adds	r0, r2, #4
 8005c0e:	6949      	ldr	r1, [r1, #20]
 8005c10:	6018      	str	r0, [r3, #0]
 8005c12:	6813      	ldr	r3, [r2, #0]
 8005c14:	062e      	lsls	r6, r5, #24
 8005c16:	d501      	bpl.n	8005c1c <_printf_i+0x194>
 8005c18:	6019      	str	r1, [r3, #0]
 8005c1a:	e002      	b.n	8005c22 <_printf_i+0x19a>
 8005c1c:	066d      	lsls	r5, r5, #25
 8005c1e:	d5fb      	bpl.n	8005c18 <_printf_i+0x190>
 8005c20:	8019      	strh	r1, [r3, #0]
 8005c22:	2300      	movs	r3, #0
 8005c24:	9d03      	ldr	r5, [sp, #12]
 8005c26:	6123      	str	r3, [r4, #16]
 8005c28:	e7bf      	b.n	8005baa <_printf_i+0x122>
 8005c2a:	681a      	ldr	r2, [r3, #0]
 8005c2c:	1d11      	adds	r1, r2, #4
 8005c2e:	6019      	str	r1, [r3, #0]
 8005c30:	6815      	ldr	r5, [r2, #0]
 8005c32:	2100      	movs	r1, #0
 8005c34:	0028      	movs	r0, r5
 8005c36:	6862      	ldr	r2, [r4, #4]
 8005c38:	f000 fb8f 	bl	800635a <memchr>
 8005c3c:	2800      	cmp	r0, #0
 8005c3e:	d001      	beq.n	8005c44 <_printf_i+0x1bc>
 8005c40:	1b40      	subs	r0, r0, r5
 8005c42:	6060      	str	r0, [r4, #4]
 8005c44:	6863      	ldr	r3, [r4, #4]
 8005c46:	6123      	str	r3, [r4, #16]
 8005c48:	2300      	movs	r3, #0
 8005c4a:	9a03      	ldr	r2, [sp, #12]
 8005c4c:	7013      	strb	r3, [r2, #0]
 8005c4e:	e7ac      	b.n	8005baa <_printf_i+0x122>
 8005c50:	002a      	movs	r2, r5
 8005c52:	6923      	ldr	r3, [r4, #16]
 8005c54:	9906      	ldr	r1, [sp, #24]
 8005c56:	9805      	ldr	r0, [sp, #20]
 8005c58:	9d07      	ldr	r5, [sp, #28]
 8005c5a:	47a8      	blx	r5
 8005c5c:	3001      	adds	r0, #1
 8005c5e:	d0ae      	beq.n	8005bbe <_printf_i+0x136>
 8005c60:	6823      	ldr	r3, [r4, #0]
 8005c62:	079b      	lsls	r3, r3, #30
 8005c64:	d415      	bmi.n	8005c92 <_printf_i+0x20a>
 8005c66:	9b09      	ldr	r3, [sp, #36]	@ 0x24
 8005c68:	68e0      	ldr	r0, [r4, #12]
 8005c6a:	4298      	cmp	r0, r3
 8005c6c:	daa9      	bge.n	8005bc2 <_printf_i+0x13a>
 8005c6e:	0018      	movs	r0, r3
 8005c70:	e7a7      	b.n	8005bc2 <_printf_i+0x13a>
 8005c72:	0022      	movs	r2, r4
 8005c74:	2301      	movs	r3, #1
 8005c76:	9906      	ldr	r1, [sp, #24]
 8005c78:	9805      	ldr	r0, [sp, #20]
 8005c7a:	9e07      	ldr	r6, [sp, #28]
 8005c7c:	3219      	adds	r2, #25
 8005c7e:	47b0      	blx	r6
 8005c80:	3001      	adds	r0, #1
 8005c82:	d09c      	beq.n	8005bbe <_printf_i+0x136>
 8005c84:	3501      	adds	r5, #1
 8005c86:	68e3      	ldr	r3, [r4, #12]
 8005c88:	9a09      	ldr	r2, [sp, #36]	@ 0x24
 8005c8a:	1a9b      	subs	r3, r3, r2
 8005c8c:	42ab      	cmp	r3, r5
 8005c8e:	dcf0      	bgt.n	8005c72 <_printf_i+0x1ea>
 8005c90:	e7e9      	b.n	8005c66 <_printf_i+0x1de>
 8005c92:	2500      	movs	r5, #0
 8005c94:	e7f7      	b.n	8005c86 <_printf_i+0x1fe>
 8005c96:	46c0      	nop			@ (mov r8, r8)
 8005c98:	0800825f 	.word	0x0800825f
 8005c9c:	08008270 	.word	0x08008270

08005ca0 <std>:
 8005ca0:	2300      	movs	r3, #0
 8005ca2:	b510      	push	{r4, lr}
 8005ca4:	0004      	movs	r4, r0
 8005ca6:	6003      	str	r3, [r0, #0]
 8005ca8:	6043      	str	r3, [r0, #4]
 8005caa:	6083      	str	r3, [r0, #8]
 8005cac:	8181      	strh	r1, [r0, #12]
 8005cae:	6643      	str	r3, [r0, #100]	@ 0x64
 8005cb0:	81c2      	strh	r2, [r0, #14]
 8005cb2:	6103      	str	r3, [r0, #16]
 8005cb4:	6143      	str	r3, [r0, #20]
 8005cb6:	6183      	str	r3, [r0, #24]
 8005cb8:	0019      	movs	r1, r3
 8005cba:	2208      	movs	r2, #8
 8005cbc:	305c      	adds	r0, #92	@ 0x5c
 8005cbe:	f000 fac5 	bl	800624c <memset>
 8005cc2:	4b0b      	ldr	r3, [pc, #44]	@ (8005cf0 <std+0x50>)
 8005cc4:	6224      	str	r4, [r4, #32]
 8005cc6:	6263      	str	r3, [r4, #36]	@ 0x24
 8005cc8:	4b0a      	ldr	r3, [pc, #40]	@ (8005cf4 <std+0x54>)
 8005cca:	62a3      	str	r3, [r4, #40]	@ 0x28
 8005ccc:	4b0a      	ldr	r3, [pc, #40]	@ (8005cf8 <std+0x58>)
 8005cce:	62e3      	str	r3, [r4, #44]	@ 0x2c
 8005cd0:	4b0a      	ldr	r3, [pc, #40]	@ (8005cfc <std+0x5c>)
 8005cd2:	6323      	str	r3, [r4, #48]	@ 0x30
 8005cd4:	4b0a      	ldr	r3, [pc, #40]	@ (8005d00 <std+0x60>)
 8005cd6:	429c      	cmp	r4, r3
 8005cd8:	d005      	beq.n	8005ce6 <std+0x46>
 8005cda:	4b0a      	ldr	r3, [pc, #40]	@ (8005d04 <std+0x64>)
 8005cdc:	429c      	cmp	r4, r3
 8005cde:	d002      	beq.n	8005ce6 <std+0x46>
 8005ce0:	4b09      	ldr	r3, [pc, #36]	@ (8005d08 <std+0x68>)
 8005ce2:	429c      	cmp	r4, r3
 8005ce4:	d103      	bne.n	8005cee <std+0x4e>
 8005ce6:	0020      	movs	r0, r4
 8005ce8:	3058      	adds	r0, #88	@ 0x58
 8005cea:	f000 fb33 	bl	8006354 <__retarget_lock_init_recursive>
 8005cee:	bd10      	pop	{r4, pc}
 8005cf0:	08006075 	.word	0x08006075
 8005cf4:	0800609d 	.word	0x0800609d
 8005cf8:	080060d5 	.word	0x080060d5
 8005cfc:	08006101 	.word	0x08006101
 8005d00:	200002e0 	.word	0x200002e0
 8005d04:	20000348 	.word	0x20000348
 8005d08:	200003b0 	.word	0x200003b0

08005d0c <stdio_exit_handler>:
 8005d0c:	b510      	push	{r4, lr}
 8005d0e:	4a03      	ldr	r2, [pc, #12]	@ (8005d1c <stdio_exit_handler+0x10>)
 8005d10:	4903      	ldr	r1, [pc, #12]	@ (8005d20 <stdio_exit_handler+0x14>)
 8005d12:	4804      	ldr	r0, [pc, #16]	@ (8005d24 <stdio_exit_handler+0x18>)
 8005d14:	f000 f86c 	bl	8005df0 <_fwalk_sglue>
 8005d18:	bd10      	pop	{r4, pc}
 8005d1a:	46c0      	nop			@ (mov r8, r8)
 8005d1c:	2000000c 	.word	0x2000000c
 8005d20:	08007d35 	.word	0x08007d35
 8005d24:	2000001c 	.word	0x2000001c

08005d28 <cleanup_stdio>:
 8005d28:	6841      	ldr	r1, [r0, #4]
 8005d2a:	4b0b      	ldr	r3, [pc, #44]	@ (8005d58 <cleanup_stdio+0x30>)
 8005d2c:	b510      	push	{r4, lr}
 8005d2e:	0004      	movs	r4, r0
 8005d30:	4299      	cmp	r1, r3
 8005d32:	d001      	beq.n	8005d38 <cleanup_stdio+0x10>
 8005d34:	f001 fffe 	bl	8007d34 <_fflush_r>
 8005d38:	68a1      	ldr	r1, [r4, #8]
 8005d3a:	4b08      	ldr	r3, [pc, #32]	@ (8005d5c <cleanup_stdio+0x34>)
 8005d3c:	4299      	cmp	r1, r3
 8005d3e:	d002      	beq.n	8005d46 <cleanup_stdio+0x1e>
 8005d40:	0020      	movs	r0, r4
 8005d42:	f001 fff7 	bl	8007d34 <_fflush_r>
 8005d46:	68e1      	ldr	r1, [r4, #12]
 8005d48:	4b05      	ldr	r3, [pc, #20]	@ (8005d60 <cleanup_stdio+0x38>)
 8005d4a:	4299      	cmp	r1, r3
 8005d4c:	d002      	beq.n	8005d54 <cleanup_stdio+0x2c>
 8005d4e:	0020      	movs	r0, r4
 8005d50:	f001 fff0 	bl	8007d34 <_fflush_r>
 8005d54:	bd10      	pop	{r4, pc}
 8005d56:	46c0      	nop			@ (mov r8, r8)
 8005d58:	200002e0 	.word	0x200002e0
 8005d5c:	20000348 	.word	0x20000348
 8005d60:	200003b0 	.word	0x200003b0

08005d64 <global_stdio_init.part.0>:
 8005d64:	b510      	push	{r4, lr}
 8005d66:	4b09      	ldr	r3, [pc, #36]	@ (8005d8c <global_stdio_init.part.0+0x28>)
 8005d68:	4a09      	ldr	r2, [pc, #36]	@ (8005d90 <global_stdio_init.part.0+0x2c>)
 8005d6a:	2104      	movs	r1, #4
 8005d6c:	601a      	str	r2, [r3, #0]
 8005d6e:	4809      	ldr	r0, [pc, #36]	@ (8005d94 <global_stdio_init.part.0+0x30>)
 8005d70:	2200      	movs	r2, #0
 8005d72:	f7ff ff95 	bl	8005ca0 <std>
 8005d76:	2201      	movs	r2, #1
 8005d78:	2109      	movs	r1, #9
 8005d7a:	4807      	ldr	r0, [pc, #28]	@ (8005d98 <global_stdio_init.part.0+0x34>)
 8005d7c:	f7ff ff90 	bl	8005ca0 <std>
 8005d80:	2202      	movs	r2, #2
 8005d82:	2112      	movs	r1, #18
 8005d84:	4805      	ldr	r0, [pc, #20]	@ (8005d9c <global_stdio_init.part.0+0x38>)
 8005d86:	f7ff ff8b 	bl	8005ca0 <std>
 8005d8a:	bd10      	pop	{r4, pc}
 8005d8c:	20000418 	.word	0x20000418
 8005d90:	08005d0d 	.word	0x08005d0d
 8005d94:	200002e0 	.word	0x200002e0
 8005d98:	20000348 	.word	0x20000348
 8005d9c:	200003b0 	.word	0x200003b0

08005da0 <__sfp_lock_acquire>:
 8005da0:	b510      	push	{r4, lr}
 8005da2:	4802      	ldr	r0, [pc, #8]	@ (8005dac <__sfp_lock_acquire+0xc>)
 8005da4:	f000 fad7 	bl	8006356 <__retarget_lock_acquire_recursive>
 8005da8:	bd10      	pop	{r4, pc}
 8005daa:	46c0      	nop			@ (mov r8, r8)
 8005dac:	20000421 	.word	0x20000421

08005db0 <__sfp_lock_release>:
 8005db0:	b510      	push	{r4, lr}
 8005db2:	4802      	ldr	r0, [pc, #8]	@ (8005dbc <__sfp_lock_release+0xc>)
 8005db4:	f000 fad0 	bl	8006358 <__retarget_lock_release_recursive>
 8005db8:	bd10      	pop	{r4, pc}
 8005dba:	46c0      	nop			@ (mov r8, r8)
 8005dbc:	20000421 	.word	0x20000421

08005dc0 <__sinit>:
 8005dc0:	b510      	push	{r4, lr}
 8005dc2:	0004      	movs	r4, r0
 8005dc4:	f7ff ffec 	bl	8005da0 <__sfp_lock_acquire>
 8005dc8:	6a23      	ldr	r3, [r4, #32]
 8005dca:	2b00      	cmp	r3, #0
 8005dcc:	d002      	beq.n	8005dd4 <__sinit+0x14>
 8005dce:	f7ff ffef 	bl	8005db0 <__sfp_lock_release>
 8005dd2:	bd10      	pop	{r4, pc}
 8005dd4:	4b04      	ldr	r3, [pc, #16]	@ (8005de8 <__sinit+0x28>)
 8005dd6:	6223      	str	r3, [r4, #32]
 8005dd8:	4b04      	ldr	r3, [pc, #16]	@ (8005dec <__sinit+0x2c>)
 8005dda:	681b      	ldr	r3, [r3, #0]
 8005ddc:	2b00      	cmp	r3, #0
 8005dde:	d1f6      	bne.n	8005dce <__sinit+0xe>
 8005de0:	f7ff ffc0 	bl	8005d64 <global_stdio_init.part.0>
 8005de4:	e7f3      	b.n	8005dce <__sinit+0xe>
 8005de6:	46c0      	nop			@ (mov r8, r8)
 8005de8:	08005d29 	.word	0x08005d29
 8005dec:	20000418 	.word	0x20000418

08005df0 <_fwalk_sglue>:
 8005df0:	b5f7      	push	{r0, r1, r2, r4, r5, r6, r7, lr}
 8005df2:	0014      	movs	r4, r2
 8005df4:	2600      	movs	r6, #0
 8005df6:	9000      	str	r0, [sp, #0]
 8005df8:	9101      	str	r1, [sp, #4]
 8005dfa:	68a5      	ldr	r5, [r4, #8]
 8005dfc:	6867      	ldr	r7, [r4, #4]
 8005dfe:	3f01      	subs	r7, #1
 8005e00:	d504      	bpl.n	8005e0c <_fwalk_sglue+0x1c>
 8005e02:	6824      	ldr	r4, [r4, #0]
 8005e04:	2c00      	cmp	r4, #0
 8005e06:	d1f8      	bne.n	8005dfa <_fwalk_sglue+0xa>
 8005e08:	0030      	movs	r0, r6
 8005e0a:	bdfe      	pop	{r1, r2, r3, r4, r5, r6, r7, pc}
 8005e0c:	89ab      	ldrh	r3, [r5, #12]
 8005e0e:	2b01      	cmp	r3, #1
 8005e10:	d908      	bls.n	8005e24 <_fwalk_sglue+0x34>
 8005e12:	220e      	movs	r2, #14
 8005e14:	5eab      	ldrsh	r3, [r5, r2]
 8005e16:	3301      	adds	r3, #1
 8005e18:	d004      	beq.n	8005e24 <_fwalk_sglue+0x34>
 8005e1a:	0029      	movs	r1, r5
 8005e1c:	9800      	ldr	r0, [sp, #0]
 8005e1e:	9b01      	ldr	r3, [sp, #4]
 8005e20:	4798      	blx	r3
 8005e22:	4306      	orrs	r6, r0
 8005e24:	3568      	adds	r5, #104	@ 0x68
 8005e26:	e7ea      	b.n	8005dfe <_fwalk_sglue+0xe>

08005e28 <iprintf>:
 8005e28:	b40f      	push	{r0, r1, r2, r3}
 8005e2a:	b507      	push	{r0, r1, r2, lr}
 8005e2c:	4905      	ldr	r1, [pc, #20]	@ (8005e44 <iprintf+0x1c>)
 8005e2e:	ab04      	add	r3, sp, #16
 8005e30:	6808      	ldr	r0, [r1, #0]
 8005e32:	cb04      	ldmia	r3!, {r2}
 8005e34:	6881      	ldr	r1, [r0, #8]
 8005e36:	9301      	str	r3, [sp, #4]
 8005e38:	f001 fdda 	bl	80079f0 <_vfiprintf_r>
 8005e3c:	b003      	add	sp, #12
 8005e3e:	bc08      	pop	{r3}
 8005e40:	b004      	add	sp, #16
 8005e42:	4718      	bx	r3
 8005e44:	20000018 	.word	0x20000018

08005e48 <_puts_r>:
 8005e48:	6a03      	ldr	r3, [r0, #32]
 8005e4a:	b570      	push	{r4, r5, r6, lr}
 8005e4c:	0005      	movs	r5, r0
 8005e4e:	000e      	movs	r6, r1
 8005e50:	6884      	ldr	r4, [r0, #8]
 8005e52:	2b00      	cmp	r3, #0
 8005e54:	d101      	bne.n	8005e5a <_puts_r+0x12>
 8005e56:	f7ff ffb3 	bl	8005dc0 <__sinit>
 8005e5a:	6e63      	ldr	r3, [r4, #100]	@ 0x64
 8005e5c:	07db      	lsls	r3, r3, #31
 8005e5e:	d405      	bmi.n	8005e6c <_puts_r+0x24>
 8005e60:	89a3      	ldrh	r3, [r4, #12]
 8005e62:	059b      	lsls	r3, r3, #22
 8005e64:	d402      	bmi.n	8005e6c <_puts_r+0x24>
 8005e66:	6da0      	ldr	r0, [r4, #88]	@ 0x58
 8005e68:	f000 fa75 	bl	8006356 <__retarget_lock_acquire_recursive>
 8005e6c:	89a3      	ldrh	r3, [r4, #12]
 8005e6e:	071b      	lsls	r3, r3, #28
 8005e70:	d502      	bpl.n	8005e78 <_puts_r+0x30>
 8005e72:	6923      	ldr	r3, [r4, #16]
 8005e74:	2b00      	cmp	r3, #0
 8005e76:	d11f      	bne.n	8005eb8 <_puts_r+0x70>
 8005e78:	0021      	movs	r1, r4
 8005e7a:	0028      	movs	r0, r5
 8005e7c:	f000 f988 	bl	8006190 <__swsetup_r>
 8005e80:	2800      	cmp	r0, #0
 8005e82:	d019      	beq.n	8005eb8 <_puts_r+0x70>
 8005e84:	2501      	movs	r5, #1
 8005e86:	426d      	negs	r5, r5
 8005e88:	6e63      	ldr	r3, [r4, #100]	@ 0x64
 8005e8a:	07db      	lsls	r3, r3, #31
 8005e8c:	d405      	bmi.n	8005e9a <_puts_r+0x52>
 8005e8e:	89a3      	ldrh	r3, [r4, #12]
 8005e90:	059b      	lsls	r3, r3, #22
 8005e92:	d402      	bmi.n	8005e9a <_puts_r+0x52>
 8005e94:	6da0      	ldr	r0, [r4, #88]	@ 0x58
 8005e96:	f000 fa5f 	bl	8006358 <__retarget_lock_release_recursive>
 8005e9a:	0028      	movs	r0, r5
 8005e9c:	bd70      	pop	{r4, r5, r6, pc}
 8005e9e:	3601      	adds	r6, #1
 8005ea0:	60a3      	str	r3, [r4, #8]
 8005ea2:	2b00      	cmp	r3, #0
 8005ea4:	da04      	bge.n	8005eb0 <_puts_r+0x68>
 8005ea6:	69a2      	ldr	r2, [r4, #24]
 8005ea8:	429a      	cmp	r2, r3
 8005eaa:	dc16      	bgt.n	8005eda <_puts_r+0x92>
 8005eac:	290a      	cmp	r1, #10
 8005eae:	d014      	beq.n	8005eda <_puts_r+0x92>
 8005eb0:	6823      	ldr	r3, [r4, #0]
 8005eb2:	1c5a      	adds	r2, r3, #1
 8005eb4:	6022      	str	r2, [r4, #0]
 8005eb6:	7019      	strb	r1, [r3, #0]
 8005eb8:	68a3      	ldr	r3, [r4, #8]
 8005eba:	7831      	ldrb	r1, [r6, #0]
 8005ebc:	3b01      	subs	r3, #1
 8005ebe:	2900      	cmp	r1, #0
 8005ec0:	d1ed      	bne.n	8005e9e <_puts_r+0x56>
 8005ec2:	60a3      	str	r3, [r4, #8]
 8005ec4:	2b00      	cmp	r3, #0
 8005ec6:	da0f      	bge.n	8005ee8 <_puts_r+0xa0>
 8005ec8:	0022      	movs	r2, r4
 8005eca:	0028      	movs	r0, r5
 8005ecc:	310a      	adds	r1, #10
 8005ece:	f000 f91d 	bl	800610c <__swbuf_r>
 8005ed2:	3001      	adds	r0, #1
 8005ed4:	d0d6      	beq.n	8005e84 <_puts_r+0x3c>
 8005ed6:	250a      	movs	r5, #10
 8005ed8:	e7d6      	b.n	8005e88 <_puts_r+0x40>
 8005eda:	0022      	movs	r2, r4
 8005edc:	0028      	movs	r0, r5
 8005ede:	f000 f915 	bl	800610c <__swbuf_r>
 8005ee2:	3001      	adds	r0, #1
 8005ee4:	d1e8      	bne.n	8005eb8 <_puts_r+0x70>
 8005ee6:	e7cd      	b.n	8005e84 <_puts_r+0x3c>
 8005ee8:	6823      	ldr	r3, [r4, #0]
 8005eea:	1c5a      	adds	r2, r3, #1
 8005eec:	6022      	str	r2, [r4, #0]
 8005eee:	220a      	movs	r2, #10
 8005ef0:	701a      	strb	r2, [r3, #0]
 8005ef2:	e7f0      	b.n	8005ed6 <_puts_r+0x8e>

08005ef4 <puts>:
 8005ef4:	b510      	push	{r4, lr}
 8005ef6:	4b03      	ldr	r3, [pc, #12]	@ (8005f04 <puts+0x10>)
 8005ef8:	0001      	movs	r1, r0
 8005efa:	6818      	ldr	r0, [r3, #0]
 8005efc:	f7ff ffa4 	bl	8005e48 <_puts_r>
 8005f00:	bd10      	pop	{r4, pc}
 8005f02:	46c0      	nop			@ (mov r8, r8)
 8005f04:	20000018 	.word	0x20000018

08005f08 <setvbuf>:
 8005f08:	b5f0      	push	{r4, r5, r6, r7, lr}
 8005f0a:	001d      	movs	r5, r3
 8005f0c:	4b57      	ldr	r3, [pc, #348]	@ (800606c <setvbuf+0x164>)
 8005f0e:	b085      	sub	sp, #20
 8005f10:	681e      	ldr	r6, [r3, #0]
 8005f12:	0004      	movs	r4, r0
 8005f14:	000f      	movs	r7, r1
 8005f16:	9200      	str	r2, [sp, #0]
 8005f18:	2e00      	cmp	r6, #0
 8005f1a:	d005      	beq.n	8005f28 <setvbuf+0x20>
 8005f1c:	6a33      	ldr	r3, [r6, #32]
 8005f1e:	2b00      	cmp	r3, #0
 8005f20:	d102      	bne.n	8005f28 <setvbuf+0x20>
 8005f22:	0030      	movs	r0, r6
 8005f24:	f7ff ff4c 	bl	8005dc0 <__sinit>
 8005f28:	9b00      	ldr	r3, [sp, #0]
 8005f2a:	2b02      	cmp	r3, #2
 8005f2c:	d005      	beq.n	8005f3a <setvbuf+0x32>
 8005f2e:	2b01      	cmp	r3, #1
 8005f30:	d900      	bls.n	8005f34 <setvbuf+0x2c>
 8005f32:	e097      	b.n	8006064 <setvbuf+0x15c>
 8005f34:	2d00      	cmp	r5, #0
 8005f36:	da00      	bge.n	8005f3a <setvbuf+0x32>
 8005f38:	e094      	b.n	8006064 <setvbuf+0x15c>
 8005f3a:	6e63      	ldr	r3, [r4, #100]	@ 0x64
 8005f3c:	07db      	lsls	r3, r3, #31
 8005f3e:	d405      	bmi.n	8005f4c <setvbuf+0x44>
 8005f40:	89a3      	ldrh	r3, [r4, #12]
 8005f42:	059b      	lsls	r3, r3, #22
 8005f44:	d402      	bmi.n	8005f4c <setvbuf+0x44>
 8005f46:	6da0      	ldr	r0, [r4, #88]	@ 0x58
 8005f48:	f000 fa05 	bl	8006356 <__retarget_lock_acquire_recursive>
 8005f4c:	0021      	movs	r1, r4
 8005f4e:	0030      	movs	r0, r6
 8005f50:	f001 fef0 	bl	8007d34 <_fflush_r>
 8005f54:	6b61      	ldr	r1, [r4, #52]	@ 0x34
 8005f56:	2900      	cmp	r1, #0
 8005f58:	d008      	beq.n	8005f6c <setvbuf+0x64>
 8005f5a:	0023      	movs	r3, r4
 8005f5c:	3344      	adds	r3, #68	@ 0x44
 8005f5e:	4299      	cmp	r1, r3
 8005f60:	d002      	beq.n	8005f68 <setvbuf+0x60>
 8005f62:	0030      	movs	r0, r6
 8005f64:	f001 f87a 	bl	800705c <_free_r>
 8005f68:	2300      	movs	r3, #0
 8005f6a:	6363      	str	r3, [r4, #52]	@ 0x34
 8005f6c:	2300      	movs	r3, #0
 8005f6e:	61a3      	str	r3, [r4, #24]
 8005f70:	6063      	str	r3, [r4, #4]
 8005f72:	89a3      	ldrh	r3, [r4, #12]
 8005f74:	061b      	lsls	r3, r3, #24
 8005f76:	d503      	bpl.n	8005f80 <setvbuf+0x78>
 8005f78:	0030      	movs	r0, r6
 8005f7a:	6921      	ldr	r1, [r4, #16]
 8005f7c:	f001 f86e 	bl	800705c <_free_r>
 8005f80:	89a3      	ldrh	r3, [r4, #12]
 8005f82:	4a3b      	ldr	r2, [pc, #236]	@ (8006070 <setvbuf+0x168>)
 8005f84:	4013      	ands	r3, r2
 8005f86:	81a3      	strh	r3, [r4, #12]
 8005f88:	9b00      	ldr	r3, [sp, #0]
 8005f8a:	2b02      	cmp	r3, #2
 8005f8c:	d060      	beq.n	8006050 <setvbuf+0x148>
 8005f8e:	ab03      	add	r3, sp, #12
 8005f90:	0021      	movs	r1, r4
 8005f92:	0030      	movs	r0, r6
 8005f94:	aa02      	add	r2, sp, #8
 8005f96:	f001 fef9 	bl	8007d8c <__swhatbuf_r>
 8005f9a:	89a3      	ldrh	r3, [r4, #12]
 8005f9c:	4303      	orrs	r3, r0
 8005f9e:	81a3      	strh	r3, [r4, #12]
 8005fa0:	2d00      	cmp	r5, #0
 8005fa2:	d124      	bne.n	8005fee <setvbuf+0xe6>
 8005fa4:	9d02      	ldr	r5, [sp, #8]
 8005fa6:	0028      	movs	r0, r5
 8005fa8:	f001 f8a2 	bl	80070f0 <malloc>
 8005fac:	9501      	str	r5, [sp, #4]
 8005fae:	1e07      	subs	r7, r0, #0
 8005fb0:	d148      	bne.n	8006044 <setvbuf+0x13c>
 8005fb2:	9b02      	ldr	r3, [sp, #8]
 8005fb4:	9301      	str	r3, [sp, #4]
 8005fb6:	42ab      	cmp	r3, r5
 8005fb8:	d13f      	bne.n	800603a <setvbuf+0x132>
 8005fba:	2501      	movs	r5, #1
 8005fbc:	426d      	negs	r5, r5
 8005fbe:	220c      	movs	r2, #12
 8005fc0:	5ea3      	ldrsh	r3, [r4, r2]
 8005fc2:	2202      	movs	r2, #2
 8005fc4:	431a      	orrs	r2, r3
 8005fc6:	81a2      	strh	r2, [r4, #12]
 8005fc8:	2200      	movs	r2, #0
 8005fca:	60a2      	str	r2, [r4, #8]
 8005fcc:	0022      	movs	r2, r4
 8005fce:	3247      	adds	r2, #71	@ 0x47
 8005fd0:	6022      	str	r2, [r4, #0]
 8005fd2:	6122      	str	r2, [r4, #16]
 8005fd4:	2201      	movs	r2, #1
 8005fd6:	6e61      	ldr	r1, [r4, #100]	@ 0x64
 8005fd8:	6162      	str	r2, [r4, #20]
 8005fda:	4211      	tst	r1, r2
 8005fdc:	d104      	bne.n	8005fe8 <setvbuf+0xe0>
 8005fde:	059b      	lsls	r3, r3, #22
 8005fe0:	d402      	bmi.n	8005fe8 <setvbuf+0xe0>
 8005fe2:	6da0      	ldr	r0, [r4, #88]	@ 0x58
 8005fe4:	f000 f9b8 	bl	8006358 <__retarget_lock_release_recursive>
 8005fe8:	0028      	movs	r0, r5
 8005fea:	b005      	add	sp, #20
 8005fec:	bdf0      	pop	{r4, r5, r6, r7, pc}
 8005fee:	2f00      	cmp	r7, #0
 8005ff0:	d0d9      	beq.n	8005fa6 <setvbuf+0x9e>
 8005ff2:	6a33      	ldr	r3, [r6, #32]
 8005ff4:	2b00      	cmp	r3, #0
 8005ff6:	d102      	bne.n	8005ffe <setvbuf+0xf6>
 8005ff8:	0030      	movs	r0, r6
 8005ffa:	f7ff fee1 	bl	8005dc0 <__sinit>
 8005ffe:	9b00      	ldr	r3, [sp, #0]
 8006000:	2b01      	cmp	r3, #1
 8006002:	d103      	bne.n	800600c <setvbuf+0x104>
 8006004:	89a3      	ldrh	r3, [r4, #12]
 8006006:	9a00      	ldr	r2, [sp, #0]
 8006008:	431a      	orrs	r2, r3
 800600a:	81a2      	strh	r2, [r4, #12]
 800600c:	220c      	movs	r2, #12
 800600e:	5ea3      	ldrsh	r3, [r4, r2]
 8006010:	2208      	movs	r2, #8
 8006012:	0019      	movs	r1, r3
 8006014:	6027      	str	r7, [r4, #0]
 8006016:	6127      	str	r7, [r4, #16]
 8006018:	6165      	str	r5, [r4, #20]
 800601a:	4011      	ands	r1, r2
 800601c:	4213      	tst	r3, r2
 800601e:	d01b      	beq.n	8006058 <setvbuf+0x150>
 8006020:	07da      	lsls	r2, r3, #31
 8006022:	d517      	bpl.n	8006054 <setvbuf+0x14c>
 8006024:	2200      	movs	r2, #0
 8006026:	426d      	negs	r5, r5
 8006028:	60a2      	str	r2, [r4, #8]
 800602a:	61a5      	str	r5, [r4, #24]
 800602c:	6e62      	ldr	r2, [r4, #100]	@ 0x64
 800602e:	07d2      	lsls	r2, r2, #31
 8006030:	d401      	bmi.n	8006036 <setvbuf+0x12e>
 8006032:	059b      	lsls	r3, r3, #22
 8006034:	d512      	bpl.n	800605c <setvbuf+0x154>
 8006036:	2500      	movs	r5, #0
 8006038:	e7d6      	b.n	8005fe8 <setvbuf+0xe0>
 800603a:	9801      	ldr	r0, [sp, #4]
 800603c:	f001 f858 	bl	80070f0 <malloc>
 8006040:	1e07      	subs	r7, r0, #0
 8006042:	d0ba      	beq.n	8005fba <setvbuf+0xb2>
 8006044:	2380      	movs	r3, #128	@ 0x80
 8006046:	89a2      	ldrh	r2, [r4, #12]
 8006048:	9d01      	ldr	r5, [sp, #4]
 800604a:	4313      	orrs	r3, r2
 800604c:	81a3      	strh	r3, [r4, #12]
 800604e:	e7d0      	b.n	8005ff2 <setvbuf+0xea>
 8006050:	2500      	movs	r5, #0
 8006052:	e7b4      	b.n	8005fbe <setvbuf+0xb6>
 8006054:	60a5      	str	r5, [r4, #8]
 8006056:	e7e9      	b.n	800602c <setvbuf+0x124>
 8006058:	60a1      	str	r1, [r4, #8]
 800605a:	e7e7      	b.n	800602c <setvbuf+0x124>
 800605c:	6da0      	ldr	r0, [r4, #88]	@ 0x58
 800605e:	f000 f97b 	bl	8006358 <__retarget_lock_release_recursive>
 8006062:	e7e8      	b.n	8006036 <setvbuf+0x12e>
 8006064:	2501      	movs	r5, #1
 8006066:	426d      	negs	r5, r5
 8006068:	e7be      	b.n	8005fe8 <setvbuf+0xe0>
 800606a:	46c0      	nop			@ (mov r8, r8)
 800606c:	20000018 	.word	0x20000018
 8006070:	fffff35c 	.word	0xfffff35c

08006074 <__sread>:
 8006074:	b570      	push	{r4, r5, r6, lr}
 8006076:	000c      	movs	r4, r1
 8006078:	250e      	movs	r5, #14
 800607a:	5f49      	ldrsh	r1, [r1, r5]
 800607c:	f000 f918 	bl	80062b0 <_read_r>
 8006080:	2800      	cmp	r0, #0
 8006082:	db03      	blt.n	800608c <__sread+0x18>
 8006084:	6d63      	ldr	r3, [r4, #84]	@ 0x54
 8006086:	181b      	adds	r3, r3, r0
 8006088:	6563      	str	r3, [r4, #84]	@ 0x54
 800608a:	bd70      	pop	{r4, r5, r6, pc}
 800608c:	89a3      	ldrh	r3, [r4, #12]
 800608e:	4a02      	ldr	r2, [pc, #8]	@ (8006098 <__sread+0x24>)
 8006090:	4013      	ands	r3, r2
 8006092:	81a3      	strh	r3, [r4, #12]
 8006094:	e7f9      	b.n	800608a <__sread+0x16>
 8006096:	46c0      	nop			@ (mov r8, r8)
 8006098:	ffffefff 	.word	0xffffefff

0800609c <__swrite>:
 800609c:	b5f8      	push	{r3, r4, r5, r6, r7, lr}
 800609e:	001f      	movs	r7, r3
 80060a0:	898b      	ldrh	r3, [r1, #12]
 80060a2:	0005      	movs	r5, r0
 80060a4:	000c      	movs	r4, r1
 80060a6:	0016      	movs	r6, r2
 80060a8:	05db      	lsls	r3, r3, #23
 80060aa:	d505      	bpl.n	80060b8 <__swrite+0x1c>
 80060ac:	230e      	movs	r3, #14
 80060ae:	5ec9      	ldrsh	r1, [r1, r3]
 80060b0:	2200      	movs	r2, #0
 80060b2:	2302      	movs	r3, #2
 80060b4:	f000 f8e8 	bl	8006288 <_lseek_r>
 80060b8:	89a3      	ldrh	r3, [r4, #12]
 80060ba:	4a05      	ldr	r2, [pc, #20]	@ (80060d0 <__swrite+0x34>)
 80060bc:	0028      	movs	r0, r5
 80060be:	4013      	ands	r3, r2
 80060c0:	81a3      	strh	r3, [r4, #12]
 80060c2:	0032      	movs	r2, r6
 80060c4:	230e      	movs	r3, #14
 80060c6:	5ee1      	ldrsh	r1, [r4, r3]
 80060c8:	003b      	movs	r3, r7
 80060ca:	f000 f905 	bl	80062d8 <_write_r>
 80060ce:	bdf8      	pop	{r3, r4, r5, r6, r7, pc}
 80060d0:	ffffefff 	.word	0xffffefff

080060d4 <__sseek>:
 80060d4:	b570      	push	{r4, r5, r6, lr}
 80060d6:	000c      	movs	r4, r1
 80060d8:	250e      	movs	r5, #14
 80060da:	5f49      	ldrsh	r1, [r1, r5]
 80060dc:	f000 f8d4 	bl	8006288 <_lseek_r>
 80060e0:	89a3      	ldrh	r3, [r4, #12]
 80060e2:	1c42      	adds	r2, r0, #1
 80060e4:	d103      	bne.n	80060ee <__sseek+0x1a>
 80060e6:	4a05      	ldr	r2, [pc, #20]	@ (80060fc <__sseek+0x28>)
 80060e8:	4013      	ands	r3, r2
 80060ea:	81a3      	strh	r3, [r4, #12]
 80060ec:	bd70      	pop	{r4, r5, r6, pc}
 80060ee:	2280      	movs	r2, #128	@ 0x80
 80060f0:	0152      	lsls	r2, r2, #5
 80060f2:	4313      	orrs	r3, r2
 80060f4:	81a3      	strh	r3, [r4, #12]
 80060f6:	6560      	str	r0, [r4, #84]	@ 0x54
 80060f8:	e7f8      	b.n	80060ec <__sseek+0x18>
 80060fa:	46c0      	nop			@ (mov r8, r8)
 80060fc:	ffffefff 	.word	0xffffefff

08006100 <__sclose>:
 8006100:	b510      	push	{r4, lr}
 8006102:	230e      	movs	r3, #14
 8006104:	5ec9      	ldrsh	r1, [r1, r3]
 8006106:	f000 f8ad 	bl	8006264 <_close_r>
 800610a:	bd10      	pop	{r4, pc}

0800610c <__swbuf_r>:
 800610c:	b5f8      	push	{r3, r4, r5, r6, r7, lr}
 800610e:	0006      	movs	r6, r0
 8006110:	000d      	movs	r5, r1
 8006112:	0014      	movs	r4, r2
 8006114:	2800      	cmp	r0, #0
 8006116:	d004      	beq.n	8006122 <__swbuf_r+0x16>
 8006118:	6a03      	ldr	r3, [r0, #32]
 800611a:	2b00      	cmp	r3, #0
 800611c:	d101      	bne.n	8006122 <__swbuf_r+0x16>
 800611e:	f7ff fe4f 	bl	8005dc0 <__sinit>
 8006122:	69a3      	ldr	r3, [r4, #24]
 8006124:	60a3      	str	r3, [r4, #8]
 8006126:	89a3      	ldrh	r3, [r4, #12]
 8006128:	071b      	lsls	r3, r3, #28
 800612a:	d502      	bpl.n	8006132 <__swbuf_r+0x26>
 800612c:	6923      	ldr	r3, [r4, #16]
 800612e:	2b00      	cmp	r3, #0
 8006130:	d109      	bne.n	8006146 <__swbuf_r+0x3a>
 8006132:	0021      	movs	r1, r4
 8006134:	0030      	movs	r0, r6
 8006136:	f000 f82b 	bl	8006190 <__swsetup_r>
 800613a:	2800      	cmp	r0, #0
 800613c:	d003      	beq.n	8006146 <__swbuf_r+0x3a>
 800613e:	2501      	movs	r5, #1
 8006140:	426d      	negs	r5, r5
 8006142:	0028      	movs	r0, r5
 8006144:	bdf8      	pop	{r3, r4, r5, r6, r7, pc}
 8006146:	6923      	ldr	r3, [r4, #16]
 8006148:	6820      	ldr	r0, [r4, #0]
 800614a:	b2ef      	uxtb	r7, r5
 800614c:	1ac0      	subs	r0, r0, r3
 800614e:	6963      	ldr	r3, [r4, #20]
 8006150:	b2ed      	uxtb	r5, r5
 8006152:	4283      	cmp	r3, r0
 8006154:	dc05      	bgt.n	8006162 <__swbuf_r+0x56>
 8006156:	0021      	movs	r1, r4
 8006158:	0030      	movs	r0, r6
 800615a:	f001 fdeb 	bl	8007d34 <_fflush_r>
 800615e:	2800      	cmp	r0, #0
 8006160:	d1ed      	bne.n	800613e <__swbuf_r+0x32>
 8006162:	68a3      	ldr	r3, [r4, #8]
 8006164:	3001      	adds	r0, #1
 8006166:	3b01      	subs	r3, #1
 8006168:	60a3      	str	r3, [r4, #8]
 800616a:	6823      	ldr	r3, [r4, #0]
 800616c:	1c5a      	adds	r2, r3, #1
 800616e:	6022      	str	r2, [r4, #0]
 8006170:	701f      	strb	r7, [r3, #0]
 8006172:	6963      	ldr	r3, [r4, #20]
 8006174:	4283      	cmp	r3, r0
 8006176:	d004      	beq.n	8006182 <__swbuf_r+0x76>
 8006178:	89a3      	ldrh	r3, [r4, #12]
 800617a:	07db      	lsls	r3, r3, #31
 800617c:	d5e1      	bpl.n	8006142 <__swbuf_r+0x36>
 800617e:	2d0a      	cmp	r5, #10
 8006180:	d1df      	bne.n	8006142 <__swbuf_r+0x36>
 8006182:	0021      	movs	r1, r4
 8006184:	0030      	movs	r0, r6
 8006186:	f001 fdd5 	bl	8007d34 <_fflush_r>
 800618a:	2800      	cmp	r0, #0
 800618c:	d0d9      	beq.n	8006142 <__swbuf_r+0x36>
 800618e:	e7d6      	b.n	800613e <__swbuf_r+0x32>

08006190 <__swsetup_r>:
 8006190:	4b2d      	ldr	r3, [pc, #180]	@ (8006248 <__swsetup_r+0xb8>)
 8006192:	b570      	push	{r4, r5, r6, lr}
 8006194:	0005      	movs	r5, r0
 8006196:	6818      	ldr	r0, [r3, #0]
 8006198:	000c      	movs	r4, r1
 800619a:	2800      	cmp	r0, #0
 800619c:	d004      	beq.n	80061a8 <__swsetup_r+0x18>
 800619e:	6a03      	ldr	r3, [r0, #32]
 80061a0:	2b00      	cmp	r3, #0
 80061a2:	d101      	bne.n	80061a8 <__swsetup_r+0x18>
 80061a4:	f7ff fe0c 	bl	8005dc0 <__sinit>
 80061a8:	220c      	movs	r2, #12
 80061aa:	5ea3      	ldrsh	r3, [r4, r2]
 80061ac:	071a      	lsls	r2, r3, #28
 80061ae:	d423      	bmi.n	80061f8 <__swsetup_r+0x68>
 80061b0:	06da      	lsls	r2, r3, #27
 80061b2:	d407      	bmi.n	80061c4 <__swsetup_r+0x34>
 80061b4:	2209      	movs	r2, #9
 80061b6:	602a      	str	r2, [r5, #0]
 80061b8:	2240      	movs	r2, #64	@ 0x40
 80061ba:	2001      	movs	r0, #1
 80061bc:	4313      	orrs	r3, r2
 80061be:	81a3      	strh	r3, [r4, #12]
 80061c0:	4240      	negs	r0, r0
 80061c2:	e03a      	b.n	800623a <__swsetup_r+0xaa>
 80061c4:	075b      	lsls	r3, r3, #29
 80061c6:	d513      	bpl.n	80061f0 <__swsetup_r+0x60>
 80061c8:	6b61      	ldr	r1, [r4, #52]	@ 0x34
 80061ca:	2900      	cmp	r1, #0
 80061cc:	d008      	beq.n	80061e0 <__swsetup_r+0x50>
 80061ce:	0023      	movs	r3, r4
 80061d0:	3344      	adds	r3, #68	@ 0x44
 80061d2:	4299      	cmp	r1, r3
 80061d4:	d002      	beq.n	80061dc <__swsetup_r+0x4c>
 80061d6:	0028      	movs	r0, r5
 80061d8:	f000 ff40 	bl	800705c <_free_r>
 80061dc:	2300      	movs	r3, #0
 80061de:	6363      	str	r3, [r4, #52]	@ 0x34
 80061e0:	2224      	movs	r2, #36	@ 0x24
 80061e2:	89a3      	ldrh	r3, [r4, #12]
 80061e4:	4393      	bics	r3, r2
 80061e6:	81a3      	strh	r3, [r4, #12]
 80061e8:	2300      	movs	r3, #0
 80061ea:	6063      	str	r3, [r4, #4]
 80061ec:	6923      	ldr	r3, [r4, #16]
 80061ee:	6023      	str	r3, [r4, #0]
 80061f0:	2308      	movs	r3, #8
 80061f2:	89a2      	ldrh	r2, [r4, #12]
 80061f4:	4313      	orrs	r3, r2
 80061f6:	81a3      	strh	r3, [r4, #12]
 80061f8:	6923      	ldr	r3, [r4, #16]
 80061fa:	2b00      	cmp	r3, #0
 80061fc:	d10b      	bne.n	8006216 <__swsetup_r+0x86>
 80061fe:	21a0      	movs	r1, #160	@ 0xa0
 8006200:	2280      	movs	r2, #128	@ 0x80
 8006202:	89a3      	ldrh	r3, [r4, #12]
 8006204:	0089      	lsls	r1, r1, #2
 8006206:	0092      	lsls	r2, r2, #2
 8006208:	400b      	ands	r3, r1
 800620a:	4293      	cmp	r3, r2
 800620c:	d003      	beq.n	8006216 <__swsetup_r+0x86>
 800620e:	0021      	movs	r1, r4
 8006210:	0028      	movs	r0, r5
 8006212:	f001 fde5 	bl	8007de0 <__smakebuf_r>
 8006216:	220c      	movs	r2, #12
 8006218:	5ea3      	ldrsh	r3, [r4, r2]
 800621a:	2101      	movs	r1, #1
 800621c:	001a      	movs	r2, r3
 800621e:	400a      	ands	r2, r1
 8006220:	420b      	tst	r3, r1
 8006222:	d00b      	beq.n	800623c <__swsetup_r+0xac>
 8006224:	2200      	movs	r2, #0
 8006226:	60a2      	str	r2, [r4, #8]
 8006228:	6962      	ldr	r2, [r4, #20]
 800622a:	4252      	negs	r2, r2
 800622c:	61a2      	str	r2, [r4, #24]
 800622e:	2000      	movs	r0, #0
 8006230:	6922      	ldr	r2, [r4, #16]
 8006232:	4282      	cmp	r2, r0
 8006234:	d101      	bne.n	800623a <__swsetup_r+0xaa>
 8006236:	061a      	lsls	r2, r3, #24
 8006238:	d4be      	bmi.n	80061b8 <__swsetup_r+0x28>
 800623a:	bd70      	pop	{r4, r5, r6, pc}
 800623c:	0799      	lsls	r1, r3, #30
 800623e:	d400      	bmi.n	8006242 <__swsetup_r+0xb2>
 8006240:	6962      	ldr	r2, [r4, #20]
 8006242:	60a2      	str	r2, [r4, #8]
 8006244:	e7f3      	b.n	800622e <__swsetup_r+0x9e>
 8006246:	46c0      	nop			@ (mov r8, r8)
 8006248:	20000018 	.word	0x20000018

0800624c <memset>:
 800624c:	0003      	movs	r3, r0
 800624e:	1882      	adds	r2, r0, r2
 8006250:	4293      	cmp	r3, r2
 8006252:	d100      	bne.n	8006256 <memset+0xa>
 8006254:	4770      	bx	lr
 8006256:	7019      	strb	r1, [r3, #0]
 8006258:	3301      	adds	r3, #1
 800625a:	e7f9      	b.n	8006250 <memset+0x4>

0800625c <_localeconv_r>:
 800625c:	4800      	ldr	r0, [pc, #0]	@ (8006260 <_localeconv_r+0x4>)
 800625e:	4770      	bx	lr
 8006260:	20000158 	.word	0x20000158

08006264 <_close_r>:
 8006264:	2300      	movs	r3, #0
 8006266:	b570      	push	{r4, r5, r6, lr}
 8006268:	4d06      	ldr	r5, [pc, #24]	@ (8006284 <_close_r+0x20>)
 800626a:	0004      	movs	r4, r0
 800626c:	0008      	movs	r0, r1
 800626e:	602b      	str	r3, [r5, #0]
 8006270:	f7fc ff52 	bl	8003118 <_close>
 8006274:	1c43      	adds	r3, r0, #1
 8006276:	d103      	bne.n	8006280 <_close_r+0x1c>
 8006278:	682b      	ldr	r3, [r5, #0]
 800627a:	2b00      	cmp	r3, #0
 800627c:	d000      	beq.n	8006280 <_close_r+0x1c>
 800627e:	6023      	str	r3, [r4, #0]
 8006280:	bd70      	pop	{r4, r5, r6, pc}
 8006282:	46c0      	nop			@ (mov r8, r8)
 8006284:	2000041c 	.word	0x2000041c

08006288 <_lseek_r>:
 8006288:	b570      	push	{r4, r5, r6, lr}
 800628a:	0004      	movs	r4, r0
 800628c:	0008      	movs	r0, r1
 800628e:	0011      	movs	r1, r2
 8006290:	001a      	movs	r2, r3
 8006292:	2300      	movs	r3, #0
 8006294:	4d05      	ldr	r5, [pc, #20]	@ (80062ac <_lseek_r+0x24>)
 8006296:	602b      	str	r3, [r5, #0]
 8006298:	f7fc ff55 	bl	8003146 <_lseek>
 800629c:	1c43      	adds	r3, r0, #1
 800629e:	d103      	bne.n	80062a8 <_lseek_r+0x20>
 80062a0:	682b      	ldr	r3, [r5, #0]
 80062a2:	2b00      	cmp	r3, #0
 80062a4:	d000      	beq.n	80062a8 <_lseek_r+0x20>
 80062a6:	6023      	str	r3, [r4, #0]
 80062a8:	bd70      	pop	{r4, r5, r6, pc}
 80062aa:	46c0      	nop			@ (mov r8, r8)
 80062ac:	2000041c 	.word	0x2000041c

080062b0 <_read_r>:
 80062b0:	b570      	push	{r4, r5, r6, lr}
 80062b2:	0004      	movs	r4, r0
 80062b4:	0008      	movs	r0, r1
 80062b6:	0011      	movs	r1, r2
 80062b8:	001a      	movs	r2, r3
 80062ba:	2300      	movs	r3, #0
 80062bc:	4d05      	ldr	r5, [pc, #20]	@ (80062d4 <_read_r+0x24>)
 80062be:	602b      	str	r3, [r5, #0]
 80062c0:	f7fc ff52 	bl	8003168 <_read>
 80062c4:	1c43      	adds	r3, r0, #1
 80062c6:	d103      	bne.n	80062d0 <_read_r+0x20>
 80062c8:	682b      	ldr	r3, [r5, #0]
 80062ca:	2b00      	cmp	r3, #0
 80062cc:	d000      	beq.n	80062d0 <_read_r+0x20>
 80062ce:	6023      	str	r3, [r4, #0]
 80062d0:	bd70      	pop	{r4, r5, r6, pc}
 80062d2:	46c0      	nop			@ (mov r8, r8)
 80062d4:	2000041c 	.word	0x2000041c

080062d8 <_write_r>:
 80062d8:	b570      	push	{r4, r5, r6, lr}
 80062da:	0004      	movs	r4, r0
 80062dc:	0008      	movs	r0, r1
 80062de:	0011      	movs	r1, r2
 80062e0:	001a      	movs	r2, r3
 80062e2:	2300      	movs	r3, #0
 80062e4:	4d05      	ldr	r5, [pc, #20]	@ (80062fc <_write_r+0x24>)
 80062e6:	602b      	str	r3, [r5, #0]
 80062e8:	f7fc fee0 	bl	80030ac <_write>
 80062ec:	1c43      	adds	r3, r0, #1
 80062ee:	d103      	bne.n	80062f8 <_write_r+0x20>
 80062f0:	682b      	ldr	r3, [r5, #0]
 80062f2:	2b00      	cmp	r3, #0
 80062f4:	d000      	beq.n	80062f8 <_write_r+0x20>
 80062f6:	6023      	str	r3, [r4, #0]
 80062f8:	bd70      	pop	{r4, r5, r6, pc}
 80062fa:	46c0      	nop			@ (mov r8, r8)
 80062fc:	2000041c 	.word	0x2000041c

08006300 <__errno>:
 8006300:	4b01      	ldr	r3, [pc, #4]	@ (8006308 <__errno+0x8>)
 8006302:	6818      	ldr	r0, [r3, #0]
 8006304:	4770      	bx	lr
 8006306:	46c0      	nop			@ (mov r8, r8)
 8006308:	20000018 	.word	0x20000018

0800630c <__libc_init_array>:
 800630c:	b570      	push	{r4, r5, r6, lr}
 800630e:	2600      	movs	r6, #0
 8006310:	4c0c      	ldr	r4, [pc, #48]	@ (8006344 <__libc_init_array+0x38>)
 8006312:	4d0d      	ldr	r5, [pc, #52]	@ (8006348 <__libc_init_array+0x3c>)
 8006314:	1b64      	subs	r4, r4, r5
 8006316:	10a4      	asrs	r4, r4, #2
 8006318:	42a6      	cmp	r6, r4
 800631a:	d109      	bne.n	8006330 <__libc_init_array+0x24>
 800631c:	2600      	movs	r6, #0
 800631e:	f001 febd 	bl	800809c <_init>
 8006322:	4c0a      	ldr	r4, [pc, #40]	@ (800634c <__libc_init_array+0x40>)
 8006324:	4d0a      	ldr	r5, [pc, #40]	@ (8006350 <__libc_init_array+0x44>)
 8006326:	1b64      	subs	r4, r4, r5
 8006328:	10a4      	asrs	r4, r4, #2
 800632a:	42a6      	cmp	r6, r4
 800632c:	d105      	bne.n	800633a <__libc_init_array+0x2e>
 800632e:	bd70      	pop	{r4, r5, r6, pc}
 8006330:	00b3      	lsls	r3, r6, #2
 8006332:	58eb      	ldr	r3, [r5, r3]
 8006334:	4798      	blx	r3
 8006336:	3601      	adds	r6, #1
 8006338:	e7ee      	b.n	8006318 <__libc_init_array+0xc>
 800633a:	00b3      	lsls	r3, r6, #2
 800633c:	58eb      	ldr	r3, [r5, r3]
 800633e:	4798      	blx	r3
 8006340:	3601      	adds	r6, #1
 8006342:	e7f2      	b.n	800632a <__libc_init_array+0x1e>
 8006344:	080085c4 	.word	0x080085c4
 8006348:	080085c4 	.word	0x080085c4
 800634c:	080085c8 	.word	0x080085c8
 8006350:	080085c4 	.word	0x080085c4

08006354 <__retarget_lock_init_recursive>:
 8006354:	4770      	bx	lr

08006356 <__retarget_lock_acquire_recursive>:
 8006356:	4770      	bx	lr

08006358 <__retarget_lock_release_recursive>:
 8006358:	4770      	bx	lr

0800635a <memchr>:
 800635a:	b2c9      	uxtb	r1, r1
 800635c:	1882      	adds	r2, r0, r2
 800635e:	4290      	cmp	r0, r2
 8006360:	d101      	bne.n	8006366 <memchr+0xc>
 8006362:	2000      	movs	r0, #0
 8006364:	4770      	bx	lr
 8006366:	7803      	ldrb	r3, [r0, #0]
 8006368:	428b      	cmp	r3, r1
 800636a:	d0fb      	beq.n	8006364 <memchr+0xa>
 800636c:	3001      	adds	r0, #1
 800636e:	e7f6      	b.n	800635e <memchr+0x4>

08006370 <quorem>:
 8006370:	b5f0      	push	{r4, r5, r6, r7, lr}
 8006372:	6903      	ldr	r3, [r0, #16]
 8006374:	690c      	ldr	r4, [r1, #16]
 8006376:	b089      	sub	sp, #36	@ 0x24
 8006378:	9003      	str	r0, [sp, #12]
 800637a:	9106      	str	r1, [sp, #24]
 800637c:	2000      	movs	r0, #0
 800637e:	42a3      	cmp	r3, r4
 8006380:	db63      	blt.n	800644a <quorem+0xda>
 8006382:	000b      	movs	r3, r1
 8006384:	3c01      	subs	r4, #1
 8006386:	3314      	adds	r3, #20
 8006388:	00a5      	lsls	r5, r4, #2
 800638a:	9304      	str	r3, [sp, #16]
 800638c:	195b      	adds	r3, r3, r5
 800638e:	9305      	str	r3, [sp, #20]
 8006390:	9b03      	ldr	r3, [sp, #12]
 8006392:	3314      	adds	r3, #20
 8006394:	9301      	str	r3, [sp, #4]
 8006396:	195d      	adds	r5, r3, r5
 8006398:	9b05      	ldr	r3, [sp, #20]
 800639a:	682f      	ldr	r7, [r5, #0]
 800639c:	681e      	ldr	r6, [r3, #0]
 800639e:	0038      	movs	r0, r7
 80063a0:	3601      	adds	r6, #1
 80063a2:	0031      	movs	r1, r6
 80063a4:	f7f9 fecc 	bl	8000140 <__udivsi3>
 80063a8:	9002      	str	r0, [sp, #8]
 80063aa:	42b7      	cmp	r7, r6
 80063ac:	d327      	bcc.n	80063fe <quorem+0x8e>
 80063ae:	9b04      	ldr	r3, [sp, #16]
 80063b0:	2700      	movs	r7, #0
 80063b2:	469c      	mov	ip, r3
 80063b4:	9e01      	ldr	r6, [sp, #4]
 80063b6:	9707      	str	r7, [sp, #28]
 80063b8:	4662      	mov	r2, ip
 80063ba:	ca08      	ldmia	r2!, {r3}
 80063bc:	6830      	ldr	r0, [r6, #0]
 80063be:	4694      	mov	ip, r2
 80063c0:	9a02      	ldr	r2, [sp, #8]
 80063c2:	b299      	uxth	r1, r3
 80063c4:	4351      	muls	r1, r2
 80063c6:	0c1b      	lsrs	r3, r3, #16
 80063c8:	4353      	muls	r3, r2
 80063ca:	19c9      	adds	r1, r1, r7
 80063cc:	0c0a      	lsrs	r2, r1, #16
 80063ce:	189b      	adds	r3, r3, r2
 80063d0:	b289      	uxth	r1, r1
 80063d2:	b282      	uxth	r2, r0
 80063d4:	1a52      	subs	r2, r2, r1
 80063d6:	9907      	ldr	r1, [sp, #28]
 80063d8:	0c1f      	lsrs	r7, r3, #16
 80063da:	1852      	adds	r2, r2, r1
 80063dc:	0c00      	lsrs	r0, r0, #16
 80063de:	b29b      	uxth	r3, r3
 80063e0:	1411      	asrs	r1, r2, #16
 80063e2:	1ac3      	subs	r3, r0, r3
 80063e4:	185b      	adds	r3, r3, r1
 80063e6:	1419      	asrs	r1, r3, #16
 80063e8:	b292      	uxth	r2, r2
 80063ea:	041b      	lsls	r3, r3, #16
 80063ec:	431a      	orrs	r2, r3
 80063ee:	9b05      	ldr	r3, [sp, #20]
 80063f0:	9107      	str	r1, [sp, #28]
 80063f2:	c604      	stmia	r6!, {r2}
 80063f4:	4563      	cmp	r3, ip
 80063f6:	d2df      	bcs.n	80063b8 <quorem+0x48>
 80063f8:	682b      	ldr	r3, [r5, #0]
 80063fa:	2b00      	cmp	r3, #0
 80063fc:	d02b      	beq.n	8006456 <quorem+0xe6>
 80063fe:	9906      	ldr	r1, [sp, #24]
 8006400:	9803      	ldr	r0, [sp, #12]
 8006402:	f001 f9b7 	bl	8007774 <__mcmp>
 8006406:	2800      	cmp	r0, #0
 8006408:	db1e      	blt.n	8006448 <quorem+0xd8>
 800640a:	2600      	movs	r6, #0
 800640c:	9d01      	ldr	r5, [sp, #4]
 800640e:	9904      	ldr	r1, [sp, #16]
 8006410:	c901      	ldmia	r1!, {r0}
 8006412:	682b      	ldr	r3, [r5, #0]
 8006414:	b287      	uxth	r7, r0
 8006416:	b29a      	uxth	r2, r3
 8006418:	1bd2      	subs	r2, r2, r7
 800641a:	1992      	adds	r2, r2, r6
 800641c:	0c00      	lsrs	r0, r0, #16
 800641e:	0c1b      	lsrs	r3, r3, #16
 8006420:	1a1b      	subs	r3, r3, r0
 8006422:	1410      	asrs	r0, r2, #16
 8006424:	181b      	adds	r3, r3, r0
 8006426:	141e      	asrs	r6, r3, #16
 8006428:	b292      	uxth	r2, r2
 800642a:	041b      	lsls	r3, r3, #16
 800642c:	431a      	orrs	r2, r3
 800642e:	9b05      	ldr	r3, [sp, #20]
 8006430:	c504      	stmia	r5!, {r2}
 8006432:	428b      	cmp	r3, r1
 8006434:	d2ec      	bcs.n	8006410 <quorem+0xa0>
 8006436:	9a01      	ldr	r2, [sp, #4]
 8006438:	00a3      	lsls	r3, r4, #2
 800643a:	18d3      	adds	r3, r2, r3
 800643c:	681a      	ldr	r2, [r3, #0]
 800643e:	2a00      	cmp	r2, #0
 8006440:	d014      	beq.n	800646c <quorem+0xfc>
 8006442:	9b02      	ldr	r3, [sp, #8]
 8006444:	3301      	adds	r3, #1
 8006446:	9302      	str	r3, [sp, #8]
 8006448:	9802      	ldr	r0, [sp, #8]
 800644a:	b009      	add	sp, #36	@ 0x24
 800644c:	bdf0      	pop	{r4, r5, r6, r7, pc}
 800644e:	682b      	ldr	r3, [r5, #0]
 8006450:	2b00      	cmp	r3, #0
 8006452:	d104      	bne.n	800645e <quorem+0xee>
 8006454:	3c01      	subs	r4, #1
 8006456:	9b01      	ldr	r3, [sp, #4]
 8006458:	3d04      	subs	r5, #4
 800645a:	42ab      	cmp	r3, r5
 800645c:	d3f7      	bcc.n	800644e <quorem+0xde>
 800645e:	9b03      	ldr	r3, [sp, #12]
 8006460:	611c      	str	r4, [r3, #16]
 8006462:	e7cc      	b.n	80063fe <quorem+0x8e>
 8006464:	681a      	ldr	r2, [r3, #0]
 8006466:	2a00      	cmp	r2, #0
 8006468:	d104      	bne.n	8006474 <quorem+0x104>
 800646a:	3c01      	subs	r4, #1
 800646c:	9a01      	ldr	r2, [sp, #4]
 800646e:	3b04      	subs	r3, #4
 8006470:	429a      	cmp	r2, r3
 8006472:	d3f7      	bcc.n	8006464 <quorem+0xf4>
 8006474:	9b03      	ldr	r3, [sp, #12]
 8006476:	611c      	str	r4, [r3, #16]
 8006478:	e7e3      	b.n	8006442 <quorem+0xd2>
	...

0800647c <_dtoa_r>:
 800647c:	b5f0      	push	{r4, r5, r6, r7, lr}
 800647e:	0014      	movs	r4, r2
 8006480:	001d      	movs	r5, r3
 8006482:	69c6      	ldr	r6, [r0, #28]
 8006484:	b09d      	sub	sp, #116	@ 0x74
 8006486:	940a      	str	r4, [sp, #40]	@ 0x28
 8006488:	950b      	str	r5, [sp, #44]	@ 0x2c
 800648a:	9f25      	ldr	r7, [sp, #148]	@ 0x94
 800648c:	9003      	str	r0, [sp, #12]
 800648e:	2e00      	cmp	r6, #0
 8006490:	d10f      	bne.n	80064b2 <_dtoa_r+0x36>
 8006492:	2010      	movs	r0, #16
 8006494:	f000 fe2c 	bl	80070f0 <malloc>
 8006498:	9b03      	ldr	r3, [sp, #12]
 800649a:	1e02      	subs	r2, r0, #0
 800649c:	61d8      	str	r0, [r3, #28]
 800649e:	d104      	bne.n	80064aa <_dtoa_r+0x2e>
 80064a0:	21ef      	movs	r1, #239	@ 0xef
 80064a2:	4bc7      	ldr	r3, [pc, #796]	@ (80067c0 <_dtoa_r+0x344>)
 80064a4:	48c7      	ldr	r0, [pc, #796]	@ (80067c4 <_dtoa_r+0x348>)
 80064a6:	f001 fd1d 	bl	8007ee4 <__assert_func>
 80064aa:	6046      	str	r6, [r0, #4]
 80064ac:	6086      	str	r6, [r0, #8]
 80064ae:	6006      	str	r6, [r0, #0]
 80064b0:	60c6      	str	r6, [r0, #12]
 80064b2:	9b03      	ldr	r3, [sp, #12]
 80064b4:	69db      	ldr	r3, [r3, #28]
 80064b6:	6819      	ldr	r1, [r3, #0]
 80064b8:	2900      	cmp	r1, #0
 80064ba:	d00b      	beq.n	80064d4 <_dtoa_r+0x58>
 80064bc:	685a      	ldr	r2, [r3, #4]
 80064be:	2301      	movs	r3, #1
 80064c0:	4093      	lsls	r3, r2
 80064c2:	604a      	str	r2, [r1, #4]
 80064c4:	608b      	str	r3, [r1, #8]
 80064c6:	9803      	ldr	r0, [sp, #12]
 80064c8:	f000 ff12 	bl	80072f0 <_Bfree>
 80064cc:	2200      	movs	r2, #0
 80064ce:	9b03      	ldr	r3, [sp, #12]
 80064d0:	69db      	ldr	r3, [r3, #28]
 80064d2:	601a      	str	r2, [r3, #0]
 80064d4:	2d00      	cmp	r5, #0
 80064d6:	da1e      	bge.n	8006516 <_dtoa_r+0x9a>
 80064d8:	2301      	movs	r3, #1
 80064da:	603b      	str	r3, [r7, #0]
 80064dc:	006b      	lsls	r3, r5, #1
 80064de:	085b      	lsrs	r3, r3, #1
 80064e0:	930b      	str	r3, [sp, #44]	@ 0x2c
 80064e2:	9f0b      	ldr	r7, [sp, #44]	@ 0x2c
 80064e4:	4bb8      	ldr	r3, [pc, #736]	@ (80067c8 <_dtoa_r+0x34c>)
 80064e6:	4ab8      	ldr	r2, [pc, #736]	@ (80067c8 <_dtoa_r+0x34c>)
 80064e8:	403b      	ands	r3, r7
 80064ea:	4293      	cmp	r3, r2
 80064ec:	d116      	bne.n	800651c <_dtoa_r+0xa0>
 80064ee:	4bb7      	ldr	r3, [pc, #732]	@ (80067cc <_dtoa_r+0x350>)
 80064f0:	9a24      	ldr	r2, [sp, #144]	@ 0x90
 80064f2:	6013      	str	r3, [r2, #0]
 80064f4:	033b      	lsls	r3, r7, #12
 80064f6:	0b1b      	lsrs	r3, r3, #12
 80064f8:	4323      	orrs	r3, r4
 80064fa:	d101      	bne.n	8006500 <_dtoa_r+0x84>
 80064fc:	f000 fd80 	bl	8007000 <_dtoa_r+0xb84>
 8006500:	4bb3      	ldr	r3, [pc, #716]	@ (80067d0 <_dtoa_r+0x354>)
 8006502:	9a26      	ldr	r2, [sp, #152]	@ 0x98
 8006504:	9308      	str	r3, [sp, #32]
 8006506:	2a00      	cmp	r2, #0
 8006508:	d002      	beq.n	8006510 <_dtoa_r+0x94>
 800650a:	4bb2      	ldr	r3, [pc, #712]	@ (80067d4 <_dtoa_r+0x358>)
 800650c:	9a26      	ldr	r2, [sp, #152]	@ 0x98
 800650e:	6013      	str	r3, [r2, #0]
 8006510:	9808      	ldr	r0, [sp, #32]
 8006512:	b01d      	add	sp, #116	@ 0x74
 8006514:	bdf0      	pop	{r4, r5, r6, r7, pc}
 8006516:	2300      	movs	r3, #0
 8006518:	603b      	str	r3, [r7, #0]
 800651a:	e7e2      	b.n	80064e2 <_dtoa_r+0x66>
 800651c:	9a0a      	ldr	r2, [sp, #40]	@ 0x28
 800651e:	9b0b      	ldr	r3, [sp, #44]	@ 0x2c
 8006520:	9212      	str	r2, [sp, #72]	@ 0x48
 8006522:	9313      	str	r3, [sp, #76]	@ 0x4c
 8006524:	9812      	ldr	r0, [sp, #72]	@ 0x48
 8006526:	9913      	ldr	r1, [sp, #76]	@ 0x4c
 8006528:	2200      	movs	r2, #0
 800652a:	2300      	movs	r3, #0
 800652c:	f7f9 ff8e 	bl	800044c <__aeabi_dcmpeq>
 8006530:	1e06      	subs	r6, r0, #0
 8006532:	d00b      	beq.n	800654c <_dtoa_r+0xd0>
 8006534:	2301      	movs	r3, #1
 8006536:	9a24      	ldr	r2, [sp, #144]	@ 0x90
 8006538:	6013      	str	r3, [r2, #0]
 800653a:	9b26      	ldr	r3, [sp, #152]	@ 0x98
 800653c:	2b00      	cmp	r3, #0
 800653e:	d002      	beq.n	8006546 <_dtoa_r+0xca>
 8006540:	4ba5      	ldr	r3, [pc, #660]	@ (80067d8 <_dtoa_r+0x35c>)
 8006542:	9a26      	ldr	r2, [sp, #152]	@ 0x98
 8006544:	6013      	str	r3, [r2, #0]
 8006546:	4ba5      	ldr	r3, [pc, #660]	@ (80067dc <_dtoa_r+0x360>)
 8006548:	9308      	str	r3, [sp, #32]
 800654a:	e7e1      	b.n	8006510 <_dtoa_r+0x94>
 800654c:	ab1a      	add	r3, sp, #104	@ 0x68
 800654e:	9301      	str	r3, [sp, #4]
 8006550:	ab1b      	add	r3, sp, #108	@ 0x6c
 8006552:	9300      	str	r3, [sp, #0]
 8006554:	9803      	ldr	r0, [sp, #12]
 8006556:	9a12      	ldr	r2, [sp, #72]	@ 0x48
 8006558:	9b13      	ldr	r3, [sp, #76]	@ 0x4c
 800655a:	f001 f9c1 	bl	80078e0 <__d2b>
 800655e:	007a      	lsls	r2, r7, #1
 8006560:	9005      	str	r0, [sp, #20]
 8006562:	0d52      	lsrs	r2, r2, #21
 8006564:	d100      	bne.n	8006568 <_dtoa_r+0xec>
 8006566:	e07b      	b.n	8006660 <_dtoa_r+0x1e4>
 8006568:	9b13      	ldr	r3, [sp, #76]	@ 0x4c
 800656a:	9618      	str	r6, [sp, #96]	@ 0x60
 800656c:	0319      	lsls	r1, r3, #12
 800656e:	4b9c      	ldr	r3, [pc, #624]	@ (80067e0 <_dtoa_r+0x364>)
 8006570:	0b09      	lsrs	r1, r1, #12
 8006572:	430b      	orrs	r3, r1
 8006574:	499b      	ldr	r1, [pc, #620]	@ (80067e4 <_dtoa_r+0x368>)
 8006576:	1857      	adds	r7, r2, r1
 8006578:	9812      	ldr	r0, [sp, #72]	@ 0x48
 800657a:	9913      	ldr	r1, [sp, #76]	@ 0x4c
 800657c:	0019      	movs	r1, r3
 800657e:	2200      	movs	r2, #0
 8006580:	4b99      	ldr	r3, [pc, #612]	@ (80067e8 <_dtoa_r+0x36c>)
 8006582:	f7fb fd2d 	bl	8001fe0 <__aeabi_dsub>
 8006586:	4a99      	ldr	r2, [pc, #612]	@ (80067ec <_dtoa_r+0x370>)
 8006588:	4b99      	ldr	r3, [pc, #612]	@ (80067f0 <_dtoa_r+0x374>)
 800658a:	f7fb fa43 	bl	8001a14 <__aeabi_dmul>
 800658e:	4a99      	ldr	r2, [pc, #612]	@ (80067f4 <_dtoa_r+0x378>)
 8006590:	4b99      	ldr	r3, [pc, #612]	@ (80067f8 <_dtoa_r+0x37c>)
 8006592:	f7fa fa3f 	bl	8000a14 <__aeabi_dadd>
 8006596:	0004      	movs	r4, r0
 8006598:	0038      	movs	r0, r7
 800659a:	000d      	movs	r5, r1
 800659c:	f7fc f988 	bl	80028b0 <__aeabi_i2d>
 80065a0:	4a96      	ldr	r2, [pc, #600]	@ (80067fc <_dtoa_r+0x380>)
 80065a2:	4b97      	ldr	r3, [pc, #604]	@ (8006800 <_dtoa_r+0x384>)
 80065a4:	f7fb fa36 	bl	8001a14 <__aeabi_dmul>
 80065a8:	0002      	movs	r2, r0
 80065aa:	000b      	movs	r3, r1
 80065ac:	0020      	movs	r0, r4
 80065ae:	0029      	movs	r1, r5
 80065b0:	f7fa fa30 	bl	8000a14 <__aeabi_dadd>
 80065b4:	0004      	movs	r4, r0
 80065b6:	000d      	movs	r5, r1
 80065b8:	f7fc f93e 	bl	8002838 <__aeabi_d2iz>
 80065bc:	2200      	movs	r2, #0
 80065be:	9004      	str	r0, [sp, #16]
 80065c0:	2300      	movs	r3, #0
 80065c2:	0020      	movs	r0, r4
 80065c4:	0029      	movs	r1, r5
 80065c6:	f7f9 ff47 	bl	8000458 <__aeabi_dcmplt>
 80065ca:	2800      	cmp	r0, #0
 80065cc:	d00b      	beq.n	80065e6 <_dtoa_r+0x16a>
 80065ce:	9804      	ldr	r0, [sp, #16]
 80065d0:	f7fc f96e 	bl	80028b0 <__aeabi_i2d>
 80065d4:	002b      	movs	r3, r5
 80065d6:	0022      	movs	r2, r4
 80065d8:	f7f9 ff38 	bl	800044c <__aeabi_dcmpeq>
 80065dc:	4243      	negs	r3, r0
 80065de:	4158      	adcs	r0, r3
 80065e0:	9b04      	ldr	r3, [sp, #16]
 80065e2:	1a1b      	subs	r3, r3, r0
 80065e4:	9304      	str	r3, [sp, #16]
 80065e6:	2301      	movs	r3, #1
 80065e8:	9315      	str	r3, [sp, #84]	@ 0x54
 80065ea:	9b04      	ldr	r3, [sp, #16]
 80065ec:	2b16      	cmp	r3, #22
 80065ee:	d810      	bhi.n	8006612 <_dtoa_r+0x196>
 80065f0:	9812      	ldr	r0, [sp, #72]	@ 0x48
 80065f2:	9913      	ldr	r1, [sp, #76]	@ 0x4c
 80065f4:	9a04      	ldr	r2, [sp, #16]
 80065f6:	4b83      	ldr	r3, [pc, #524]	@ (8006804 <_dtoa_r+0x388>)
 80065f8:	00d2      	lsls	r2, r2, #3
 80065fa:	189b      	adds	r3, r3, r2
 80065fc:	681a      	ldr	r2, [r3, #0]
 80065fe:	685b      	ldr	r3, [r3, #4]
 8006600:	f7f9 ff2a 	bl	8000458 <__aeabi_dcmplt>
 8006604:	2800      	cmp	r0, #0
 8006606:	d047      	beq.n	8006698 <_dtoa_r+0x21c>
 8006608:	9b04      	ldr	r3, [sp, #16]
 800660a:	3b01      	subs	r3, #1
 800660c:	9304      	str	r3, [sp, #16]
 800660e:	2300      	movs	r3, #0
 8006610:	9315      	str	r3, [sp, #84]	@ 0x54
 8006612:	2200      	movs	r2, #0
 8006614:	9b1a      	ldr	r3, [sp, #104]	@ 0x68
 8006616:	9206      	str	r2, [sp, #24]
 8006618:	1bdb      	subs	r3, r3, r7
 800661a:	1e5a      	subs	r2, r3, #1
 800661c:	d53e      	bpl.n	800669c <_dtoa_r+0x220>
 800661e:	2201      	movs	r2, #1
 8006620:	1ad3      	subs	r3, r2, r3
 8006622:	9306      	str	r3, [sp, #24]
 8006624:	2300      	movs	r3, #0
 8006626:	930d      	str	r3, [sp, #52]	@ 0x34
 8006628:	9b04      	ldr	r3, [sp, #16]
 800662a:	2b00      	cmp	r3, #0
 800662c:	db38      	blt.n	80066a0 <_dtoa_r+0x224>
 800662e:	9a04      	ldr	r2, [sp, #16]
 8006630:	9b0d      	ldr	r3, [sp, #52]	@ 0x34
 8006632:	4694      	mov	ip, r2
 8006634:	4463      	add	r3, ip
 8006636:	930d      	str	r3, [sp, #52]	@ 0x34
 8006638:	2300      	movs	r3, #0
 800663a:	9214      	str	r2, [sp, #80]	@ 0x50
 800663c:	930f      	str	r3, [sp, #60]	@ 0x3c
 800663e:	9b22      	ldr	r3, [sp, #136]	@ 0x88
 8006640:	2401      	movs	r4, #1
 8006642:	2b09      	cmp	r3, #9
 8006644:	d862      	bhi.n	800670c <_dtoa_r+0x290>
 8006646:	2b05      	cmp	r3, #5
 8006648:	dd02      	ble.n	8006650 <_dtoa_r+0x1d4>
 800664a:	2400      	movs	r4, #0
 800664c:	3b04      	subs	r3, #4
 800664e:	9322      	str	r3, [sp, #136]	@ 0x88
 8006650:	9b22      	ldr	r3, [sp, #136]	@ 0x88
 8006652:	1e98      	subs	r0, r3, #2
 8006654:	2803      	cmp	r0, #3
 8006656:	d863      	bhi.n	8006720 <_dtoa_r+0x2a4>
 8006658:	f7f9 fd5e 	bl	8000118 <__gnu_thumb1_case_uqi>
 800665c:	2b385654 	.word	0x2b385654
 8006660:	9b1b      	ldr	r3, [sp, #108]	@ 0x6c
 8006662:	9e1a      	ldr	r6, [sp, #104]	@ 0x68
 8006664:	18f6      	adds	r6, r6, r3
 8006666:	4b68      	ldr	r3, [pc, #416]	@ (8006808 <_dtoa_r+0x38c>)
 8006668:	18f2      	adds	r2, r6, r3
 800666a:	2a20      	cmp	r2, #32
 800666c:	dd0f      	ble.n	800668e <_dtoa_r+0x212>
 800666e:	2340      	movs	r3, #64	@ 0x40
 8006670:	1a9b      	subs	r3, r3, r2
 8006672:	409f      	lsls	r7, r3
 8006674:	4b65      	ldr	r3, [pc, #404]	@ (800680c <_dtoa_r+0x390>)
 8006676:	0038      	movs	r0, r7
 8006678:	18f3      	adds	r3, r6, r3
 800667a:	40dc      	lsrs	r4, r3
 800667c:	4320      	orrs	r0, r4
 800667e:	f7fc f945 	bl	800290c <__aeabi_ui2d>
 8006682:	2201      	movs	r2, #1
 8006684:	4b62      	ldr	r3, [pc, #392]	@ (8006810 <_dtoa_r+0x394>)
 8006686:	1e77      	subs	r7, r6, #1
 8006688:	18cb      	adds	r3, r1, r3
 800668a:	9218      	str	r2, [sp, #96]	@ 0x60
 800668c:	e776      	b.n	800657c <_dtoa_r+0x100>
 800668e:	2320      	movs	r3, #32
 8006690:	0020      	movs	r0, r4
 8006692:	1a9b      	subs	r3, r3, r2
 8006694:	4098      	lsls	r0, r3
 8006696:	e7f2      	b.n	800667e <_dtoa_r+0x202>
 8006698:	9015      	str	r0, [sp, #84]	@ 0x54
 800669a:	e7ba      	b.n	8006612 <_dtoa_r+0x196>
 800669c:	920d      	str	r2, [sp, #52]	@ 0x34
 800669e:	e7c3      	b.n	8006628 <_dtoa_r+0x1ac>
 80066a0:	9b06      	ldr	r3, [sp, #24]
 80066a2:	9a04      	ldr	r2, [sp, #16]
 80066a4:	1a9b      	subs	r3, r3, r2
 80066a6:	9306      	str	r3, [sp, #24]
 80066a8:	4253      	negs	r3, r2
 80066aa:	930f      	str	r3, [sp, #60]	@ 0x3c
 80066ac:	2300      	movs	r3, #0
 80066ae:	9314      	str	r3, [sp, #80]	@ 0x50
 80066b0:	e7c5      	b.n	800663e <_dtoa_r+0x1c2>
 80066b2:	2301      	movs	r3, #1
 80066b4:	9a23      	ldr	r2, [sp, #140]	@ 0x8c
 80066b6:	9310      	str	r3, [sp, #64]	@ 0x40
 80066b8:	4694      	mov	ip, r2
 80066ba:	9b04      	ldr	r3, [sp, #16]
 80066bc:	4463      	add	r3, ip
 80066be:	930e      	str	r3, [sp, #56]	@ 0x38
 80066c0:	3301      	adds	r3, #1
 80066c2:	9309      	str	r3, [sp, #36]	@ 0x24
 80066c4:	2b00      	cmp	r3, #0
 80066c6:	dc08      	bgt.n	80066da <_dtoa_r+0x25e>
 80066c8:	2301      	movs	r3, #1
 80066ca:	e006      	b.n	80066da <_dtoa_r+0x25e>
 80066cc:	2301      	movs	r3, #1
 80066ce:	9310      	str	r3, [sp, #64]	@ 0x40
 80066d0:	9b23      	ldr	r3, [sp, #140]	@ 0x8c
 80066d2:	2b00      	cmp	r3, #0
 80066d4:	dd28      	ble.n	8006728 <_dtoa_r+0x2ac>
 80066d6:	930e      	str	r3, [sp, #56]	@ 0x38
 80066d8:	9309      	str	r3, [sp, #36]	@ 0x24
 80066da:	9a03      	ldr	r2, [sp, #12]
 80066dc:	2100      	movs	r1, #0
 80066de:	69d0      	ldr	r0, [r2, #28]
 80066e0:	2204      	movs	r2, #4
 80066e2:	0015      	movs	r5, r2
 80066e4:	3514      	adds	r5, #20
 80066e6:	429d      	cmp	r5, r3
 80066e8:	d923      	bls.n	8006732 <_dtoa_r+0x2b6>
 80066ea:	6041      	str	r1, [r0, #4]
 80066ec:	9803      	ldr	r0, [sp, #12]
 80066ee:	f000 fdbb 	bl	8007268 <_Balloc>
 80066f2:	9008      	str	r0, [sp, #32]
 80066f4:	2800      	cmp	r0, #0
 80066f6:	d11f      	bne.n	8006738 <_dtoa_r+0x2bc>
 80066f8:	21b0      	movs	r1, #176	@ 0xb0
 80066fa:	4b46      	ldr	r3, [pc, #280]	@ (8006814 <_dtoa_r+0x398>)
 80066fc:	4831      	ldr	r0, [pc, #196]	@ (80067c4 <_dtoa_r+0x348>)
 80066fe:	9a08      	ldr	r2, [sp, #32]
 8006700:	31ff      	adds	r1, #255	@ 0xff
 8006702:	e6d0      	b.n	80064a6 <_dtoa_r+0x2a>
 8006704:	2300      	movs	r3, #0
 8006706:	e7e2      	b.n	80066ce <_dtoa_r+0x252>
 8006708:	2300      	movs	r3, #0
 800670a:	e7d3      	b.n	80066b4 <_dtoa_r+0x238>
 800670c:	2300      	movs	r3, #0
 800670e:	9410      	str	r4, [sp, #64]	@ 0x40
 8006710:	9322      	str	r3, [sp, #136]	@ 0x88
 8006712:	3b01      	subs	r3, #1
 8006714:	2200      	movs	r2, #0
 8006716:	930e      	str	r3, [sp, #56]	@ 0x38
 8006718:	9309      	str	r3, [sp, #36]	@ 0x24
 800671a:	3313      	adds	r3, #19
 800671c:	9223      	str	r2, [sp, #140]	@ 0x8c
 800671e:	e7dc      	b.n	80066da <_dtoa_r+0x25e>
 8006720:	2301      	movs	r3, #1
 8006722:	9310      	str	r3, [sp, #64]	@ 0x40
 8006724:	3b02      	subs	r3, #2
 8006726:	e7f5      	b.n	8006714 <_dtoa_r+0x298>
 8006728:	2301      	movs	r3, #1
 800672a:	001a      	movs	r2, r3
 800672c:	930e      	str	r3, [sp, #56]	@ 0x38
 800672e:	9309      	str	r3, [sp, #36]	@ 0x24
 8006730:	e7f4      	b.n	800671c <_dtoa_r+0x2a0>
 8006732:	3101      	adds	r1, #1
 8006734:	0052      	lsls	r2, r2, #1
 8006736:	e7d4      	b.n	80066e2 <_dtoa_r+0x266>
 8006738:	9b03      	ldr	r3, [sp, #12]
 800673a:	9a08      	ldr	r2, [sp, #32]
 800673c:	69db      	ldr	r3, [r3, #28]
 800673e:	601a      	str	r2, [r3, #0]
 8006740:	9b09      	ldr	r3, [sp, #36]	@ 0x24
 8006742:	2b0e      	cmp	r3, #14
 8006744:	d900      	bls.n	8006748 <_dtoa_r+0x2cc>
 8006746:	e0d6      	b.n	80068f6 <_dtoa_r+0x47a>
 8006748:	2c00      	cmp	r4, #0
 800674a:	d100      	bne.n	800674e <_dtoa_r+0x2d2>
 800674c:	e0d3      	b.n	80068f6 <_dtoa_r+0x47a>
 800674e:	9b04      	ldr	r3, [sp, #16]
 8006750:	2b00      	cmp	r3, #0
 8006752:	dd63      	ble.n	800681c <_dtoa_r+0x3a0>
 8006754:	210f      	movs	r1, #15
 8006756:	9a04      	ldr	r2, [sp, #16]
 8006758:	4b2a      	ldr	r3, [pc, #168]	@ (8006804 <_dtoa_r+0x388>)
 800675a:	400a      	ands	r2, r1
 800675c:	00d2      	lsls	r2, r2, #3
 800675e:	189b      	adds	r3, r3, r2
 8006760:	681e      	ldr	r6, [r3, #0]
 8006762:	685f      	ldr	r7, [r3, #4]
 8006764:	9b04      	ldr	r3, [sp, #16]
 8006766:	2402      	movs	r4, #2
 8006768:	111d      	asrs	r5, r3, #4
 800676a:	05db      	lsls	r3, r3, #23
 800676c:	d50a      	bpl.n	8006784 <_dtoa_r+0x308>
 800676e:	4b2a      	ldr	r3, [pc, #168]	@ (8006818 <_dtoa_r+0x39c>)
 8006770:	400d      	ands	r5, r1
 8006772:	6a1a      	ldr	r2, [r3, #32]
 8006774:	6a5b      	ldr	r3, [r3, #36]	@ 0x24
 8006776:	9812      	ldr	r0, [sp, #72]	@ 0x48
 8006778:	9913      	ldr	r1, [sp, #76]	@ 0x4c
 800677a:	f7fa fd11 	bl	80011a0 <__aeabi_ddiv>
 800677e:	900a      	str	r0, [sp, #40]	@ 0x28
 8006780:	910b      	str	r1, [sp, #44]	@ 0x2c
 8006782:	3401      	adds	r4, #1
 8006784:	4b24      	ldr	r3, [pc, #144]	@ (8006818 <_dtoa_r+0x39c>)
 8006786:	930c      	str	r3, [sp, #48]	@ 0x30
 8006788:	2d00      	cmp	r5, #0
 800678a:	d108      	bne.n	800679e <_dtoa_r+0x322>
 800678c:	980a      	ldr	r0, [sp, #40]	@ 0x28
 800678e:	990b      	ldr	r1, [sp, #44]	@ 0x2c
 8006790:	0032      	movs	r2, r6
 8006792:	003b      	movs	r3, r7
 8006794:	f7fa fd04 	bl	80011a0 <__aeabi_ddiv>
 8006798:	900a      	str	r0, [sp, #40]	@ 0x28
 800679a:	910b      	str	r1, [sp, #44]	@ 0x2c
 800679c:	e059      	b.n	8006852 <_dtoa_r+0x3d6>
 800679e:	2301      	movs	r3, #1
 80067a0:	421d      	tst	r5, r3
 80067a2:	d009      	beq.n	80067b8 <_dtoa_r+0x33c>
 80067a4:	18e4      	adds	r4, r4, r3
 80067a6:	9b0c      	ldr	r3, [sp, #48]	@ 0x30
 80067a8:	0030      	movs	r0, r6
 80067aa:	681a      	ldr	r2, [r3, #0]
 80067ac:	685b      	ldr	r3, [r3, #4]
 80067ae:	0039      	movs	r1, r7
 80067b0:	f7fb f930 	bl	8001a14 <__aeabi_dmul>
 80067b4:	0006      	movs	r6, r0
 80067b6:	000f      	movs	r7, r1
 80067b8:	9b0c      	ldr	r3, [sp, #48]	@ 0x30
 80067ba:	106d      	asrs	r5, r5, #1
 80067bc:	3308      	adds	r3, #8
 80067be:	e7e2      	b.n	8006786 <_dtoa_r+0x30a>
 80067c0:	0800828e 	.word	0x0800828e
 80067c4:	080082a5 	.word	0x080082a5
 80067c8:	7ff00000 	.word	0x7ff00000
 80067cc:	0000270f 	.word	0x0000270f
 80067d0:	0800828a 	.word	0x0800828a
 80067d4:	0800828d 	.word	0x0800828d
 80067d8:	0800825e 	.word	0x0800825e
 80067dc:	0800825d 	.word	0x0800825d
 80067e0:	3ff00000 	.word	0x3ff00000
 80067e4:	fffffc01 	.word	0xfffffc01
 80067e8:	3ff80000 	.word	0x3ff80000
 80067ec:	636f4361 	.word	0x636f4361
 80067f0:	3fd287a7 	.word	0x3fd287a7
 80067f4:	8b60c8b3 	.word	0x8b60c8b3
 80067f8:	3fc68a28 	.word	0x3fc68a28
 80067fc:	509f79fb 	.word	0x509f79fb
 8006800:	3fd34413 	.word	0x3fd34413
 8006804:	080083f8 	.word	0x080083f8
 8006808:	00000432 	.word	0x00000432
 800680c:	00000412 	.word	0x00000412
 8006810:	fe100000 	.word	0xfe100000
 8006814:	080082fd 	.word	0x080082fd
 8006818:	080083d0 	.word	0x080083d0
 800681c:	9b04      	ldr	r3, [sp, #16]
 800681e:	2402      	movs	r4, #2
 8006820:	2b00      	cmp	r3, #0
 8006822:	d016      	beq.n	8006852 <_dtoa_r+0x3d6>
 8006824:	9812      	ldr	r0, [sp, #72]	@ 0x48
 8006826:	9913      	ldr	r1, [sp, #76]	@ 0x4c
 8006828:	220f      	movs	r2, #15
 800682a:	425d      	negs	r5, r3
 800682c:	402a      	ands	r2, r5
 800682e:	4bd5      	ldr	r3, [pc, #852]	@ (8006b84 <_dtoa_r+0x708>)
 8006830:	00d2      	lsls	r2, r2, #3
 8006832:	189b      	adds	r3, r3, r2
 8006834:	681a      	ldr	r2, [r3, #0]
 8006836:	685b      	ldr	r3, [r3, #4]
 8006838:	f7fb f8ec 	bl	8001a14 <__aeabi_dmul>
 800683c:	2701      	movs	r7, #1
 800683e:	2300      	movs	r3, #0
 8006840:	900a      	str	r0, [sp, #40]	@ 0x28
 8006842:	910b      	str	r1, [sp, #44]	@ 0x2c
 8006844:	4ed0      	ldr	r6, [pc, #832]	@ (8006b88 <_dtoa_r+0x70c>)
 8006846:	112d      	asrs	r5, r5, #4
 8006848:	2d00      	cmp	r5, #0
 800684a:	d000      	beq.n	800684e <_dtoa_r+0x3d2>
 800684c:	e095      	b.n	800697a <_dtoa_r+0x4fe>
 800684e:	2b00      	cmp	r3, #0
 8006850:	d1a2      	bne.n	8006798 <_dtoa_r+0x31c>
 8006852:	9e0a      	ldr	r6, [sp, #40]	@ 0x28
 8006854:	9f0b      	ldr	r7, [sp, #44]	@ 0x2c
 8006856:	9b15      	ldr	r3, [sp, #84]	@ 0x54
 8006858:	2b00      	cmp	r3, #0
 800685a:	d100      	bne.n	800685e <_dtoa_r+0x3e2>
 800685c:	e098      	b.n	8006990 <_dtoa_r+0x514>
 800685e:	2200      	movs	r2, #0
 8006860:	0030      	movs	r0, r6
 8006862:	0039      	movs	r1, r7
 8006864:	4bc9      	ldr	r3, [pc, #804]	@ (8006b8c <_dtoa_r+0x710>)
 8006866:	f7f9 fdf7 	bl	8000458 <__aeabi_dcmplt>
 800686a:	2800      	cmp	r0, #0
 800686c:	d100      	bne.n	8006870 <_dtoa_r+0x3f4>
 800686e:	e08f      	b.n	8006990 <_dtoa_r+0x514>
 8006870:	9b09      	ldr	r3, [sp, #36]	@ 0x24
 8006872:	2b00      	cmp	r3, #0
 8006874:	d100      	bne.n	8006878 <_dtoa_r+0x3fc>
 8006876:	e08b      	b.n	8006990 <_dtoa_r+0x514>
 8006878:	9b0e      	ldr	r3, [sp, #56]	@ 0x38
 800687a:	2b00      	cmp	r3, #0
 800687c:	dd37      	ble.n	80068ee <_dtoa_r+0x472>
 800687e:	9b04      	ldr	r3, [sp, #16]
 8006880:	2200      	movs	r2, #0
 8006882:	3b01      	subs	r3, #1
 8006884:	930c      	str	r3, [sp, #48]	@ 0x30
 8006886:	0030      	movs	r0, r6
 8006888:	4bc1      	ldr	r3, [pc, #772]	@ (8006b90 <_dtoa_r+0x714>)
 800688a:	0039      	movs	r1, r7
 800688c:	f7fb f8c2 	bl	8001a14 <__aeabi_dmul>
 8006890:	900a      	str	r0, [sp, #40]	@ 0x28
 8006892:	910b      	str	r1, [sp, #44]	@ 0x2c
 8006894:	9b0e      	ldr	r3, [sp, #56]	@ 0x38
 8006896:	3401      	adds	r4, #1
 8006898:	0020      	movs	r0, r4
 800689a:	9311      	str	r3, [sp, #68]	@ 0x44
 800689c:	f7fc f808 	bl	80028b0 <__aeabi_i2d>
 80068a0:	9a0a      	ldr	r2, [sp, #40]	@ 0x28
 80068a2:	9b0b      	ldr	r3, [sp, #44]	@ 0x2c
 80068a4:	f7fb f8b6 	bl	8001a14 <__aeabi_dmul>
 80068a8:	4bba      	ldr	r3, [pc, #744]	@ (8006b94 <_dtoa_r+0x718>)
 80068aa:	2200      	movs	r2, #0
 80068ac:	f7fa f8b2 	bl	8000a14 <__aeabi_dadd>
 80068b0:	4bb9      	ldr	r3, [pc, #740]	@ (8006b98 <_dtoa_r+0x71c>)
 80068b2:	0006      	movs	r6, r0
 80068b4:	18cf      	adds	r7, r1, r3
 80068b6:	9b11      	ldr	r3, [sp, #68]	@ 0x44
 80068b8:	2b00      	cmp	r3, #0
 80068ba:	d16d      	bne.n	8006998 <_dtoa_r+0x51c>
 80068bc:	980a      	ldr	r0, [sp, #40]	@ 0x28
 80068be:	990b      	ldr	r1, [sp, #44]	@ 0x2c
 80068c0:	2200      	movs	r2, #0
 80068c2:	4bb6      	ldr	r3, [pc, #728]	@ (8006b9c <_dtoa_r+0x720>)
 80068c4:	f7fb fb8c 	bl	8001fe0 <__aeabi_dsub>
 80068c8:	0032      	movs	r2, r6
 80068ca:	003b      	movs	r3, r7
 80068cc:	0004      	movs	r4, r0
 80068ce:	000d      	movs	r5, r1
 80068d0:	f7f9 fdd6 	bl	8000480 <__aeabi_dcmpgt>
 80068d4:	2800      	cmp	r0, #0
 80068d6:	d000      	beq.n	80068da <_dtoa_r+0x45e>
 80068d8:	e2b6      	b.n	8006e48 <_dtoa_r+0x9cc>
 80068da:	2180      	movs	r1, #128	@ 0x80
 80068dc:	0609      	lsls	r1, r1, #24
 80068de:	187b      	adds	r3, r7, r1
 80068e0:	0032      	movs	r2, r6
 80068e2:	0020      	movs	r0, r4
 80068e4:	0029      	movs	r1, r5
 80068e6:	f7f9 fdb7 	bl	8000458 <__aeabi_dcmplt>
 80068ea:	2800      	cmp	r0, #0
 80068ec:	d128      	bne.n	8006940 <_dtoa_r+0x4c4>
 80068ee:	9b12      	ldr	r3, [sp, #72]	@ 0x48
 80068f0:	9c13      	ldr	r4, [sp, #76]	@ 0x4c
 80068f2:	930a      	str	r3, [sp, #40]	@ 0x28
 80068f4:	940b      	str	r4, [sp, #44]	@ 0x2c
 80068f6:	9b1b      	ldr	r3, [sp, #108]	@ 0x6c
 80068f8:	2b00      	cmp	r3, #0
 80068fa:	da00      	bge.n	80068fe <_dtoa_r+0x482>
 80068fc:	e174      	b.n	8006be8 <_dtoa_r+0x76c>
 80068fe:	9a04      	ldr	r2, [sp, #16]
 8006900:	2a0e      	cmp	r2, #14
 8006902:	dd00      	ble.n	8006906 <_dtoa_r+0x48a>
 8006904:	e170      	b.n	8006be8 <_dtoa_r+0x76c>
 8006906:	4b9f      	ldr	r3, [pc, #636]	@ (8006b84 <_dtoa_r+0x708>)
 8006908:	00d2      	lsls	r2, r2, #3
 800690a:	189b      	adds	r3, r3, r2
 800690c:	685c      	ldr	r4, [r3, #4]
 800690e:	681b      	ldr	r3, [r3, #0]
 8006910:	9306      	str	r3, [sp, #24]
 8006912:	9407      	str	r4, [sp, #28]
 8006914:	9b23      	ldr	r3, [sp, #140]	@ 0x8c
 8006916:	2b00      	cmp	r3, #0
 8006918:	db00      	blt.n	800691c <_dtoa_r+0x4a0>
 800691a:	e0e7      	b.n	8006aec <_dtoa_r+0x670>
 800691c:	9b09      	ldr	r3, [sp, #36]	@ 0x24
 800691e:	2b00      	cmp	r3, #0
 8006920:	dd00      	ble.n	8006924 <_dtoa_r+0x4a8>
 8006922:	e0e3      	b.n	8006aec <_dtoa_r+0x670>
 8006924:	d10c      	bne.n	8006940 <_dtoa_r+0x4c4>
 8006926:	9806      	ldr	r0, [sp, #24]
 8006928:	9907      	ldr	r1, [sp, #28]
 800692a:	2200      	movs	r2, #0
 800692c:	4b9b      	ldr	r3, [pc, #620]	@ (8006b9c <_dtoa_r+0x720>)
 800692e:	f7fb f871 	bl	8001a14 <__aeabi_dmul>
 8006932:	9a0a      	ldr	r2, [sp, #40]	@ 0x28
 8006934:	9b0b      	ldr	r3, [sp, #44]	@ 0x2c
 8006936:	f7f9 fdad 	bl	8000494 <__aeabi_dcmpge>
 800693a:	2800      	cmp	r0, #0
 800693c:	d100      	bne.n	8006940 <_dtoa_r+0x4c4>
 800693e:	e286      	b.n	8006e4e <_dtoa_r+0x9d2>
 8006940:	2600      	movs	r6, #0
 8006942:	0037      	movs	r7, r6
 8006944:	9b23      	ldr	r3, [sp, #140]	@ 0x8c
 8006946:	9c08      	ldr	r4, [sp, #32]
 8006948:	43db      	mvns	r3, r3
 800694a:	930c      	str	r3, [sp, #48]	@ 0x30
 800694c:	9704      	str	r7, [sp, #16]
 800694e:	2700      	movs	r7, #0
 8006950:	0031      	movs	r1, r6
 8006952:	9803      	ldr	r0, [sp, #12]
 8006954:	f000 fccc 	bl	80072f0 <_Bfree>
 8006958:	9b04      	ldr	r3, [sp, #16]
 800695a:	2b00      	cmp	r3, #0
 800695c:	d100      	bne.n	8006960 <_dtoa_r+0x4e4>
 800695e:	e0bb      	b.n	8006ad8 <_dtoa_r+0x65c>
 8006960:	2f00      	cmp	r7, #0
 8006962:	d005      	beq.n	8006970 <_dtoa_r+0x4f4>
 8006964:	429f      	cmp	r7, r3
 8006966:	d003      	beq.n	8006970 <_dtoa_r+0x4f4>
 8006968:	0039      	movs	r1, r7
 800696a:	9803      	ldr	r0, [sp, #12]
 800696c:	f000 fcc0 	bl	80072f0 <_Bfree>
 8006970:	9904      	ldr	r1, [sp, #16]
 8006972:	9803      	ldr	r0, [sp, #12]
 8006974:	f000 fcbc 	bl	80072f0 <_Bfree>
 8006978:	e0ae      	b.n	8006ad8 <_dtoa_r+0x65c>
 800697a:	423d      	tst	r5, r7
 800697c:	d005      	beq.n	800698a <_dtoa_r+0x50e>
 800697e:	6832      	ldr	r2, [r6, #0]
 8006980:	6873      	ldr	r3, [r6, #4]
 8006982:	f7fb f847 	bl	8001a14 <__aeabi_dmul>
 8006986:	003b      	movs	r3, r7
 8006988:	3401      	adds	r4, #1
 800698a:	106d      	asrs	r5, r5, #1
 800698c:	3608      	adds	r6, #8
 800698e:	e75b      	b.n	8006848 <_dtoa_r+0x3cc>
 8006990:	9b04      	ldr	r3, [sp, #16]
 8006992:	930c      	str	r3, [sp, #48]	@ 0x30
 8006994:	9b09      	ldr	r3, [sp, #36]	@ 0x24
 8006996:	e77f      	b.n	8006898 <_dtoa_r+0x41c>
 8006998:	9a11      	ldr	r2, [sp, #68]	@ 0x44
 800699a:	4b7a      	ldr	r3, [pc, #488]	@ (8006b84 <_dtoa_r+0x708>)
 800699c:	3a01      	subs	r2, #1
 800699e:	00d2      	lsls	r2, r2, #3
 80069a0:	9910      	ldr	r1, [sp, #64]	@ 0x40
 80069a2:	189b      	adds	r3, r3, r2
 80069a4:	681a      	ldr	r2, [r3, #0]
 80069a6:	685b      	ldr	r3, [r3, #4]
 80069a8:	2900      	cmp	r1, #0
 80069aa:	d04c      	beq.n	8006a46 <_dtoa_r+0x5ca>
 80069ac:	2000      	movs	r0, #0
 80069ae:	497c      	ldr	r1, [pc, #496]	@ (8006ba0 <_dtoa_r+0x724>)
 80069b0:	f7fa fbf6 	bl	80011a0 <__aeabi_ddiv>
 80069b4:	0032      	movs	r2, r6
 80069b6:	003b      	movs	r3, r7
 80069b8:	f7fb fb12 	bl	8001fe0 <__aeabi_dsub>
 80069bc:	9a08      	ldr	r2, [sp, #32]
 80069be:	0006      	movs	r6, r0
 80069c0:	4694      	mov	ip, r2
 80069c2:	000f      	movs	r7, r1
 80069c4:	9b08      	ldr	r3, [sp, #32]
 80069c6:	9316      	str	r3, [sp, #88]	@ 0x58
 80069c8:	9b11      	ldr	r3, [sp, #68]	@ 0x44
 80069ca:	4463      	add	r3, ip
 80069cc:	9311      	str	r3, [sp, #68]	@ 0x44
 80069ce:	980a      	ldr	r0, [sp, #40]	@ 0x28
 80069d0:	990b      	ldr	r1, [sp, #44]	@ 0x2c
 80069d2:	f7fb ff31 	bl	8002838 <__aeabi_d2iz>
 80069d6:	0005      	movs	r5, r0
 80069d8:	f7fb ff6a 	bl	80028b0 <__aeabi_i2d>
 80069dc:	0002      	movs	r2, r0
 80069de:	000b      	movs	r3, r1
 80069e0:	980a      	ldr	r0, [sp, #40]	@ 0x28
 80069e2:	990b      	ldr	r1, [sp, #44]	@ 0x2c
 80069e4:	f7fb fafc 	bl	8001fe0 <__aeabi_dsub>
 80069e8:	9b16      	ldr	r3, [sp, #88]	@ 0x58
 80069ea:	3530      	adds	r5, #48	@ 0x30
 80069ec:	1c5c      	adds	r4, r3, #1
 80069ee:	701d      	strb	r5, [r3, #0]
 80069f0:	0032      	movs	r2, r6
 80069f2:	003b      	movs	r3, r7
 80069f4:	900a      	str	r0, [sp, #40]	@ 0x28
 80069f6:	910b      	str	r1, [sp, #44]	@ 0x2c
 80069f8:	f7f9 fd2e 	bl	8000458 <__aeabi_dcmplt>
 80069fc:	2800      	cmp	r0, #0
 80069fe:	d16b      	bne.n	8006ad8 <_dtoa_r+0x65c>
 8006a00:	9a0a      	ldr	r2, [sp, #40]	@ 0x28
 8006a02:	9b0b      	ldr	r3, [sp, #44]	@ 0x2c
 8006a04:	2000      	movs	r0, #0
 8006a06:	4961      	ldr	r1, [pc, #388]	@ (8006b8c <_dtoa_r+0x710>)
 8006a08:	f7fb faea 	bl	8001fe0 <__aeabi_dsub>
 8006a0c:	0032      	movs	r2, r6
 8006a0e:	003b      	movs	r3, r7
 8006a10:	f7f9 fd22 	bl	8000458 <__aeabi_dcmplt>
 8006a14:	2800      	cmp	r0, #0
 8006a16:	d000      	beq.n	8006a1a <_dtoa_r+0x59e>
 8006a18:	e0c6      	b.n	8006ba8 <_dtoa_r+0x72c>
 8006a1a:	9b11      	ldr	r3, [sp, #68]	@ 0x44
 8006a1c:	42a3      	cmp	r3, r4
 8006a1e:	d100      	bne.n	8006a22 <_dtoa_r+0x5a6>
 8006a20:	e765      	b.n	80068ee <_dtoa_r+0x472>
 8006a22:	2200      	movs	r2, #0
 8006a24:	0030      	movs	r0, r6
 8006a26:	0039      	movs	r1, r7
 8006a28:	4b59      	ldr	r3, [pc, #356]	@ (8006b90 <_dtoa_r+0x714>)
 8006a2a:	f7fa fff3 	bl	8001a14 <__aeabi_dmul>
 8006a2e:	2200      	movs	r2, #0
 8006a30:	0006      	movs	r6, r0
 8006a32:	000f      	movs	r7, r1
 8006a34:	980a      	ldr	r0, [sp, #40]	@ 0x28
 8006a36:	990b      	ldr	r1, [sp, #44]	@ 0x2c
 8006a38:	4b55      	ldr	r3, [pc, #340]	@ (8006b90 <_dtoa_r+0x714>)
 8006a3a:	f7fa ffeb 	bl	8001a14 <__aeabi_dmul>
 8006a3e:	9416      	str	r4, [sp, #88]	@ 0x58
 8006a40:	900a      	str	r0, [sp, #40]	@ 0x28
 8006a42:	910b      	str	r1, [sp, #44]	@ 0x2c
 8006a44:	e7c3      	b.n	80069ce <_dtoa_r+0x552>
 8006a46:	0030      	movs	r0, r6
 8006a48:	0039      	movs	r1, r7
 8006a4a:	f7fa ffe3 	bl	8001a14 <__aeabi_dmul>
 8006a4e:	9d08      	ldr	r5, [sp, #32]
 8006a50:	9a11      	ldr	r2, [sp, #68]	@ 0x44
 8006a52:	002b      	movs	r3, r5
 8006a54:	4694      	mov	ip, r2
 8006a56:	9016      	str	r0, [sp, #88]	@ 0x58
 8006a58:	9117      	str	r1, [sp, #92]	@ 0x5c
 8006a5a:	4463      	add	r3, ip
 8006a5c:	9319      	str	r3, [sp, #100]	@ 0x64
 8006a5e:	980a      	ldr	r0, [sp, #40]	@ 0x28
 8006a60:	990b      	ldr	r1, [sp, #44]	@ 0x2c
 8006a62:	f7fb fee9 	bl	8002838 <__aeabi_d2iz>
 8006a66:	0004      	movs	r4, r0
 8006a68:	f7fb ff22 	bl	80028b0 <__aeabi_i2d>
 8006a6c:	000b      	movs	r3, r1
 8006a6e:	0002      	movs	r2, r0
 8006a70:	980a      	ldr	r0, [sp, #40]	@ 0x28
 8006a72:	990b      	ldr	r1, [sp, #44]	@ 0x2c
 8006a74:	f7fb fab4 	bl	8001fe0 <__aeabi_dsub>
 8006a78:	3430      	adds	r4, #48	@ 0x30
 8006a7a:	9b19      	ldr	r3, [sp, #100]	@ 0x64
 8006a7c:	702c      	strb	r4, [r5, #0]
 8006a7e:	3501      	adds	r5, #1
 8006a80:	0006      	movs	r6, r0
 8006a82:	000f      	movs	r7, r1
 8006a84:	42ab      	cmp	r3, r5
 8006a86:	d12a      	bne.n	8006ade <_dtoa_r+0x662>
 8006a88:	9816      	ldr	r0, [sp, #88]	@ 0x58
 8006a8a:	9917      	ldr	r1, [sp, #92]	@ 0x5c
 8006a8c:	9b08      	ldr	r3, [sp, #32]
 8006a8e:	9c11      	ldr	r4, [sp, #68]	@ 0x44
 8006a90:	469c      	mov	ip, r3
 8006a92:	2200      	movs	r2, #0
 8006a94:	4b42      	ldr	r3, [pc, #264]	@ (8006ba0 <_dtoa_r+0x724>)
 8006a96:	4464      	add	r4, ip
 8006a98:	f7f9 ffbc 	bl	8000a14 <__aeabi_dadd>
 8006a9c:	0002      	movs	r2, r0
 8006a9e:	000b      	movs	r3, r1
 8006aa0:	0030      	movs	r0, r6
 8006aa2:	0039      	movs	r1, r7
 8006aa4:	f7f9 fcec 	bl	8000480 <__aeabi_dcmpgt>
 8006aa8:	2800      	cmp	r0, #0
 8006aaa:	d000      	beq.n	8006aae <_dtoa_r+0x632>
 8006aac:	e07c      	b.n	8006ba8 <_dtoa_r+0x72c>
 8006aae:	9a16      	ldr	r2, [sp, #88]	@ 0x58
 8006ab0:	9b17      	ldr	r3, [sp, #92]	@ 0x5c
 8006ab2:	2000      	movs	r0, #0
 8006ab4:	493a      	ldr	r1, [pc, #232]	@ (8006ba0 <_dtoa_r+0x724>)
 8006ab6:	f7fb fa93 	bl	8001fe0 <__aeabi_dsub>
 8006aba:	0002      	movs	r2, r0
 8006abc:	000b      	movs	r3, r1
 8006abe:	0030      	movs	r0, r6
 8006ac0:	0039      	movs	r1, r7
 8006ac2:	f7f9 fcc9 	bl	8000458 <__aeabi_dcmplt>
 8006ac6:	2800      	cmp	r0, #0
 8006ac8:	d100      	bne.n	8006acc <_dtoa_r+0x650>
 8006aca:	e710      	b.n	80068ee <_dtoa_r+0x472>
 8006acc:	0023      	movs	r3, r4
 8006ace:	3c01      	subs	r4, #1
 8006ad0:	7822      	ldrb	r2, [r4, #0]
 8006ad2:	2a30      	cmp	r2, #48	@ 0x30
 8006ad4:	d0fa      	beq.n	8006acc <_dtoa_r+0x650>
 8006ad6:	001c      	movs	r4, r3
 8006ad8:	9b0c      	ldr	r3, [sp, #48]	@ 0x30
 8006ada:	9304      	str	r3, [sp, #16]
 8006adc:	e042      	b.n	8006b64 <_dtoa_r+0x6e8>
 8006ade:	2200      	movs	r2, #0
 8006ae0:	4b2b      	ldr	r3, [pc, #172]	@ (8006b90 <_dtoa_r+0x714>)
 8006ae2:	f7fa ff97 	bl	8001a14 <__aeabi_dmul>
 8006ae6:	900a      	str	r0, [sp, #40]	@ 0x28
 8006ae8:	910b      	str	r1, [sp, #44]	@ 0x2c
 8006aea:	e7b8      	b.n	8006a5e <_dtoa_r+0x5e2>
 8006aec:	9b09      	ldr	r3, [sp, #36]	@ 0x24
 8006aee:	9d08      	ldr	r5, [sp, #32]
 8006af0:	3b01      	subs	r3, #1
 8006af2:	195b      	adds	r3, r3, r5
 8006af4:	9e0a      	ldr	r6, [sp, #40]	@ 0x28
 8006af6:	9f0b      	ldr	r7, [sp, #44]	@ 0x2c
 8006af8:	930a      	str	r3, [sp, #40]	@ 0x28
 8006afa:	9a06      	ldr	r2, [sp, #24]
 8006afc:	9b07      	ldr	r3, [sp, #28]
 8006afe:	0030      	movs	r0, r6
 8006b00:	0039      	movs	r1, r7
 8006b02:	f7fa fb4d 	bl	80011a0 <__aeabi_ddiv>
 8006b06:	f7fb fe97 	bl	8002838 <__aeabi_d2iz>
 8006b0a:	9009      	str	r0, [sp, #36]	@ 0x24
 8006b0c:	f7fb fed0 	bl	80028b0 <__aeabi_i2d>
 8006b10:	9a06      	ldr	r2, [sp, #24]
 8006b12:	9b07      	ldr	r3, [sp, #28]
 8006b14:	f7fa ff7e 	bl	8001a14 <__aeabi_dmul>
 8006b18:	0002      	movs	r2, r0
 8006b1a:	000b      	movs	r3, r1
 8006b1c:	0030      	movs	r0, r6
 8006b1e:	0039      	movs	r1, r7
 8006b20:	f7fb fa5e 	bl	8001fe0 <__aeabi_dsub>
 8006b24:	002b      	movs	r3, r5
 8006b26:	9a09      	ldr	r2, [sp, #36]	@ 0x24
 8006b28:	3501      	adds	r5, #1
 8006b2a:	3230      	adds	r2, #48	@ 0x30
 8006b2c:	701a      	strb	r2, [r3, #0]
 8006b2e:	9a0a      	ldr	r2, [sp, #40]	@ 0x28
 8006b30:	002c      	movs	r4, r5
 8006b32:	429a      	cmp	r2, r3
 8006b34:	d14b      	bne.n	8006bce <_dtoa_r+0x752>
 8006b36:	0002      	movs	r2, r0
 8006b38:	000b      	movs	r3, r1
 8006b3a:	f7f9 ff6b 	bl	8000a14 <__aeabi_dadd>
 8006b3e:	9a06      	ldr	r2, [sp, #24]
 8006b40:	9b07      	ldr	r3, [sp, #28]
 8006b42:	0006      	movs	r6, r0
 8006b44:	000f      	movs	r7, r1
 8006b46:	f7f9 fc9b 	bl	8000480 <__aeabi_dcmpgt>
 8006b4a:	2800      	cmp	r0, #0
 8006b4c:	d12a      	bne.n	8006ba4 <_dtoa_r+0x728>
 8006b4e:	9a06      	ldr	r2, [sp, #24]
 8006b50:	9b07      	ldr	r3, [sp, #28]
 8006b52:	0030      	movs	r0, r6
 8006b54:	0039      	movs	r1, r7
 8006b56:	f7f9 fc79 	bl	800044c <__aeabi_dcmpeq>
 8006b5a:	2800      	cmp	r0, #0
 8006b5c:	d002      	beq.n	8006b64 <_dtoa_r+0x6e8>
 8006b5e:	9b09      	ldr	r3, [sp, #36]	@ 0x24
 8006b60:	07dd      	lsls	r5, r3, #31
 8006b62:	d41f      	bmi.n	8006ba4 <_dtoa_r+0x728>
 8006b64:	9905      	ldr	r1, [sp, #20]
 8006b66:	9803      	ldr	r0, [sp, #12]
 8006b68:	f000 fbc2 	bl	80072f0 <_Bfree>
 8006b6c:	2300      	movs	r3, #0
 8006b6e:	7023      	strb	r3, [r4, #0]
 8006b70:	9b04      	ldr	r3, [sp, #16]
 8006b72:	9a24      	ldr	r2, [sp, #144]	@ 0x90
 8006b74:	3301      	adds	r3, #1
 8006b76:	6013      	str	r3, [r2, #0]
 8006b78:	9b26      	ldr	r3, [sp, #152]	@ 0x98
 8006b7a:	2b00      	cmp	r3, #0
 8006b7c:	d100      	bne.n	8006b80 <_dtoa_r+0x704>
 8006b7e:	e4c7      	b.n	8006510 <_dtoa_r+0x94>
 8006b80:	601c      	str	r4, [r3, #0]
 8006b82:	e4c5      	b.n	8006510 <_dtoa_r+0x94>
 8006b84:	080083f8 	.word	0x080083f8
 8006b88:	080083d0 	.word	0x080083d0
 8006b8c:	3ff00000 	.word	0x3ff00000
 8006b90:	40240000 	.word	0x40240000
 8006b94:	401c0000 	.word	0x401c0000
 8006b98:	fcc00000 	.word	0xfcc00000
 8006b9c:	40140000 	.word	0x40140000
 8006ba0:	3fe00000 	.word	0x3fe00000
 8006ba4:	9b04      	ldr	r3, [sp, #16]
 8006ba6:	930c      	str	r3, [sp, #48]	@ 0x30
 8006ba8:	0023      	movs	r3, r4
 8006baa:	001c      	movs	r4, r3
 8006bac:	3b01      	subs	r3, #1
 8006bae:	781a      	ldrb	r2, [r3, #0]
 8006bb0:	2a39      	cmp	r2, #57	@ 0x39
 8006bb2:	d108      	bne.n	8006bc6 <_dtoa_r+0x74a>
 8006bb4:	9a08      	ldr	r2, [sp, #32]
 8006bb6:	429a      	cmp	r2, r3
 8006bb8:	d1f7      	bne.n	8006baa <_dtoa_r+0x72e>
 8006bba:	9a0c      	ldr	r2, [sp, #48]	@ 0x30
 8006bbc:	9908      	ldr	r1, [sp, #32]
 8006bbe:	3201      	adds	r2, #1
 8006bc0:	920c      	str	r2, [sp, #48]	@ 0x30
 8006bc2:	2230      	movs	r2, #48	@ 0x30
 8006bc4:	700a      	strb	r2, [r1, #0]
 8006bc6:	781a      	ldrb	r2, [r3, #0]
 8006bc8:	3201      	adds	r2, #1
 8006bca:	701a      	strb	r2, [r3, #0]
 8006bcc:	e784      	b.n	8006ad8 <_dtoa_r+0x65c>
 8006bce:	2200      	movs	r2, #0
 8006bd0:	4bc6      	ldr	r3, [pc, #792]	@ (8006eec <_dtoa_r+0xa70>)
 8006bd2:	f7fa ff1f 	bl	8001a14 <__aeabi_dmul>
 8006bd6:	2200      	movs	r2, #0
 8006bd8:	2300      	movs	r3, #0
 8006bda:	0006      	movs	r6, r0
 8006bdc:	000f      	movs	r7, r1
 8006bde:	f7f9 fc35 	bl	800044c <__aeabi_dcmpeq>
 8006be2:	2800      	cmp	r0, #0
 8006be4:	d089      	beq.n	8006afa <_dtoa_r+0x67e>
 8006be6:	e7bd      	b.n	8006b64 <_dtoa_r+0x6e8>
 8006be8:	9f10      	ldr	r7, [sp, #64]	@ 0x40
 8006bea:	9d0f      	ldr	r5, [sp, #60]	@ 0x3c
 8006bec:	9c06      	ldr	r4, [sp, #24]
 8006bee:	2f00      	cmp	r7, #0
 8006bf0:	d014      	beq.n	8006c1c <_dtoa_r+0x7a0>
 8006bf2:	9a22      	ldr	r2, [sp, #136]	@ 0x88
 8006bf4:	2a01      	cmp	r2, #1
 8006bf6:	dd00      	ble.n	8006bfa <_dtoa_r+0x77e>
 8006bf8:	e0e4      	b.n	8006dc4 <_dtoa_r+0x948>
 8006bfa:	9a18      	ldr	r2, [sp, #96]	@ 0x60
 8006bfc:	2a00      	cmp	r2, #0
 8006bfe:	d100      	bne.n	8006c02 <_dtoa_r+0x786>
 8006c00:	e0da      	b.n	8006db8 <_dtoa_r+0x93c>
 8006c02:	4abb      	ldr	r2, [pc, #748]	@ (8006ef0 <_dtoa_r+0xa74>)
 8006c04:	189b      	adds	r3, r3, r2
 8006c06:	9a06      	ldr	r2, [sp, #24]
 8006c08:	2101      	movs	r1, #1
 8006c0a:	18d2      	adds	r2, r2, r3
 8006c0c:	9206      	str	r2, [sp, #24]
 8006c0e:	9a0d      	ldr	r2, [sp, #52]	@ 0x34
 8006c10:	9803      	ldr	r0, [sp, #12]
 8006c12:	18d3      	adds	r3, r2, r3
 8006c14:	930d      	str	r3, [sp, #52]	@ 0x34
 8006c16:	f000 fc23 	bl	8007460 <__i2b>
 8006c1a:	0007      	movs	r7, r0
 8006c1c:	2c00      	cmp	r4, #0
 8006c1e:	d00e      	beq.n	8006c3e <_dtoa_r+0x7c2>
 8006c20:	9b0d      	ldr	r3, [sp, #52]	@ 0x34
 8006c22:	2b00      	cmp	r3, #0
 8006c24:	dd0b      	ble.n	8006c3e <_dtoa_r+0x7c2>
 8006c26:	9a0d      	ldr	r2, [sp, #52]	@ 0x34
 8006c28:	0023      	movs	r3, r4
 8006c2a:	4294      	cmp	r4, r2
 8006c2c:	dd00      	ble.n	8006c30 <_dtoa_r+0x7b4>
 8006c2e:	0013      	movs	r3, r2
 8006c30:	9a06      	ldr	r2, [sp, #24]
 8006c32:	1ae4      	subs	r4, r4, r3
 8006c34:	1ad2      	subs	r2, r2, r3
 8006c36:	9206      	str	r2, [sp, #24]
 8006c38:	9a0d      	ldr	r2, [sp, #52]	@ 0x34
 8006c3a:	1ad3      	subs	r3, r2, r3
 8006c3c:	930d      	str	r3, [sp, #52]	@ 0x34
 8006c3e:	9b0f      	ldr	r3, [sp, #60]	@ 0x3c
 8006c40:	2b00      	cmp	r3, #0
 8006c42:	d021      	beq.n	8006c88 <_dtoa_r+0x80c>
 8006c44:	9b10      	ldr	r3, [sp, #64]	@ 0x40
 8006c46:	2b00      	cmp	r3, #0
 8006c48:	d100      	bne.n	8006c4c <_dtoa_r+0x7d0>
 8006c4a:	e0d3      	b.n	8006df4 <_dtoa_r+0x978>
 8006c4c:	9e05      	ldr	r6, [sp, #20]
 8006c4e:	2d00      	cmp	r5, #0
 8006c50:	d014      	beq.n	8006c7c <_dtoa_r+0x800>
 8006c52:	0039      	movs	r1, r7
 8006c54:	002a      	movs	r2, r5
 8006c56:	9803      	ldr	r0, [sp, #12]
 8006c58:	f000 fcc4 	bl	80075e4 <__pow5mult>
 8006c5c:	9a05      	ldr	r2, [sp, #20]
 8006c5e:	0001      	movs	r1, r0
 8006c60:	0007      	movs	r7, r0
 8006c62:	9803      	ldr	r0, [sp, #12]
 8006c64:	f000 fc14 	bl	8007490 <__multiply>
 8006c68:	0006      	movs	r6, r0
 8006c6a:	9905      	ldr	r1, [sp, #20]
 8006c6c:	9803      	ldr	r0, [sp, #12]
 8006c6e:	f000 fb3f 	bl	80072f0 <_Bfree>
 8006c72:	9b0f      	ldr	r3, [sp, #60]	@ 0x3c
 8006c74:	9605      	str	r6, [sp, #20]
 8006c76:	1b5b      	subs	r3, r3, r5
 8006c78:	930f      	str	r3, [sp, #60]	@ 0x3c
 8006c7a:	d005      	beq.n	8006c88 <_dtoa_r+0x80c>
 8006c7c:	0031      	movs	r1, r6
 8006c7e:	9a0f      	ldr	r2, [sp, #60]	@ 0x3c
 8006c80:	9803      	ldr	r0, [sp, #12]
 8006c82:	f000 fcaf 	bl	80075e4 <__pow5mult>
 8006c86:	9005      	str	r0, [sp, #20]
 8006c88:	2101      	movs	r1, #1
 8006c8a:	9803      	ldr	r0, [sp, #12]
 8006c8c:	f000 fbe8 	bl	8007460 <__i2b>
 8006c90:	9b14      	ldr	r3, [sp, #80]	@ 0x50
 8006c92:	0006      	movs	r6, r0
 8006c94:	2b00      	cmp	r3, #0
 8006c96:	d100      	bne.n	8006c9a <_dtoa_r+0x81e>
 8006c98:	e1bc      	b.n	8007014 <_dtoa_r+0xb98>
 8006c9a:	001a      	movs	r2, r3
 8006c9c:	0001      	movs	r1, r0
 8006c9e:	9803      	ldr	r0, [sp, #12]
 8006ca0:	f000 fca0 	bl	80075e4 <__pow5mult>
 8006ca4:	9b22      	ldr	r3, [sp, #136]	@ 0x88
 8006ca6:	0006      	movs	r6, r0
 8006ca8:	2500      	movs	r5, #0
 8006caa:	2b01      	cmp	r3, #1
 8006cac:	dc16      	bgt.n	8006cdc <_dtoa_r+0x860>
 8006cae:	2500      	movs	r5, #0
 8006cb0:	9b0a      	ldr	r3, [sp, #40]	@ 0x28
 8006cb2:	42ab      	cmp	r3, r5
 8006cb4:	d10e      	bne.n	8006cd4 <_dtoa_r+0x858>
 8006cb6:	9b0b      	ldr	r3, [sp, #44]	@ 0x2c
 8006cb8:	031b      	lsls	r3, r3, #12
 8006cba:	42ab      	cmp	r3, r5
 8006cbc:	d10a      	bne.n	8006cd4 <_dtoa_r+0x858>
 8006cbe:	4b8d      	ldr	r3, [pc, #564]	@ (8006ef4 <_dtoa_r+0xa78>)
 8006cc0:	9a0b      	ldr	r2, [sp, #44]	@ 0x2c
 8006cc2:	4213      	tst	r3, r2
 8006cc4:	d006      	beq.n	8006cd4 <_dtoa_r+0x858>
 8006cc6:	9b06      	ldr	r3, [sp, #24]
 8006cc8:	3501      	adds	r5, #1
 8006cca:	3301      	adds	r3, #1
 8006ccc:	9306      	str	r3, [sp, #24]
 8006cce:	9b0d      	ldr	r3, [sp, #52]	@ 0x34
 8006cd0:	3301      	adds	r3, #1
 8006cd2:	930d      	str	r3, [sp, #52]	@ 0x34
 8006cd4:	9b14      	ldr	r3, [sp, #80]	@ 0x50
 8006cd6:	2001      	movs	r0, #1
 8006cd8:	2b00      	cmp	r3, #0
 8006cda:	d008      	beq.n	8006cee <_dtoa_r+0x872>
 8006cdc:	6933      	ldr	r3, [r6, #16]
 8006cde:	3303      	adds	r3, #3
 8006ce0:	009b      	lsls	r3, r3, #2
 8006ce2:	18f3      	adds	r3, r6, r3
 8006ce4:	6858      	ldr	r0, [r3, #4]
 8006ce6:	f000 fb6b 	bl	80073c0 <__hi0bits>
 8006cea:	2320      	movs	r3, #32
 8006cec:	1a18      	subs	r0, r3, r0
 8006cee:	9b0d      	ldr	r3, [sp, #52]	@ 0x34
 8006cf0:	1818      	adds	r0, r3, r0
 8006cf2:	0002      	movs	r2, r0
 8006cf4:	231f      	movs	r3, #31
 8006cf6:	401a      	ands	r2, r3
 8006cf8:	4218      	tst	r0, r3
 8006cfa:	d100      	bne.n	8006cfe <_dtoa_r+0x882>
 8006cfc:	e081      	b.n	8006e02 <_dtoa_r+0x986>
 8006cfe:	3301      	adds	r3, #1
 8006d00:	1a9b      	subs	r3, r3, r2
 8006d02:	2b04      	cmp	r3, #4
 8006d04:	dd79      	ble.n	8006dfa <_dtoa_r+0x97e>
 8006d06:	231c      	movs	r3, #28
 8006d08:	1a9b      	subs	r3, r3, r2
 8006d0a:	9a06      	ldr	r2, [sp, #24]
 8006d0c:	18e4      	adds	r4, r4, r3
 8006d0e:	18d2      	adds	r2, r2, r3
 8006d10:	9206      	str	r2, [sp, #24]
 8006d12:	9a0d      	ldr	r2, [sp, #52]	@ 0x34
 8006d14:	18d3      	adds	r3, r2, r3
 8006d16:	930d      	str	r3, [sp, #52]	@ 0x34
 8006d18:	9b06      	ldr	r3, [sp, #24]
 8006d1a:	2b00      	cmp	r3, #0
 8006d1c:	dd05      	ble.n	8006d2a <_dtoa_r+0x8ae>
 8006d1e:	001a      	movs	r2, r3
 8006d20:	9905      	ldr	r1, [sp, #20]
 8006d22:	9803      	ldr	r0, [sp, #12]
 8006d24:	f000 fcba 	bl	800769c <__lshift>
 8006d28:	9005      	str	r0, [sp, #20]
 8006d2a:	9b0d      	ldr	r3, [sp, #52]	@ 0x34
 8006d2c:	2b00      	cmp	r3, #0
 8006d2e:	dd05      	ble.n	8006d3c <_dtoa_r+0x8c0>
 8006d30:	0031      	movs	r1, r6
 8006d32:	001a      	movs	r2, r3
 8006d34:	9803      	ldr	r0, [sp, #12]
 8006d36:	f000 fcb1 	bl	800769c <__lshift>
 8006d3a:	0006      	movs	r6, r0
 8006d3c:	9b15      	ldr	r3, [sp, #84]	@ 0x54
 8006d3e:	2b00      	cmp	r3, #0
 8006d40:	d061      	beq.n	8006e06 <_dtoa_r+0x98a>
 8006d42:	0031      	movs	r1, r6
 8006d44:	9805      	ldr	r0, [sp, #20]
 8006d46:	f000 fd15 	bl	8007774 <__mcmp>
 8006d4a:	2800      	cmp	r0, #0
 8006d4c:	da5b      	bge.n	8006e06 <_dtoa_r+0x98a>
 8006d4e:	9b04      	ldr	r3, [sp, #16]
 8006d50:	220a      	movs	r2, #10
 8006d52:	3b01      	subs	r3, #1
 8006d54:	930c      	str	r3, [sp, #48]	@ 0x30
 8006d56:	9905      	ldr	r1, [sp, #20]
 8006d58:	2300      	movs	r3, #0
 8006d5a:	9803      	ldr	r0, [sp, #12]
 8006d5c:	f000 faec 	bl	8007338 <__multadd>
 8006d60:	9b10      	ldr	r3, [sp, #64]	@ 0x40
 8006d62:	9005      	str	r0, [sp, #20]
 8006d64:	2b00      	cmp	r3, #0
 8006d66:	d100      	bne.n	8006d6a <_dtoa_r+0x8ee>
 8006d68:	e15b      	b.n	8007022 <_dtoa_r+0xba6>
 8006d6a:	2300      	movs	r3, #0
 8006d6c:	0039      	movs	r1, r7
 8006d6e:	220a      	movs	r2, #10
 8006d70:	9803      	ldr	r0, [sp, #12]
 8006d72:	f000 fae1 	bl	8007338 <__multadd>
 8006d76:	9b0e      	ldr	r3, [sp, #56]	@ 0x38
 8006d78:	0007      	movs	r7, r0
 8006d7a:	2b00      	cmp	r3, #0
 8006d7c:	dc4d      	bgt.n	8006e1a <_dtoa_r+0x99e>
 8006d7e:	9b22      	ldr	r3, [sp, #136]	@ 0x88
 8006d80:	2b02      	cmp	r3, #2
 8006d82:	dd46      	ble.n	8006e12 <_dtoa_r+0x996>
 8006d84:	9b0e      	ldr	r3, [sp, #56]	@ 0x38
 8006d86:	2b00      	cmp	r3, #0
 8006d88:	d000      	beq.n	8006d8c <_dtoa_r+0x910>
 8006d8a:	e5db      	b.n	8006944 <_dtoa_r+0x4c8>
 8006d8c:	0031      	movs	r1, r6
 8006d8e:	2205      	movs	r2, #5
 8006d90:	9803      	ldr	r0, [sp, #12]
 8006d92:	f000 fad1 	bl	8007338 <__multadd>
 8006d96:	0006      	movs	r6, r0
 8006d98:	0001      	movs	r1, r0
 8006d9a:	9805      	ldr	r0, [sp, #20]
 8006d9c:	f000 fcea 	bl	8007774 <__mcmp>
 8006da0:	2800      	cmp	r0, #0
 8006da2:	dc00      	bgt.n	8006da6 <_dtoa_r+0x92a>
 8006da4:	e5ce      	b.n	8006944 <_dtoa_r+0x4c8>
 8006da6:	9b08      	ldr	r3, [sp, #32]
 8006da8:	9a08      	ldr	r2, [sp, #32]
 8006daa:	1c5c      	adds	r4, r3, #1
 8006dac:	2331      	movs	r3, #49	@ 0x31
 8006dae:	7013      	strb	r3, [r2, #0]
 8006db0:	9b0c      	ldr	r3, [sp, #48]	@ 0x30
 8006db2:	3301      	adds	r3, #1
 8006db4:	930c      	str	r3, [sp, #48]	@ 0x30
 8006db6:	e5c9      	b.n	800694c <_dtoa_r+0x4d0>
 8006db8:	2336      	movs	r3, #54	@ 0x36
 8006dba:	9a1a      	ldr	r2, [sp, #104]	@ 0x68
 8006dbc:	9d0f      	ldr	r5, [sp, #60]	@ 0x3c
 8006dbe:	1a9b      	subs	r3, r3, r2
 8006dc0:	9c06      	ldr	r4, [sp, #24]
 8006dc2:	e720      	b.n	8006c06 <_dtoa_r+0x78a>
 8006dc4:	9b09      	ldr	r3, [sp, #36]	@ 0x24
 8006dc6:	1e5d      	subs	r5, r3, #1
 8006dc8:	9b0f      	ldr	r3, [sp, #60]	@ 0x3c
 8006dca:	42ab      	cmp	r3, r5
 8006dcc:	db08      	blt.n	8006de0 <_dtoa_r+0x964>
 8006dce:	1b5d      	subs	r5, r3, r5
 8006dd0:	9b09      	ldr	r3, [sp, #36]	@ 0x24
 8006dd2:	2b00      	cmp	r3, #0
 8006dd4:	daf4      	bge.n	8006dc0 <_dtoa_r+0x944>
 8006dd6:	9b06      	ldr	r3, [sp, #24]
 8006dd8:	9a09      	ldr	r2, [sp, #36]	@ 0x24
 8006dda:	1a9c      	subs	r4, r3, r2
 8006ddc:	2300      	movs	r3, #0
 8006dde:	e712      	b.n	8006c06 <_dtoa_r+0x78a>
 8006de0:	9b0f      	ldr	r3, [sp, #60]	@ 0x3c
 8006de2:	9a14      	ldr	r2, [sp, #80]	@ 0x50
 8006de4:	1aeb      	subs	r3, r5, r3
 8006de6:	18d3      	adds	r3, r2, r3
 8006de8:	9314      	str	r3, [sp, #80]	@ 0x50
 8006dea:	950f      	str	r5, [sp, #60]	@ 0x3c
 8006dec:	9c06      	ldr	r4, [sp, #24]
 8006dee:	2500      	movs	r5, #0
 8006df0:	9b09      	ldr	r3, [sp, #36]	@ 0x24
 8006df2:	e708      	b.n	8006c06 <_dtoa_r+0x78a>
 8006df4:	9a0f      	ldr	r2, [sp, #60]	@ 0x3c
 8006df6:	9905      	ldr	r1, [sp, #20]
 8006df8:	e742      	b.n	8006c80 <_dtoa_r+0x804>
 8006dfa:	2b04      	cmp	r3, #4
 8006dfc:	d08c      	beq.n	8006d18 <_dtoa_r+0x89c>
 8006dfe:	331c      	adds	r3, #28
 8006e00:	e783      	b.n	8006d0a <_dtoa_r+0x88e>
 8006e02:	0013      	movs	r3, r2
 8006e04:	e7fb      	b.n	8006dfe <_dtoa_r+0x982>
 8006e06:	9b04      	ldr	r3, [sp, #16]
 8006e08:	930c      	str	r3, [sp, #48]	@ 0x30
 8006e0a:	9b09      	ldr	r3, [sp, #36]	@ 0x24
 8006e0c:	930e      	str	r3, [sp, #56]	@ 0x38
 8006e0e:	2b00      	cmp	r3, #0
 8006e10:	ddb5      	ble.n	8006d7e <_dtoa_r+0x902>
 8006e12:	9b10      	ldr	r3, [sp, #64]	@ 0x40
 8006e14:	2b00      	cmp	r3, #0
 8006e16:	d100      	bne.n	8006e1a <_dtoa_r+0x99e>
 8006e18:	e107      	b.n	800702a <_dtoa_r+0xbae>
 8006e1a:	2c00      	cmp	r4, #0
 8006e1c:	dd05      	ble.n	8006e2a <_dtoa_r+0x9ae>
 8006e1e:	0039      	movs	r1, r7
 8006e20:	0022      	movs	r2, r4
 8006e22:	9803      	ldr	r0, [sp, #12]
 8006e24:	f000 fc3a 	bl	800769c <__lshift>
 8006e28:	0007      	movs	r7, r0
 8006e2a:	9704      	str	r7, [sp, #16]
 8006e2c:	2d00      	cmp	r5, #0
 8006e2e:	d020      	beq.n	8006e72 <_dtoa_r+0x9f6>
 8006e30:	6879      	ldr	r1, [r7, #4]
 8006e32:	9803      	ldr	r0, [sp, #12]
 8006e34:	f000 fa18 	bl	8007268 <_Balloc>
 8006e38:	1e04      	subs	r4, r0, #0
 8006e3a:	d10c      	bne.n	8006e56 <_dtoa_r+0x9da>
 8006e3c:	0022      	movs	r2, r4
 8006e3e:	4b2e      	ldr	r3, [pc, #184]	@ (8006ef8 <_dtoa_r+0xa7c>)
 8006e40:	482e      	ldr	r0, [pc, #184]	@ (8006efc <_dtoa_r+0xa80>)
 8006e42:	492f      	ldr	r1, [pc, #188]	@ (8006f00 <_dtoa_r+0xa84>)
 8006e44:	f7ff fb2f 	bl	80064a6 <_dtoa_r+0x2a>
 8006e48:	9e11      	ldr	r6, [sp, #68]	@ 0x44
 8006e4a:	0037      	movs	r7, r6
 8006e4c:	e7ab      	b.n	8006da6 <_dtoa_r+0x92a>
 8006e4e:	9b04      	ldr	r3, [sp, #16]
 8006e50:	9e09      	ldr	r6, [sp, #36]	@ 0x24
 8006e52:	930c      	str	r3, [sp, #48]	@ 0x30
 8006e54:	e7f9      	b.n	8006e4a <_dtoa_r+0x9ce>
 8006e56:	0039      	movs	r1, r7
 8006e58:	693a      	ldr	r2, [r7, #16]
 8006e5a:	310c      	adds	r1, #12
 8006e5c:	3202      	adds	r2, #2
 8006e5e:	0092      	lsls	r2, r2, #2
 8006e60:	300c      	adds	r0, #12
 8006e62:	f001 f835 	bl	8007ed0 <memcpy>
 8006e66:	2201      	movs	r2, #1
 8006e68:	0021      	movs	r1, r4
 8006e6a:	9803      	ldr	r0, [sp, #12]
 8006e6c:	f000 fc16 	bl	800769c <__lshift>
 8006e70:	9004      	str	r0, [sp, #16]
 8006e72:	9b08      	ldr	r3, [sp, #32]
 8006e74:	9a0e      	ldr	r2, [sp, #56]	@ 0x38
 8006e76:	9306      	str	r3, [sp, #24]
 8006e78:	3b01      	subs	r3, #1
 8006e7a:	189b      	adds	r3, r3, r2
 8006e7c:	2201      	movs	r2, #1
 8006e7e:	930f      	str	r3, [sp, #60]	@ 0x3c
 8006e80:	9b0a      	ldr	r3, [sp, #40]	@ 0x28
 8006e82:	4013      	ands	r3, r2
 8006e84:	930e      	str	r3, [sp, #56]	@ 0x38
 8006e86:	0031      	movs	r1, r6
 8006e88:	9805      	ldr	r0, [sp, #20]
 8006e8a:	f7ff fa71 	bl	8006370 <quorem>
 8006e8e:	0039      	movs	r1, r7
 8006e90:	0005      	movs	r5, r0
 8006e92:	900a      	str	r0, [sp, #40]	@ 0x28
 8006e94:	9805      	ldr	r0, [sp, #20]
 8006e96:	f000 fc6d 	bl	8007774 <__mcmp>
 8006e9a:	9a04      	ldr	r2, [sp, #16]
 8006e9c:	900d      	str	r0, [sp, #52]	@ 0x34
 8006e9e:	0031      	movs	r1, r6
 8006ea0:	9803      	ldr	r0, [sp, #12]
 8006ea2:	f000 fc83 	bl	80077ac <__mdiff>
 8006ea6:	2201      	movs	r2, #1
 8006ea8:	68c3      	ldr	r3, [r0, #12]
 8006eaa:	0004      	movs	r4, r0
 8006eac:	3530      	adds	r5, #48	@ 0x30
 8006eae:	9209      	str	r2, [sp, #36]	@ 0x24
 8006eb0:	2b00      	cmp	r3, #0
 8006eb2:	d104      	bne.n	8006ebe <_dtoa_r+0xa42>
 8006eb4:	0001      	movs	r1, r0
 8006eb6:	9805      	ldr	r0, [sp, #20]
 8006eb8:	f000 fc5c 	bl	8007774 <__mcmp>
 8006ebc:	9009      	str	r0, [sp, #36]	@ 0x24
 8006ebe:	0021      	movs	r1, r4
 8006ec0:	9803      	ldr	r0, [sp, #12]
 8006ec2:	f000 fa15 	bl	80072f0 <_Bfree>
 8006ec6:	9b06      	ldr	r3, [sp, #24]
 8006ec8:	9a22      	ldr	r2, [sp, #136]	@ 0x88
 8006eca:	1c5c      	adds	r4, r3, #1
 8006ecc:	9b09      	ldr	r3, [sp, #36]	@ 0x24
 8006ece:	4313      	orrs	r3, r2
 8006ed0:	9a0e      	ldr	r2, [sp, #56]	@ 0x38
 8006ed2:	4313      	orrs	r3, r2
 8006ed4:	d116      	bne.n	8006f04 <_dtoa_r+0xa88>
 8006ed6:	2d39      	cmp	r5, #57	@ 0x39
 8006ed8:	d02f      	beq.n	8006f3a <_dtoa_r+0xabe>
 8006eda:	9b0d      	ldr	r3, [sp, #52]	@ 0x34
 8006edc:	2b00      	cmp	r3, #0
 8006ede:	dd01      	ble.n	8006ee4 <_dtoa_r+0xa68>
 8006ee0:	9d0a      	ldr	r5, [sp, #40]	@ 0x28
 8006ee2:	3531      	adds	r5, #49	@ 0x31
 8006ee4:	9b06      	ldr	r3, [sp, #24]
 8006ee6:	701d      	strb	r5, [r3, #0]
 8006ee8:	e532      	b.n	8006950 <_dtoa_r+0x4d4>
 8006eea:	46c0      	nop			@ (mov r8, r8)
 8006eec:	40240000 	.word	0x40240000
 8006ef0:	00000433 	.word	0x00000433
 8006ef4:	7ff00000 	.word	0x7ff00000
 8006ef8:	080082fd 	.word	0x080082fd
 8006efc:	080082a5 	.word	0x080082a5
 8006f00:	000002ef 	.word	0x000002ef
 8006f04:	9b0d      	ldr	r3, [sp, #52]	@ 0x34
 8006f06:	2b00      	cmp	r3, #0
 8006f08:	db04      	blt.n	8006f14 <_dtoa_r+0xa98>
 8006f0a:	9a22      	ldr	r2, [sp, #136]	@ 0x88
 8006f0c:	4313      	orrs	r3, r2
 8006f0e:	9a0e      	ldr	r2, [sp, #56]	@ 0x38
 8006f10:	4313      	orrs	r3, r2
 8006f12:	d11e      	bne.n	8006f52 <_dtoa_r+0xad6>
 8006f14:	9b09      	ldr	r3, [sp, #36]	@ 0x24
 8006f16:	2b00      	cmp	r3, #0
 8006f18:	dde4      	ble.n	8006ee4 <_dtoa_r+0xa68>
 8006f1a:	9905      	ldr	r1, [sp, #20]
 8006f1c:	2201      	movs	r2, #1
 8006f1e:	9803      	ldr	r0, [sp, #12]
 8006f20:	f000 fbbc 	bl	800769c <__lshift>
 8006f24:	0031      	movs	r1, r6
 8006f26:	9005      	str	r0, [sp, #20]
 8006f28:	f000 fc24 	bl	8007774 <__mcmp>
 8006f2c:	2800      	cmp	r0, #0
 8006f2e:	dc02      	bgt.n	8006f36 <_dtoa_r+0xaba>
 8006f30:	d1d8      	bne.n	8006ee4 <_dtoa_r+0xa68>
 8006f32:	07eb      	lsls	r3, r5, #31
 8006f34:	d5d6      	bpl.n	8006ee4 <_dtoa_r+0xa68>
 8006f36:	2d39      	cmp	r5, #57	@ 0x39
 8006f38:	d1d2      	bne.n	8006ee0 <_dtoa_r+0xa64>
 8006f3a:	2339      	movs	r3, #57	@ 0x39
 8006f3c:	9a06      	ldr	r2, [sp, #24]
 8006f3e:	7013      	strb	r3, [r2, #0]
 8006f40:	0023      	movs	r3, r4
 8006f42:	001c      	movs	r4, r3
 8006f44:	3b01      	subs	r3, #1
 8006f46:	781a      	ldrb	r2, [r3, #0]
 8006f48:	2a39      	cmp	r2, #57	@ 0x39
 8006f4a:	d050      	beq.n	8006fee <_dtoa_r+0xb72>
 8006f4c:	3201      	adds	r2, #1
 8006f4e:	701a      	strb	r2, [r3, #0]
 8006f50:	e4fe      	b.n	8006950 <_dtoa_r+0x4d4>
 8006f52:	9b09      	ldr	r3, [sp, #36]	@ 0x24
 8006f54:	2b00      	cmp	r3, #0
 8006f56:	dd03      	ble.n	8006f60 <_dtoa_r+0xae4>
 8006f58:	2d39      	cmp	r5, #57	@ 0x39
 8006f5a:	d0ee      	beq.n	8006f3a <_dtoa_r+0xabe>
 8006f5c:	3501      	adds	r5, #1
 8006f5e:	e7c1      	b.n	8006ee4 <_dtoa_r+0xa68>
 8006f60:	9b06      	ldr	r3, [sp, #24]
 8006f62:	9a06      	ldr	r2, [sp, #24]
 8006f64:	701d      	strb	r5, [r3, #0]
 8006f66:	9b0f      	ldr	r3, [sp, #60]	@ 0x3c
 8006f68:	4293      	cmp	r3, r2
 8006f6a:	d02b      	beq.n	8006fc4 <_dtoa_r+0xb48>
 8006f6c:	2300      	movs	r3, #0
 8006f6e:	220a      	movs	r2, #10
 8006f70:	9905      	ldr	r1, [sp, #20]
 8006f72:	9803      	ldr	r0, [sp, #12]
 8006f74:	f000 f9e0 	bl	8007338 <__multadd>
 8006f78:	9b04      	ldr	r3, [sp, #16]
 8006f7a:	9005      	str	r0, [sp, #20]
 8006f7c:	429f      	cmp	r7, r3
 8006f7e:	d109      	bne.n	8006f94 <_dtoa_r+0xb18>
 8006f80:	0039      	movs	r1, r7
 8006f82:	2300      	movs	r3, #0
 8006f84:	220a      	movs	r2, #10
 8006f86:	9803      	ldr	r0, [sp, #12]
 8006f88:	f000 f9d6 	bl	8007338 <__multadd>
 8006f8c:	0007      	movs	r7, r0
 8006f8e:	9004      	str	r0, [sp, #16]
 8006f90:	9406      	str	r4, [sp, #24]
 8006f92:	e778      	b.n	8006e86 <_dtoa_r+0xa0a>
 8006f94:	0039      	movs	r1, r7
 8006f96:	2300      	movs	r3, #0
 8006f98:	220a      	movs	r2, #10
 8006f9a:	9803      	ldr	r0, [sp, #12]
 8006f9c:	f000 f9cc 	bl	8007338 <__multadd>
 8006fa0:	2300      	movs	r3, #0
 8006fa2:	0007      	movs	r7, r0
 8006fa4:	220a      	movs	r2, #10
 8006fa6:	9904      	ldr	r1, [sp, #16]
 8006fa8:	9803      	ldr	r0, [sp, #12]
 8006faa:	f000 f9c5 	bl	8007338 <__multadd>
 8006fae:	9004      	str	r0, [sp, #16]
 8006fb0:	e7ee      	b.n	8006f90 <_dtoa_r+0xb14>
 8006fb2:	9b0e      	ldr	r3, [sp, #56]	@ 0x38
 8006fb4:	2401      	movs	r4, #1
 8006fb6:	2b00      	cmp	r3, #0
 8006fb8:	dd00      	ble.n	8006fbc <_dtoa_r+0xb40>
 8006fba:	001c      	movs	r4, r3
 8006fbc:	9704      	str	r7, [sp, #16]
 8006fbe:	2700      	movs	r7, #0
 8006fc0:	9b08      	ldr	r3, [sp, #32]
 8006fc2:	191c      	adds	r4, r3, r4
 8006fc4:	9905      	ldr	r1, [sp, #20]
 8006fc6:	2201      	movs	r2, #1
 8006fc8:	9803      	ldr	r0, [sp, #12]
 8006fca:	f000 fb67 	bl	800769c <__lshift>
 8006fce:	0031      	movs	r1, r6
 8006fd0:	9005      	str	r0, [sp, #20]
 8006fd2:	f000 fbcf 	bl	8007774 <__mcmp>
 8006fd6:	2800      	cmp	r0, #0
 8006fd8:	dcb2      	bgt.n	8006f40 <_dtoa_r+0xac4>
 8006fda:	d101      	bne.n	8006fe0 <_dtoa_r+0xb64>
 8006fdc:	07ed      	lsls	r5, r5, #31
 8006fde:	d4af      	bmi.n	8006f40 <_dtoa_r+0xac4>
 8006fe0:	0023      	movs	r3, r4
 8006fe2:	001c      	movs	r4, r3
 8006fe4:	3b01      	subs	r3, #1
 8006fe6:	781a      	ldrb	r2, [r3, #0]
 8006fe8:	2a30      	cmp	r2, #48	@ 0x30
 8006fea:	d0fa      	beq.n	8006fe2 <_dtoa_r+0xb66>
 8006fec:	e4b0      	b.n	8006950 <_dtoa_r+0x4d4>
 8006fee:	9a08      	ldr	r2, [sp, #32]
 8006ff0:	429a      	cmp	r2, r3
 8006ff2:	d1a6      	bne.n	8006f42 <_dtoa_r+0xac6>
 8006ff4:	9b0c      	ldr	r3, [sp, #48]	@ 0x30
 8006ff6:	3301      	adds	r3, #1
 8006ff8:	930c      	str	r3, [sp, #48]	@ 0x30
 8006ffa:	2331      	movs	r3, #49	@ 0x31
 8006ffc:	7013      	strb	r3, [r2, #0]
 8006ffe:	e4a7      	b.n	8006950 <_dtoa_r+0x4d4>
 8007000:	4b14      	ldr	r3, [pc, #80]	@ (8007054 <_dtoa_r+0xbd8>)
 8007002:	9a26      	ldr	r2, [sp, #152]	@ 0x98
 8007004:	9308      	str	r3, [sp, #32]
 8007006:	4b14      	ldr	r3, [pc, #80]	@ (8007058 <_dtoa_r+0xbdc>)
 8007008:	2a00      	cmp	r2, #0
 800700a:	d001      	beq.n	8007010 <_dtoa_r+0xb94>
 800700c:	f7ff fa7e 	bl	800650c <_dtoa_r+0x90>
 8007010:	f7ff fa7e 	bl	8006510 <_dtoa_r+0x94>
 8007014:	9b22      	ldr	r3, [sp, #136]	@ 0x88
 8007016:	2b01      	cmp	r3, #1
 8007018:	dc00      	bgt.n	800701c <_dtoa_r+0xba0>
 800701a:	e648      	b.n	8006cae <_dtoa_r+0x832>
 800701c:	2001      	movs	r0, #1
 800701e:	9d14      	ldr	r5, [sp, #80]	@ 0x50
 8007020:	e665      	b.n	8006cee <_dtoa_r+0x872>
 8007022:	9b0e      	ldr	r3, [sp, #56]	@ 0x38
 8007024:	2b00      	cmp	r3, #0
 8007026:	dc00      	bgt.n	800702a <_dtoa_r+0xbae>
 8007028:	e6a9      	b.n	8006d7e <_dtoa_r+0x902>
 800702a:	2400      	movs	r4, #0
 800702c:	0031      	movs	r1, r6
 800702e:	9805      	ldr	r0, [sp, #20]
 8007030:	f7ff f99e 	bl	8006370 <quorem>
 8007034:	9b08      	ldr	r3, [sp, #32]
 8007036:	3030      	adds	r0, #48	@ 0x30
 8007038:	5518      	strb	r0, [r3, r4]
 800703a:	9b0e      	ldr	r3, [sp, #56]	@ 0x38
 800703c:	3401      	adds	r4, #1
 800703e:	0005      	movs	r5, r0
 8007040:	42a3      	cmp	r3, r4
 8007042:	ddb6      	ble.n	8006fb2 <_dtoa_r+0xb36>
 8007044:	2300      	movs	r3, #0
 8007046:	220a      	movs	r2, #10
 8007048:	9905      	ldr	r1, [sp, #20]
 800704a:	9803      	ldr	r0, [sp, #12]
 800704c:	f000 f974 	bl	8007338 <__multadd>
 8007050:	9005      	str	r0, [sp, #20]
 8007052:	e7eb      	b.n	800702c <_dtoa_r+0xbb0>
 8007054:	08008281 	.word	0x08008281
 8007058:	08008289 	.word	0x08008289

0800705c <_free_r>:
 800705c:	b570      	push	{r4, r5, r6, lr}
 800705e:	0005      	movs	r5, r0
 8007060:	1e0c      	subs	r4, r1, #0
 8007062:	d010      	beq.n	8007086 <_free_r+0x2a>
 8007064:	3c04      	subs	r4, #4
 8007066:	6823      	ldr	r3, [r4, #0]
 8007068:	2b00      	cmp	r3, #0
 800706a:	da00      	bge.n	800706e <_free_r+0x12>
 800706c:	18e4      	adds	r4, r4, r3
 800706e:	0028      	movs	r0, r5
 8007070:	f000 f8ea 	bl	8007248 <__malloc_lock>
 8007074:	4a1d      	ldr	r2, [pc, #116]	@ (80070ec <_free_r+0x90>)
 8007076:	6813      	ldr	r3, [r2, #0]
 8007078:	2b00      	cmp	r3, #0
 800707a:	d105      	bne.n	8007088 <_free_r+0x2c>
 800707c:	6063      	str	r3, [r4, #4]
 800707e:	6014      	str	r4, [r2, #0]
 8007080:	0028      	movs	r0, r5
 8007082:	f000 f8e9 	bl	8007258 <__malloc_unlock>
 8007086:	bd70      	pop	{r4, r5, r6, pc}
 8007088:	42a3      	cmp	r3, r4
 800708a:	d908      	bls.n	800709e <_free_r+0x42>
 800708c:	6820      	ldr	r0, [r4, #0]
 800708e:	1821      	adds	r1, r4, r0
 8007090:	428b      	cmp	r3, r1
 8007092:	d1f3      	bne.n	800707c <_free_r+0x20>
 8007094:	6819      	ldr	r1, [r3, #0]
 8007096:	685b      	ldr	r3, [r3, #4]
 8007098:	1809      	adds	r1, r1, r0
 800709a:	6021      	str	r1, [r4, #0]
 800709c:	e7ee      	b.n	800707c <_free_r+0x20>
 800709e:	001a      	movs	r2, r3
 80070a0:	685b      	ldr	r3, [r3, #4]
 80070a2:	2b00      	cmp	r3, #0
 80070a4:	d001      	beq.n	80070aa <_free_r+0x4e>
 80070a6:	42a3      	cmp	r3, r4
 80070a8:	d9f9      	bls.n	800709e <_free_r+0x42>
 80070aa:	6811      	ldr	r1, [r2, #0]
 80070ac:	1850      	adds	r0, r2, r1
 80070ae:	42a0      	cmp	r0, r4
 80070b0:	d10b      	bne.n	80070ca <_free_r+0x6e>
 80070b2:	6820      	ldr	r0, [r4, #0]
 80070b4:	1809      	adds	r1, r1, r0
 80070b6:	1850      	adds	r0, r2, r1
 80070b8:	6011      	str	r1, [r2, #0]
 80070ba:	4283      	cmp	r3, r0
 80070bc:	d1e0      	bne.n	8007080 <_free_r+0x24>
 80070be:	6818      	ldr	r0, [r3, #0]
 80070c0:	685b      	ldr	r3, [r3, #4]
 80070c2:	1841      	adds	r1, r0, r1
 80070c4:	6011      	str	r1, [r2, #0]
 80070c6:	6053      	str	r3, [r2, #4]
 80070c8:	e7da      	b.n	8007080 <_free_r+0x24>
 80070ca:	42a0      	cmp	r0, r4
 80070cc:	d902      	bls.n	80070d4 <_free_r+0x78>
 80070ce:	230c      	movs	r3, #12
 80070d0:	602b      	str	r3, [r5, #0]
 80070d2:	e7d5      	b.n	8007080 <_free_r+0x24>
 80070d4:	6820      	ldr	r0, [r4, #0]
 80070d6:	1821      	adds	r1, r4, r0
 80070d8:	428b      	cmp	r3, r1
 80070da:	d103      	bne.n	80070e4 <_free_r+0x88>
 80070dc:	6819      	ldr	r1, [r3, #0]
 80070de:	685b      	ldr	r3, [r3, #4]
 80070e0:	1809      	adds	r1, r1, r0
 80070e2:	6021      	str	r1, [r4, #0]
 80070e4:	6063      	str	r3, [r4, #4]
 80070e6:	6054      	str	r4, [r2, #4]
 80070e8:	e7ca      	b.n	8007080 <_free_r+0x24>
 80070ea:	46c0      	nop			@ (mov r8, r8)
 80070ec:	20000428 	.word	0x20000428

080070f0 <malloc>:
 80070f0:	b510      	push	{r4, lr}
 80070f2:	4b03      	ldr	r3, [pc, #12]	@ (8007100 <malloc+0x10>)
 80070f4:	0001      	movs	r1, r0
 80070f6:	6818      	ldr	r0, [r3, #0]
 80070f8:	f000 f826 	bl	8007148 <_malloc_r>
 80070fc:	bd10      	pop	{r4, pc}
 80070fe:	46c0      	nop			@ (mov r8, r8)
 8007100:	20000018 	.word	0x20000018

08007104 <sbrk_aligned>:
 8007104:	b570      	push	{r4, r5, r6, lr}
 8007106:	4e0f      	ldr	r6, [pc, #60]	@ (8007144 <sbrk_aligned+0x40>)
 8007108:	000d      	movs	r5, r1
 800710a:	6831      	ldr	r1, [r6, #0]
 800710c:	0004      	movs	r4, r0
 800710e:	2900      	cmp	r1, #0
 8007110:	d102      	bne.n	8007118 <sbrk_aligned+0x14>
 8007112:	f000 fecb 	bl	8007eac <_sbrk_r>
 8007116:	6030      	str	r0, [r6, #0]
 8007118:	0029      	movs	r1, r5
 800711a:	0020      	movs	r0, r4
 800711c:	f000 fec6 	bl	8007eac <_sbrk_r>
 8007120:	1c43      	adds	r3, r0, #1
 8007122:	d103      	bne.n	800712c <sbrk_aligned+0x28>
 8007124:	2501      	movs	r5, #1
 8007126:	426d      	negs	r5, r5
 8007128:	0028      	movs	r0, r5
 800712a:	bd70      	pop	{r4, r5, r6, pc}
 800712c:	2303      	movs	r3, #3
 800712e:	1cc5      	adds	r5, r0, #3
 8007130:	439d      	bics	r5, r3
 8007132:	42a8      	cmp	r0, r5
 8007134:	d0f8      	beq.n	8007128 <sbrk_aligned+0x24>
 8007136:	1a29      	subs	r1, r5, r0
 8007138:	0020      	movs	r0, r4
 800713a:	f000 feb7 	bl	8007eac <_sbrk_r>
 800713e:	3001      	adds	r0, #1
 8007140:	d1f2      	bne.n	8007128 <sbrk_aligned+0x24>
 8007142:	e7ef      	b.n	8007124 <sbrk_aligned+0x20>
 8007144:	20000424 	.word	0x20000424

08007148 <_malloc_r>:
 8007148:	b5f7      	push	{r0, r1, r2, r4, r5, r6, r7, lr}
 800714a:	2203      	movs	r2, #3
 800714c:	1ccb      	adds	r3, r1, #3
 800714e:	4393      	bics	r3, r2
 8007150:	3308      	adds	r3, #8
 8007152:	0005      	movs	r5, r0
 8007154:	001f      	movs	r7, r3
 8007156:	2b0c      	cmp	r3, #12
 8007158:	d234      	bcs.n	80071c4 <_malloc_r+0x7c>
 800715a:	270c      	movs	r7, #12
 800715c:	42b9      	cmp	r1, r7
 800715e:	d833      	bhi.n	80071c8 <_malloc_r+0x80>
 8007160:	0028      	movs	r0, r5
 8007162:	f000 f871 	bl	8007248 <__malloc_lock>
 8007166:	4e37      	ldr	r6, [pc, #220]	@ (8007244 <_malloc_r+0xfc>)
 8007168:	6833      	ldr	r3, [r6, #0]
 800716a:	001c      	movs	r4, r3
 800716c:	2c00      	cmp	r4, #0
 800716e:	d12f      	bne.n	80071d0 <_malloc_r+0x88>
 8007170:	0039      	movs	r1, r7
 8007172:	0028      	movs	r0, r5
 8007174:	f7ff ffc6 	bl	8007104 <sbrk_aligned>
 8007178:	0004      	movs	r4, r0
 800717a:	1c43      	adds	r3, r0, #1
 800717c:	d15f      	bne.n	800723e <_malloc_r+0xf6>
 800717e:	6834      	ldr	r4, [r6, #0]
 8007180:	9400      	str	r4, [sp, #0]
 8007182:	9b00      	ldr	r3, [sp, #0]
 8007184:	2b00      	cmp	r3, #0
 8007186:	d14a      	bne.n	800721e <_malloc_r+0xd6>
 8007188:	2c00      	cmp	r4, #0
 800718a:	d052      	beq.n	8007232 <_malloc_r+0xea>
 800718c:	6823      	ldr	r3, [r4, #0]
 800718e:	0028      	movs	r0, r5
 8007190:	18e3      	adds	r3, r4, r3
 8007192:	9900      	ldr	r1, [sp, #0]
 8007194:	9301      	str	r3, [sp, #4]
 8007196:	f000 fe89 	bl	8007eac <_sbrk_r>
 800719a:	9b01      	ldr	r3, [sp, #4]
 800719c:	4283      	cmp	r3, r0
 800719e:	d148      	bne.n	8007232 <_malloc_r+0xea>
 80071a0:	6823      	ldr	r3, [r4, #0]
 80071a2:	0028      	movs	r0, r5
 80071a4:	1aff      	subs	r7, r7, r3
 80071a6:	0039      	movs	r1, r7
 80071a8:	f7ff ffac 	bl	8007104 <sbrk_aligned>
 80071ac:	3001      	adds	r0, #1
 80071ae:	d040      	beq.n	8007232 <_malloc_r+0xea>
 80071b0:	6823      	ldr	r3, [r4, #0]
 80071b2:	19db      	adds	r3, r3, r7
 80071b4:	6023      	str	r3, [r4, #0]
 80071b6:	6833      	ldr	r3, [r6, #0]
 80071b8:	685a      	ldr	r2, [r3, #4]
 80071ba:	2a00      	cmp	r2, #0
 80071bc:	d133      	bne.n	8007226 <_malloc_r+0xde>
 80071be:	9b00      	ldr	r3, [sp, #0]
 80071c0:	6033      	str	r3, [r6, #0]
 80071c2:	e019      	b.n	80071f8 <_malloc_r+0xb0>
 80071c4:	2b00      	cmp	r3, #0
 80071c6:	dac9      	bge.n	800715c <_malloc_r+0x14>
 80071c8:	230c      	movs	r3, #12
 80071ca:	602b      	str	r3, [r5, #0]
 80071cc:	2000      	movs	r0, #0
 80071ce:	bdfe      	pop	{r1, r2, r3, r4, r5, r6, r7, pc}
 80071d0:	6821      	ldr	r1, [r4, #0]
 80071d2:	1bc9      	subs	r1, r1, r7
 80071d4:	d420      	bmi.n	8007218 <_malloc_r+0xd0>
 80071d6:	290b      	cmp	r1, #11
 80071d8:	d90a      	bls.n	80071f0 <_malloc_r+0xa8>
 80071da:	19e2      	adds	r2, r4, r7
 80071dc:	6027      	str	r7, [r4, #0]
 80071de:	42a3      	cmp	r3, r4
 80071e0:	d104      	bne.n	80071ec <_malloc_r+0xa4>
 80071e2:	6032      	str	r2, [r6, #0]
 80071e4:	6863      	ldr	r3, [r4, #4]
 80071e6:	6011      	str	r1, [r2, #0]
 80071e8:	6053      	str	r3, [r2, #4]
 80071ea:	e005      	b.n	80071f8 <_malloc_r+0xb0>
 80071ec:	605a      	str	r2, [r3, #4]
 80071ee:	e7f9      	b.n	80071e4 <_malloc_r+0x9c>
 80071f0:	6862      	ldr	r2, [r4, #4]
 80071f2:	42a3      	cmp	r3, r4
 80071f4:	d10e      	bne.n	8007214 <_malloc_r+0xcc>
 80071f6:	6032      	str	r2, [r6, #0]
 80071f8:	0028      	movs	r0, r5
 80071fa:	f000 f82d 	bl	8007258 <__malloc_unlock>
 80071fe:	0020      	movs	r0, r4
 8007200:	2207      	movs	r2, #7
 8007202:	300b      	adds	r0, #11
 8007204:	1d23      	adds	r3, r4, #4
 8007206:	4390      	bics	r0, r2
 8007208:	1ac2      	subs	r2, r0, r3
 800720a:	4298      	cmp	r0, r3
 800720c:	d0df      	beq.n	80071ce <_malloc_r+0x86>
 800720e:	1a1b      	subs	r3, r3, r0
 8007210:	50a3      	str	r3, [r4, r2]
 8007212:	e7dc      	b.n	80071ce <_malloc_r+0x86>
 8007214:	605a      	str	r2, [r3, #4]
 8007216:	e7ef      	b.n	80071f8 <_malloc_r+0xb0>
 8007218:	0023      	movs	r3, r4
 800721a:	6864      	ldr	r4, [r4, #4]
 800721c:	e7a6      	b.n	800716c <_malloc_r+0x24>
 800721e:	9c00      	ldr	r4, [sp, #0]
 8007220:	6863      	ldr	r3, [r4, #4]
 8007222:	9300      	str	r3, [sp, #0]
 8007224:	e7ad      	b.n	8007182 <_malloc_r+0x3a>
 8007226:	001a      	movs	r2, r3
 8007228:	685b      	ldr	r3, [r3, #4]
 800722a:	42a3      	cmp	r3, r4
 800722c:	d1fb      	bne.n	8007226 <_malloc_r+0xde>
 800722e:	2300      	movs	r3, #0
 8007230:	e7da      	b.n	80071e8 <_malloc_r+0xa0>
 8007232:	230c      	movs	r3, #12
 8007234:	0028      	movs	r0, r5
 8007236:	602b      	str	r3, [r5, #0]
 8007238:	f000 f80e 	bl	8007258 <__malloc_unlock>
 800723c:	e7c6      	b.n	80071cc <_malloc_r+0x84>
 800723e:	6007      	str	r7, [r0, #0]
 8007240:	e7da      	b.n	80071f8 <_malloc_r+0xb0>
 8007242:	46c0      	nop			@ (mov r8, r8)
 8007244:	20000428 	.word	0x20000428

08007248 <__malloc_lock>:
 8007248:	b510      	push	{r4, lr}
 800724a:	4802      	ldr	r0, [pc, #8]	@ (8007254 <__malloc_lock+0xc>)
 800724c:	f7ff f883 	bl	8006356 <__retarget_lock_acquire_recursive>
 8007250:	bd10      	pop	{r4, pc}
 8007252:	46c0      	nop			@ (mov r8, r8)
 8007254:	20000420 	.word	0x20000420

08007258 <__malloc_unlock>:
 8007258:	b510      	push	{r4, lr}
 800725a:	4802      	ldr	r0, [pc, #8]	@ (8007264 <__malloc_unlock+0xc>)
 800725c:	f7ff f87c 	bl	8006358 <__retarget_lock_release_recursive>
 8007260:	bd10      	pop	{r4, pc}
 8007262:	46c0      	nop			@ (mov r8, r8)
 8007264:	20000420 	.word	0x20000420

08007268 <_Balloc>:
 8007268:	b570      	push	{r4, r5, r6, lr}
 800726a:	69c5      	ldr	r5, [r0, #28]
 800726c:	0006      	movs	r6, r0
 800726e:	000c      	movs	r4, r1
 8007270:	2d00      	cmp	r5, #0
 8007272:	d10e      	bne.n	8007292 <_Balloc+0x2a>
 8007274:	2010      	movs	r0, #16
 8007276:	f7ff ff3b 	bl	80070f0 <malloc>
 800727a:	1e02      	subs	r2, r0, #0
 800727c:	61f0      	str	r0, [r6, #28]
 800727e:	d104      	bne.n	800728a <_Balloc+0x22>
 8007280:	216b      	movs	r1, #107	@ 0x6b
 8007282:	4b19      	ldr	r3, [pc, #100]	@ (80072e8 <_Balloc+0x80>)
 8007284:	4819      	ldr	r0, [pc, #100]	@ (80072ec <_Balloc+0x84>)
 8007286:	f000 fe2d 	bl	8007ee4 <__assert_func>
 800728a:	6045      	str	r5, [r0, #4]
 800728c:	6085      	str	r5, [r0, #8]
 800728e:	6005      	str	r5, [r0, #0]
 8007290:	60c5      	str	r5, [r0, #12]
 8007292:	69f5      	ldr	r5, [r6, #28]
 8007294:	68eb      	ldr	r3, [r5, #12]
 8007296:	2b00      	cmp	r3, #0
 8007298:	d013      	beq.n	80072c2 <_Balloc+0x5a>
 800729a:	69f3      	ldr	r3, [r6, #28]
 800729c:	00a2      	lsls	r2, r4, #2
 800729e:	68db      	ldr	r3, [r3, #12]
 80072a0:	189b      	adds	r3, r3, r2
 80072a2:	6818      	ldr	r0, [r3, #0]
 80072a4:	2800      	cmp	r0, #0
 80072a6:	d118      	bne.n	80072da <_Balloc+0x72>
 80072a8:	2101      	movs	r1, #1
 80072aa:	000d      	movs	r5, r1
 80072ac:	40a5      	lsls	r5, r4
 80072ae:	1d6a      	adds	r2, r5, #5
 80072b0:	0030      	movs	r0, r6
 80072b2:	0092      	lsls	r2, r2, #2
 80072b4:	f000 fe34 	bl	8007f20 <_calloc_r>
 80072b8:	2800      	cmp	r0, #0
 80072ba:	d00c      	beq.n	80072d6 <_Balloc+0x6e>
 80072bc:	6044      	str	r4, [r0, #4]
 80072be:	6085      	str	r5, [r0, #8]
 80072c0:	e00d      	b.n	80072de <_Balloc+0x76>
 80072c2:	2221      	movs	r2, #33	@ 0x21
 80072c4:	2104      	movs	r1, #4
 80072c6:	0030      	movs	r0, r6
 80072c8:	f000 fe2a 	bl	8007f20 <_calloc_r>
 80072cc:	69f3      	ldr	r3, [r6, #28]
 80072ce:	60e8      	str	r0, [r5, #12]
 80072d0:	68db      	ldr	r3, [r3, #12]
 80072d2:	2b00      	cmp	r3, #0
 80072d4:	d1e1      	bne.n	800729a <_Balloc+0x32>
 80072d6:	2000      	movs	r0, #0
 80072d8:	bd70      	pop	{r4, r5, r6, pc}
 80072da:	6802      	ldr	r2, [r0, #0]
 80072dc:	601a      	str	r2, [r3, #0]
 80072de:	2300      	movs	r3, #0
 80072e0:	6103      	str	r3, [r0, #16]
 80072e2:	60c3      	str	r3, [r0, #12]
 80072e4:	e7f8      	b.n	80072d8 <_Balloc+0x70>
 80072e6:	46c0      	nop			@ (mov r8, r8)
 80072e8:	0800828e 	.word	0x0800828e
 80072ec:	0800830e 	.word	0x0800830e

080072f0 <_Bfree>:
 80072f0:	b570      	push	{r4, r5, r6, lr}
 80072f2:	69c6      	ldr	r6, [r0, #28]
 80072f4:	0005      	movs	r5, r0
 80072f6:	000c      	movs	r4, r1
 80072f8:	2e00      	cmp	r6, #0
 80072fa:	d10e      	bne.n	800731a <_Bfree+0x2a>
 80072fc:	2010      	movs	r0, #16
 80072fe:	f7ff fef7 	bl	80070f0 <malloc>
 8007302:	1e02      	subs	r2, r0, #0
 8007304:	61e8      	str	r0, [r5, #28]
 8007306:	d104      	bne.n	8007312 <_Bfree+0x22>
 8007308:	218f      	movs	r1, #143	@ 0x8f
 800730a:	4b09      	ldr	r3, [pc, #36]	@ (8007330 <_Bfree+0x40>)
 800730c:	4809      	ldr	r0, [pc, #36]	@ (8007334 <_Bfree+0x44>)
 800730e:	f000 fde9 	bl	8007ee4 <__assert_func>
 8007312:	6046      	str	r6, [r0, #4]
 8007314:	6086      	str	r6, [r0, #8]
 8007316:	6006      	str	r6, [r0, #0]
 8007318:	60c6      	str	r6, [r0, #12]
 800731a:	2c00      	cmp	r4, #0
 800731c:	d007      	beq.n	800732e <_Bfree+0x3e>
 800731e:	69eb      	ldr	r3, [r5, #28]
 8007320:	6862      	ldr	r2, [r4, #4]
 8007322:	68db      	ldr	r3, [r3, #12]
 8007324:	0092      	lsls	r2, r2, #2
 8007326:	189b      	adds	r3, r3, r2
 8007328:	681a      	ldr	r2, [r3, #0]
 800732a:	6022      	str	r2, [r4, #0]
 800732c:	601c      	str	r4, [r3, #0]
 800732e:	bd70      	pop	{r4, r5, r6, pc}
 8007330:	0800828e 	.word	0x0800828e
 8007334:	0800830e 	.word	0x0800830e

08007338 <__multadd>:
 8007338:	b5f7      	push	{r0, r1, r2, r4, r5, r6, r7, lr}
 800733a:	000f      	movs	r7, r1
 800733c:	9001      	str	r0, [sp, #4]
 800733e:	000c      	movs	r4, r1
 8007340:	001e      	movs	r6, r3
 8007342:	2000      	movs	r0, #0
 8007344:	690d      	ldr	r5, [r1, #16]
 8007346:	3714      	adds	r7, #20
 8007348:	683b      	ldr	r3, [r7, #0]
 800734a:	3001      	adds	r0, #1
 800734c:	b299      	uxth	r1, r3
 800734e:	4351      	muls	r1, r2
 8007350:	0c1b      	lsrs	r3, r3, #16
 8007352:	4353      	muls	r3, r2
 8007354:	1989      	adds	r1, r1, r6
 8007356:	0c0e      	lsrs	r6, r1, #16
 8007358:	199b      	adds	r3, r3, r6
 800735a:	0c1e      	lsrs	r6, r3, #16
 800735c:	b289      	uxth	r1, r1
 800735e:	041b      	lsls	r3, r3, #16
 8007360:	185b      	adds	r3, r3, r1
 8007362:	c708      	stmia	r7!, {r3}
 8007364:	4285      	cmp	r5, r0
 8007366:	dcef      	bgt.n	8007348 <__multadd+0x10>
 8007368:	2e00      	cmp	r6, #0
 800736a:	d022      	beq.n	80073b2 <__multadd+0x7a>
 800736c:	68a3      	ldr	r3, [r4, #8]
 800736e:	42ab      	cmp	r3, r5
 8007370:	dc19      	bgt.n	80073a6 <__multadd+0x6e>
 8007372:	6861      	ldr	r1, [r4, #4]
 8007374:	9801      	ldr	r0, [sp, #4]
 8007376:	3101      	adds	r1, #1
 8007378:	f7ff ff76 	bl	8007268 <_Balloc>
 800737c:	1e07      	subs	r7, r0, #0
 800737e:	d105      	bne.n	800738c <__multadd+0x54>
 8007380:	003a      	movs	r2, r7
 8007382:	21ba      	movs	r1, #186	@ 0xba
 8007384:	4b0c      	ldr	r3, [pc, #48]	@ (80073b8 <__multadd+0x80>)
 8007386:	480d      	ldr	r0, [pc, #52]	@ (80073bc <__multadd+0x84>)
 8007388:	f000 fdac 	bl	8007ee4 <__assert_func>
 800738c:	0021      	movs	r1, r4
 800738e:	6922      	ldr	r2, [r4, #16]
 8007390:	310c      	adds	r1, #12
 8007392:	3202      	adds	r2, #2
 8007394:	0092      	lsls	r2, r2, #2
 8007396:	300c      	adds	r0, #12
 8007398:	f000 fd9a 	bl	8007ed0 <memcpy>
 800739c:	0021      	movs	r1, r4
 800739e:	9801      	ldr	r0, [sp, #4]
 80073a0:	f7ff ffa6 	bl	80072f0 <_Bfree>
 80073a4:	003c      	movs	r4, r7
 80073a6:	1d2b      	adds	r3, r5, #4
 80073a8:	009b      	lsls	r3, r3, #2
 80073aa:	18e3      	adds	r3, r4, r3
 80073ac:	3501      	adds	r5, #1
 80073ae:	605e      	str	r6, [r3, #4]
 80073b0:	6125      	str	r5, [r4, #16]
 80073b2:	0020      	movs	r0, r4
 80073b4:	bdfe      	pop	{r1, r2, r3, r4, r5, r6, r7, pc}
 80073b6:	46c0      	nop			@ (mov r8, r8)
 80073b8:	080082fd 	.word	0x080082fd
 80073bc:	0800830e 	.word	0x0800830e

080073c0 <__hi0bits>:
 80073c0:	2280      	movs	r2, #128	@ 0x80
 80073c2:	0003      	movs	r3, r0
 80073c4:	0252      	lsls	r2, r2, #9
 80073c6:	2000      	movs	r0, #0
 80073c8:	4293      	cmp	r3, r2
 80073ca:	d201      	bcs.n	80073d0 <__hi0bits+0x10>
 80073cc:	041b      	lsls	r3, r3, #16
 80073ce:	3010      	adds	r0, #16
 80073d0:	2280      	movs	r2, #128	@ 0x80
 80073d2:	0452      	lsls	r2, r2, #17
 80073d4:	4293      	cmp	r3, r2
 80073d6:	d201      	bcs.n	80073dc <__hi0bits+0x1c>
 80073d8:	3008      	adds	r0, #8
 80073da:	021b      	lsls	r3, r3, #8
 80073dc:	2280      	movs	r2, #128	@ 0x80
 80073de:	0552      	lsls	r2, r2, #21
 80073e0:	4293      	cmp	r3, r2
 80073e2:	d201      	bcs.n	80073e8 <__hi0bits+0x28>
 80073e4:	3004      	adds	r0, #4
 80073e6:	011b      	lsls	r3, r3, #4
 80073e8:	2280      	movs	r2, #128	@ 0x80
 80073ea:	05d2      	lsls	r2, r2, #23
 80073ec:	4293      	cmp	r3, r2
 80073ee:	d201      	bcs.n	80073f4 <__hi0bits+0x34>
 80073f0:	3002      	adds	r0, #2
 80073f2:	009b      	lsls	r3, r3, #2
 80073f4:	2b00      	cmp	r3, #0
 80073f6:	db03      	blt.n	8007400 <__hi0bits+0x40>
 80073f8:	3001      	adds	r0, #1
 80073fa:	4213      	tst	r3, r2
 80073fc:	d100      	bne.n	8007400 <__hi0bits+0x40>
 80073fe:	2020      	movs	r0, #32
 8007400:	4770      	bx	lr

08007402 <__lo0bits>:
 8007402:	6803      	ldr	r3, [r0, #0]
 8007404:	0001      	movs	r1, r0
 8007406:	2207      	movs	r2, #7
 8007408:	0018      	movs	r0, r3
 800740a:	4010      	ands	r0, r2
 800740c:	4213      	tst	r3, r2
 800740e:	d00d      	beq.n	800742c <__lo0bits+0x2a>
 8007410:	3a06      	subs	r2, #6
 8007412:	2000      	movs	r0, #0
 8007414:	4213      	tst	r3, r2
 8007416:	d105      	bne.n	8007424 <__lo0bits+0x22>
 8007418:	3002      	adds	r0, #2
 800741a:	4203      	tst	r3, r0
 800741c:	d003      	beq.n	8007426 <__lo0bits+0x24>
 800741e:	40d3      	lsrs	r3, r2
 8007420:	0010      	movs	r0, r2
 8007422:	600b      	str	r3, [r1, #0]
 8007424:	4770      	bx	lr
 8007426:	089b      	lsrs	r3, r3, #2
 8007428:	600b      	str	r3, [r1, #0]
 800742a:	e7fb      	b.n	8007424 <__lo0bits+0x22>
 800742c:	b29a      	uxth	r2, r3
 800742e:	2a00      	cmp	r2, #0
 8007430:	d101      	bne.n	8007436 <__lo0bits+0x34>
 8007432:	2010      	movs	r0, #16
 8007434:	0c1b      	lsrs	r3, r3, #16
 8007436:	b2da      	uxtb	r2, r3
 8007438:	2a00      	cmp	r2, #0
 800743a:	d101      	bne.n	8007440 <__lo0bits+0x3e>
 800743c:	3008      	adds	r0, #8
 800743e:	0a1b      	lsrs	r3, r3, #8
 8007440:	071a      	lsls	r2, r3, #28
 8007442:	d101      	bne.n	8007448 <__lo0bits+0x46>
 8007444:	3004      	adds	r0, #4
 8007446:	091b      	lsrs	r3, r3, #4
 8007448:	079a      	lsls	r2, r3, #30
 800744a:	d101      	bne.n	8007450 <__lo0bits+0x4e>
 800744c:	3002      	adds	r0, #2
 800744e:	089b      	lsrs	r3, r3, #2
 8007450:	07da      	lsls	r2, r3, #31
 8007452:	d4e9      	bmi.n	8007428 <__lo0bits+0x26>
 8007454:	3001      	adds	r0, #1
 8007456:	085b      	lsrs	r3, r3, #1
 8007458:	d1e6      	bne.n	8007428 <__lo0bits+0x26>
 800745a:	2020      	movs	r0, #32
 800745c:	e7e2      	b.n	8007424 <__lo0bits+0x22>
	...

08007460 <__i2b>:
 8007460:	b510      	push	{r4, lr}
 8007462:	000c      	movs	r4, r1
 8007464:	2101      	movs	r1, #1
 8007466:	f7ff feff 	bl	8007268 <_Balloc>
 800746a:	2800      	cmp	r0, #0
 800746c:	d107      	bne.n	800747e <__i2b+0x1e>
 800746e:	2146      	movs	r1, #70	@ 0x46
 8007470:	4c05      	ldr	r4, [pc, #20]	@ (8007488 <__i2b+0x28>)
 8007472:	0002      	movs	r2, r0
 8007474:	4b05      	ldr	r3, [pc, #20]	@ (800748c <__i2b+0x2c>)
 8007476:	0020      	movs	r0, r4
 8007478:	31ff      	adds	r1, #255	@ 0xff
 800747a:	f000 fd33 	bl	8007ee4 <__assert_func>
 800747e:	2301      	movs	r3, #1
 8007480:	6144      	str	r4, [r0, #20]
 8007482:	6103      	str	r3, [r0, #16]
 8007484:	bd10      	pop	{r4, pc}
 8007486:	46c0      	nop			@ (mov r8, r8)
 8007488:	0800830e 	.word	0x0800830e
 800748c:	080082fd 	.word	0x080082fd

08007490 <__multiply>:
 8007490:	b5f0      	push	{r4, r5, r6, r7, lr}
 8007492:	0014      	movs	r4, r2
 8007494:	690a      	ldr	r2, [r1, #16]
 8007496:	6923      	ldr	r3, [r4, #16]
 8007498:	000d      	movs	r5, r1
 800749a:	b089      	sub	sp, #36	@ 0x24
 800749c:	429a      	cmp	r2, r3
 800749e:	db02      	blt.n	80074a6 <__multiply+0x16>
 80074a0:	0023      	movs	r3, r4
 80074a2:	000c      	movs	r4, r1
 80074a4:	001d      	movs	r5, r3
 80074a6:	6927      	ldr	r7, [r4, #16]
 80074a8:	692e      	ldr	r6, [r5, #16]
 80074aa:	6861      	ldr	r1, [r4, #4]
 80074ac:	19bb      	adds	r3, r7, r6
 80074ae:	9300      	str	r3, [sp, #0]
 80074b0:	68a3      	ldr	r3, [r4, #8]
 80074b2:	19ba      	adds	r2, r7, r6
 80074b4:	4293      	cmp	r3, r2
 80074b6:	da00      	bge.n	80074ba <__multiply+0x2a>
 80074b8:	3101      	adds	r1, #1
 80074ba:	f7ff fed5 	bl	8007268 <_Balloc>
 80074be:	4684      	mov	ip, r0
 80074c0:	2800      	cmp	r0, #0
 80074c2:	d106      	bne.n	80074d2 <__multiply+0x42>
 80074c4:	21b1      	movs	r1, #177	@ 0xb1
 80074c6:	4662      	mov	r2, ip
 80074c8:	4b44      	ldr	r3, [pc, #272]	@ (80075dc <__multiply+0x14c>)
 80074ca:	4845      	ldr	r0, [pc, #276]	@ (80075e0 <__multiply+0x150>)
 80074cc:	0049      	lsls	r1, r1, #1
 80074ce:	f000 fd09 	bl	8007ee4 <__assert_func>
 80074d2:	0002      	movs	r2, r0
 80074d4:	19bb      	adds	r3, r7, r6
 80074d6:	3214      	adds	r2, #20
 80074d8:	009b      	lsls	r3, r3, #2
 80074da:	18d3      	adds	r3, r2, r3
 80074dc:	9301      	str	r3, [sp, #4]
 80074de:	2100      	movs	r1, #0
 80074e0:	0013      	movs	r3, r2
 80074e2:	9801      	ldr	r0, [sp, #4]
 80074e4:	4283      	cmp	r3, r0
 80074e6:	d328      	bcc.n	800753a <__multiply+0xaa>
 80074e8:	0023      	movs	r3, r4
 80074ea:	00bf      	lsls	r7, r7, #2
 80074ec:	3314      	adds	r3, #20
 80074ee:	9304      	str	r3, [sp, #16]
 80074f0:	3514      	adds	r5, #20
 80074f2:	19db      	adds	r3, r3, r7
 80074f4:	00b6      	lsls	r6, r6, #2
 80074f6:	9302      	str	r3, [sp, #8]
 80074f8:	19ab      	adds	r3, r5, r6
 80074fa:	9307      	str	r3, [sp, #28]
 80074fc:	2304      	movs	r3, #4
 80074fe:	9305      	str	r3, [sp, #20]
 8007500:	0023      	movs	r3, r4
 8007502:	9902      	ldr	r1, [sp, #8]
 8007504:	3315      	adds	r3, #21
 8007506:	4299      	cmp	r1, r3
 8007508:	d305      	bcc.n	8007516 <__multiply+0x86>
 800750a:	1b0c      	subs	r4, r1, r4
 800750c:	3c15      	subs	r4, #21
 800750e:	08a4      	lsrs	r4, r4, #2
 8007510:	3401      	adds	r4, #1
 8007512:	00a3      	lsls	r3, r4, #2
 8007514:	9305      	str	r3, [sp, #20]
 8007516:	9b07      	ldr	r3, [sp, #28]
 8007518:	429d      	cmp	r5, r3
 800751a:	d310      	bcc.n	800753e <__multiply+0xae>
 800751c:	9b00      	ldr	r3, [sp, #0]
 800751e:	2b00      	cmp	r3, #0
 8007520:	dd05      	ble.n	800752e <__multiply+0x9e>
 8007522:	9b01      	ldr	r3, [sp, #4]
 8007524:	3b04      	subs	r3, #4
 8007526:	9301      	str	r3, [sp, #4]
 8007528:	681b      	ldr	r3, [r3, #0]
 800752a:	2b00      	cmp	r3, #0
 800752c:	d052      	beq.n	80075d4 <__multiply+0x144>
 800752e:	4663      	mov	r3, ip
 8007530:	4660      	mov	r0, ip
 8007532:	9a00      	ldr	r2, [sp, #0]
 8007534:	611a      	str	r2, [r3, #16]
 8007536:	b009      	add	sp, #36	@ 0x24
 8007538:	bdf0      	pop	{r4, r5, r6, r7, pc}
 800753a:	c302      	stmia	r3!, {r1}
 800753c:	e7d1      	b.n	80074e2 <__multiply+0x52>
 800753e:	682c      	ldr	r4, [r5, #0]
 8007540:	b2a4      	uxth	r4, r4
 8007542:	2c00      	cmp	r4, #0
 8007544:	d01f      	beq.n	8007586 <__multiply+0xf6>
 8007546:	2300      	movs	r3, #0
 8007548:	0017      	movs	r7, r2
 800754a:	9e04      	ldr	r6, [sp, #16]
 800754c:	9303      	str	r3, [sp, #12]
 800754e:	ce08      	ldmia	r6!, {r3}
 8007550:	6839      	ldr	r1, [r7, #0]
 8007552:	9306      	str	r3, [sp, #24]
 8007554:	466b      	mov	r3, sp
 8007556:	8b1b      	ldrh	r3, [r3, #24]
 8007558:	b288      	uxth	r0, r1
 800755a:	4363      	muls	r3, r4
 800755c:	181b      	adds	r3, r3, r0
 800755e:	9803      	ldr	r0, [sp, #12]
 8007560:	0c09      	lsrs	r1, r1, #16
 8007562:	181b      	adds	r3, r3, r0
 8007564:	9806      	ldr	r0, [sp, #24]
 8007566:	0c00      	lsrs	r0, r0, #16
 8007568:	4360      	muls	r0, r4
 800756a:	1840      	adds	r0, r0, r1
 800756c:	0c19      	lsrs	r1, r3, #16
 800756e:	1841      	adds	r1, r0, r1
 8007570:	0c08      	lsrs	r0, r1, #16
 8007572:	b29b      	uxth	r3, r3
 8007574:	0409      	lsls	r1, r1, #16
 8007576:	4319      	orrs	r1, r3
 8007578:	9b02      	ldr	r3, [sp, #8]
 800757a:	9003      	str	r0, [sp, #12]
 800757c:	c702      	stmia	r7!, {r1}
 800757e:	42b3      	cmp	r3, r6
 8007580:	d8e5      	bhi.n	800754e <__multiply+0xbe>
 8007582:	9b05      	ldr	r3, [sp, #20]
 8007584:	50d0      	str	r0, [r2, r3]
 8007586:	682c      	ldr	r4, [r5, #0]
 8007588:	0c24      	lsrs	r4, r4, #16
 800758a:	d020      	beq.n	80075ce <__multiply+0x13e>
 800758c:	2100      	movs	r1, #0
 800758e:	0010      	movs	r0, r2
 8007590:	6813      	ldr	r3, [r2, #0]
 8007592:	9e04      	ldr	r6, [sp, #16]
 8007594:	9103      	str	r1, [sp, #12]
 8007596:	6831      	ldr	r1, [r6, #0]
 8007598:	6807      	ldr	r7, [r0, #0]
 800759a:	b289      	uxth	r1, r1
 800759c:	4361      	muls	r1, r4
 800759e:	0c3f      	lsrs	r7, r7, #16
 80075a0:	19c9      	adds	r1, r1, r7
 80075a2:	9f03      	ldr	r7, [sp, #12]
 80075a4:	b29b      	uxth	r3, r3
 80075a6:	19c9      	adds	r1, r1, r7
 80075a8:	040f      	lsls	r7, r1, #16
 80075aa:	431f      	orrs	r7, r3
 80075ac:	6007      	str	r7, [r0, #0]
 80075ae:	ce80      	ldmia	r6!, {r7}
 80075b0:	6843      	ldr	r3, [r0, #4]
 80075b2:	0c3f      	lsrs	r7, r7, #16
 80075b4:	4367      	muls	r7, r4
 80075b6:	b29b      	uxth	r3, r3
 80075b8:	0c09      	lsrs	r1, r1, #16
 80075ba:	18fb      	adds	r3, r7, r3
 80075bc:	185b      	adds	r3, r3, r1
 80075be:	0c19      	lsrs	r1, r3, #16
 80075c0:	9103      	str	r1, [sp, #12]
 80075c2:	9902      	ldr	r1, [sp, #8]
 80075c4:	3004      	adds	r0, #4
 80075c6:	42b1      	cmp	r1, r6
 80075c8:	d8e5      	bhi.n	8007596 <__multiply+0x106>
 80075ca:	9905      	ldr	r1, [sp, #20]
 80075cc:	5053      	str	r3, [r2, r1]
 80075ce:	3504      	adds	r5, #4
 80075d0:	3204      	adds	r2, #4
 80075d2:	e7a0      	b.n	8007516 <__multiply+0x86>
 80075d4:	9b00      	ldr	r3, [sp, #0]
 80075d6:	3b01      	subs	r3, #1
 80075d8:	9300      	str	r3, [sp, #0]
 80075da:	e79f      	b.n	800751c <__multiply+0x8c>
 80075dc:	080082fd 	.word	0x080082fd
 80075e0:	0800830e 	.word	0x0800830e

080075e4 <__pow5mult>:
 80075e4:	b5f7      	push	{r0, r1, r2, r4, r5, r6, r7, lr}
 80075e6:	2303      	movs	r3, #3
 80075e8:	0015      	movs	r5, r2
 80075ea:	0007      	movs	r7, r0
 80075ec:	000e      	movs	r6, r1
 80075ee:	401a      	ands	r2, r3
 80075f0:	421d      	tst	r5, r3
 80075f2:	d008      	beq.n	8007606 <__pow5mult+0x22>
 80075f4:	4925      	ldr	r1, [pc, #148]	@ (800768c <__pow5mult+0xa8>)
 80075f6:	3a01      	subs	r2, #1
 80075f8:	0092      	lsls	r2, r2, #2
 80075fa:	5852      	ldr	r2, [r2, r1]
 80075fc:	2300      	movs	r3, #0
 80075fe:	0031      	movs	r1, r6
 8007600:	f7ff fe9a 	bl	8007338 <__multadd>
 8007604:	0006      	movs	r6, r0
 8007606:	10ad      	asrs	r5, r5, #2
 8007608:	d03d      	beq.n	8007686 <__pow5mult+0xa2>
 800760a:	69fc      	ldr	r4, [r7, #28]
 800760c:	2c00      	cmp	r4, #0
 800760e:	d10f      	bne.n	8007630 <__pow5mult+0x4c>
 8007610:	2010      	movs	r0, #16
 8007612:	f7ff fd6d 	bl	80070f0 <malloc>
 8007616:	1e02      	subs	r2, r0, #0
 8007618:	61f8      	str	r0, [r7, #28]
 800761a:	d105      	bne.n	8007628 <__pow5mult+0x44>
 800761c:	21b4      	movs	r1, #180	@ 0xb4
 800761e:	4b1c      	ldr	r3, [pc, #112]	@ (8007690 <__pow5mult+0xac>)
 8007620:	481c      	ldr	r0, [pc, #112]	@ (8007694 <__pow5mult+0xb0>)
 8007622:	31ff      	adds	r1, #255	@ 0xff
 8007624:	f000 fc5e 	bl	8007ee4 <__assert_func>
 8007628:	6044      	str	r4, [r0, #4]
 800762a:	6084      	str	r4, [r0, #8]
 800762c:	6004      	str	r4, [r0, #0]
 800762e:	60c4      	str	r4, [r0, #12]
 8007630:	69fb      	ldr	r3, [r7, #28]
 8007632:	689c      	ldr	r4, [r3, #8]
 8007634:	9301      	str	r3, [sp, #4]
 8007636:	2c00      	cmp	r4, #0
 8007638:	d108      	bne.n	800764c <__pow5mult+0x68>
 800763a:	0038      	movs	r0, r7
 800763c:	4916      	ldr	r1, [pc, #88]	@ (8007698 <__pow5mult+0xb4>)
 800763e:	f7ff ff0f 	bl	8007460 <__i2b>
 8007642:	9b01      	ldr	r3, [sp, #4]
 8007644:	0004      	movs	r4, r0
 8007646:	6098      	str	r0, [r3, #8]
 8007648:	2300      	movs	r3, #0
 800764a:	6003      	str	r3, [r0, #0]
 800764c:	2301      	movs	r3, #1
 800764e:	421d      	tst	r5, r3
 8007650:	d00a      	beq.n	8007668 <__pow5mult+0x84>
 8007652:	0031      	movs	r1, r6
 8007654:	0022      	movs	r2, r4
 8007656:	0038      	movs	r0, r7
 8007658:	f7ff ff1a 	bl	8007490 <__multiply>
 800765c:	0031      	movs	r1, r6
 800765e:	9001      	str	r0, [sp, #4]
 8007660:	0038      	movs	r0, r7
 8007662:	f7ff fe45 	bl	80072f0 <_Bfree>
 8007666:	9e01      	ldr	r6, [sp, #4]
 8007668:	106d      	asrs	r5, r5, #1
 800766a:	d00c      	beq.n	8007686 <__pow5mult+0xa2>
 800766c:	6820      	ldr	r0, [r4, #0]
 800766e:	2800      	cmp	r0, #0
 8007670:	d107      	bne.n	8007682 <__pow5mult+0x9e>
 8007672:	0022      	movs	r2, r4
 8007674:	0021      	movs	r1, r4
 8007676:	0038      	movs	r0, r7
 8007678:	f7ff ff0a 	bl	8007490 <__multiply>
 800767c:	2300      	movs	r3, #0
 800767e:	6020      	str	r0, [r4, #0]
 8007680:	6003      	str	r3, [r0, #0]
 8007682:	0004      	movs	r4, r0
 8007684:	e7e2      	b.n	800764c <__pow5mult+0x68>
 8007686:	0030      	movs	r0, r6
 8007688:	bdfe      	pop	{r1, r2, r3, r4, r5, r6, r7, pc}
 800768a:	46c0      	nop			@ (mov r8, r8)
 800768c:	080083c0 	.word	0x080083c0
 8007690:	0800828e 	.word	0x0800828e
 8007694:	0800830e 	.word	0x0800830e
 8007698:	00000271 	.word	0x00000271

0800769c <__lshift>:
 800769c:	b5f0      	push	{r4, r5, r6, r7, lr}
 800769e:	000c      	movs	r4, r1
 80076a0:	0016      	movs	r6, r2
 80076a2:	6923      	ldr	r3, [r4, #16]
 80076a4:	1157      	asrs	r7, r2, #5
 80076a6:	b085      	sub	sp, #20
 80076a8:	18fb      	adds	r3, r7, r3
 80076aa:	9301      	str	r3, [sp, #4]
 80076ac:	3301      	adds	r3, #1
 80076ae:	9300      	str	r3, [sp, #0]
 80076b0:	6849      	ldr	r1, [r1, #4]
 80076b2:	68a3      	ldr	r3, [r4, #8]
 80076b4:	9002      	str	r0, [sp, #8]
 80076b6:	9a00      	ldr	r2, [sp, #0]
 80076b8:	4293      	cmp	r3, r2
 80076ba:	db10      	blt.n	80076de <__lshift+0x42>
 80076bc:	9802      	ldr	r0, [sp, #8]
 80076be:	f7ff fdd3 	bl	8007268 <_Balloc>
 80076c2:	2300      	movs	r3, #0
 80076c4:	0001      	movs	r1, r0
 80076c6:	0005      	movs	r5, r0
 80076c8:	001a      	movs	r2, r3
 80076ca:	3114      	adds	r1, #20
 80076cc:	4298      	cmp	r0, r3
 80076ce:	d10c      	bne.n	80076ea <__lshift+0x4e>
 80076d0:	21ef      	movs	r1, #239	@ 0xef
 80076d2:	002a      	movs	r2, r5
 80076d4:	4b25      	ldr	r3, [pc, #148]	@ (800776c <__lshift+0xd0>)
 80076d6:	4826      	ldr	r0, [pc, #152]	@ (8007770 <__lshift+0xd4>)
 80076d8:	0049      	lsls	r1, r1, #1
 80076da:	f000 fc03 	bl	8007ee4 <__assert_func>
 80076de:	3101      	adds	r1, #1
 80076e0:	005b      	lsls	r3, r3, #1
 80076e2:	e7e8      	b.n	80076b6 <__lshift+0x1a>
 80076e4:	0098      	lsls	r0, r3, #2
 80076e6:	500a      	str	r2, [r1, r0]
 80076e8:	3301      	adds	r3, #1
 80076ea:	42bb      	cmp	r3, r7
 80076ec:	dbfa      	blt.n	80076e4 <__lshift+0x48>
 80076ee:	43fb      	mvns	r3, r7
 80076f0:	17db      	asrs	r3, r3, #31
 80076f2:	401f      	ands	r7, r3
 80076f4:	00bf      	lsls	r7, r7, #2
 80076f6:	0023      	movs	r3, r4
 80076f8:	201f      	movs	r0, #31
 80076fa:	19c9      	adds	r1, r1, r7
 80076fc:	0037      	movs	r7, r6
 80076fe:	6922      	ldr	r2, [r4, #16]
 8007700:	3314      	adds	r3, #20
 8007702:	0092      	lsls	r2, r2, #2
 8007704:	189a      	adds	r2, r3, r2
 8007706:	4007      	ands	r7, r0
 8007708:	4206      	tst	r6, r0
 800770a:	d029      	beq.n	8007760 <__lshift+0xc4>
 800770c:	3001      	adds	r0, #1
 800770e:	1bc0      	subs	r0, r0, r7
 8007710:	9003      	str	r0, [sp, #12]
 8007712:	468c      	mov	ip, r1
 8007714:	2000      	movs	r0, #0
 8007716:	681e      	ldr	r6, [r3, #0]
 8007718:	40be      	lsls	r6, r7
 800771a:	4306      	orrs	r6, r0
 800771c:	4660      	mov	r0, ip
 800771e:	c040      	stmia	r0!, {r6}
 8007720:	4684      	mov	ip, r0
 8007722:	9e03      	ldr	r6, [sp, #12]
 8007724:	cb01      	ldmia	r3!, {r0}
 8007726:	40f0      	lsrs	r0, r6
 8007728:	429a      	cmp	r2, r3
 800772a:	d8f4      	bhi.n	8007716 <__lshift+0x7a>
 800772c:	0026      	movs	r6, r4
 800772e:	3615      	adds	r6, #21
 8007730:	2304      	movs	r3, #4
 8007732:	42b2      	cmp	r2, r6
 8007734:	d304      	bcc.n	8007740 <__lshift+0xa4>
 8007736:	1b13      	subs	r3, r2, r4
 8007738:	3b15      	subs	r3, #21
 800773a:	089b      	lsrs	r3, r3, #2
 800773c:	3301      	adds	r3, #1
 800773e:	009b      	lsls	r3, r3, #2
 8007740:	50c8      	str	r0, [r1, r3]
 8007742:	2800      	cmp	r0, #0
 8007744:	d002      	beq.n	800774c <__lshift+0xb0>
 8007746:	9b01      	ldr	r3, [sp, #4]
 8007748:	3302      	adds	r3, #2
 800774a:	9300      	str	r3, [sp, #0]
 800774c:	9b00      	ldr	r3, [sp, #0]
 800774e:	9802      	ldr	r0, [sp, #8]
 8007750:	3b01      	subs	r3, #1
 8007752:	0021      	movs	r1, r4
 8007754:	612b      	str	r3, [r5, #16]
 8007756:	f7ff fdcb 	bl	80072f0 <_Bfree>
 800775a:	0028      	movs	r0, r5
 800775c:	b005      	add	sp, #20
 800775e:	bdf0      	pop	{r4, r5, r6, r7, pc}
 8007760:	cb01      	ldmia	r3!, {r0}
 8007762:	c101      	stmia	r1!, {r0}
 8007764:	429a      	cmp	r2, r3
 8007766:	d8fb      	bhi.n	8007760 <__lshift+0xc4>
 8007768:	e7f0      	b.n	800774c <__lshift+0xb0>
 800776a:	46c0      	nop			@ (mov r8, r8)
 800776c:	080082fd 	.word	0x080082fd
 8007770:	0800830e 	.word	0x0800830e

08007774 <__mcmp>:
 8007774:	b530      	push	{r4, r5, lr}
 8007776:	690b      	ldr	r3, [r1, #16]
 8007778:	6904      	ldr	r4, [r0, #16]
 800777a:	0002      	movs	r2, r0
 800777c:	1ae0      	subs	r0, r4, r3
 800777e:	429c      	cmp	r4, r3
 8007780:	d10f      	bne.n	80077a2 <__mcmp+0x2e>
 8007782:	3214      	adds	r2, #20
 8007784:	009b      	lsls	r3, r3, #2
 8007786:	3114      	adds	r1, #20
 8007788:	0014      	movs	r4, r2
 800778a:	18c9      	adds	r1, r1, r3
 800778c:	18d2      	adds	r2, r2, r3
 800778e:	3a04      	subs	r2, #4
 8007790:	3904      	subs	r1, #4
 8007792:	6815      	ldr	r5, [r2, #0]
 8007794:	680b      	ldr	r3, [r1, #0]
 8007796:	429d      	cmp	r5, r3
 8007798:	d004      	beq.n	80077a4 <__mcmp+0x30>
 800779a:	2001      	movs	r0, #1
 800779c:	429d      	cmp	r5, r3
 800779e:	d200      	bcs.n	80077a2 <__mcmp+0x2e>
 80077a0:	3802      	subs	r0, #2
 80077a2:	bd30      	pop	{r4, r5, pc}
 80077a4:	4294      	cmp	r4, r2
 80077a6:	d3f2      	bcc.n	800778e <__mcmp+0x1a>
 80077a8:	e7fb      	b.n	80077a2 <__mcmp+0x2e>
	...

080077ac <__mdiff>:
 80077ac:	b5f0      	push	{r4, r5, r6, r7, lr}
 80077ae:	000c      	movs	r4, r1
 80077b0:	b087      	sub	sp, #28
 80077b2:	9000      	str	r0, [sp, #0]
 80077b4:	0011      	movs	r1, r2
 80077b6:	0020      	movs	r0, r4
 80077b8:	0017      	movs	r7, r2
 80077ba:	f7ff ffdb 	bl	8007774 <__mcmp>
 80077be:	1e05      	subs	r5, r0, #0
 80077c0:	d110      	bne.n	80077e4 <__mdiff+0x38>
 80077c2:	0001      	movs	r1, r0
 80077c4:	9800      	ldr	r0, [sp, #0]
 80077c6:	f7ff fd4f 	bl	8007268 <_Balloc>
 80077ca:	1e02      	subs	r2, r0, #0
 80077cc:	d104      	bne.n	80077d8 <__mdiff+0x2c>
 80077ce:	4b40      	ldr	r3, [pc, #256]	@ (80078d0 <__mdiff+0x124>)
 80077d0:	4840      	ldr	r0, [pc, #256]	@ (80078d4 <__mdiff+0x128>)
 80077d2:	4941      	ldr	r1, [pc, #260]	@ (80078d8 <__mdiff+0x12c>)
 80077d4:	f000 fb86 	bl	8007ee4 <__assert_func>
 80077d8:	2301      	movs	r3, #1
 80077da:	6145      	str	r5, [r0, #20]
 80077dc:	6103      	str	r3, [r0, #16]
 80077de:	0010      	movs	r0, r2
 80077e0:	b007      	add	sp, #28
 80077e2:	bdf0      	pop	{r4, r5, r6, r7, pc}
 80077e4:	2600      	movs	r6, #0
 80077e6:	42b0      	cmp	r0, r6
 80077e8:	da03      	bge.n	80077f2 <__mdiff+0x46>
 80077ea:	0023      	movs	r3, r4
 80077ec:	003c      	movs	r4, r7
 80077ee:	001f      	movs	r7, r3
 80077f0:	3601      	adds	r6, #1
 80077f2:	6861      	ldr	r1, [r4, #4]
 80077f4:	9800      	ldr	r0, [sp, #0]
 80077f6:	f7ff fd37 	bl	8007268 <_Balloc>
 80077fa:	1e02      	subs	r2, r0, #0
 80077fc:	d103      	bne.n	8007806 <__mdiff+0x5a>
 80077fe:	4b34      	ldr	r3, [pc, #208]	@ (80078d0 <__mdiff+0x124>)
 8007800:	4834      	ldr	r0, [pc, #208]	@ (80078d4 <__mdiff+0x128>)
 8007802:	4936      	ldr	r1, [pc, #216]	@ (80078dc <__mdiff+0x130>)
 8007804:	e7e6      	b.n	80077d4 <__mdiff+0x28>
 8007806:	6923      	ldr	r3, [r4, #16]
 8007808:	3414      	adds	r4, #20
 800780a:	9300      	str	r3, [sp, #0]
 800780c:	009b      	lsls	r3, r3, #2
 800780e:	18e3      	adds	r3, r4, r3
 8007810:	0021      	movs	r1, r4
 8007812:	9401      	str	r4, [sp, #4]
 8007814:	003c      	movs	r4, r7
 8007816:	9302      	str	r3, [sp, #8]
 8007818:	693b      	ldr	r3, [r7, #16]
 800781a:	3414      	adds	r4, #20
 800781c:	009b      	lsls	r3, r3, #2
 800781e:	18e3      	adds	r3, r4, r3
 8007820:	9303      	str	r3, [sp, #12]
 8007822:	0003      	movs	r3, r0
 8007824:	60c6      	str	r6, [r0, #12]
 8007826:	468c      	mov	ip, r1
 8007828:	2000      	movs	r0, #0
 800782a:	3314      	adds	r3, #20
 800782c:	9304      	str	r3, [sp, #16]
 800782e:	9305      	str	r3, [sp, #20]
 8007830:	4663      	mov	r3, ip
 8007832:	cb20      	ldmia	r3!, {r5}
 8007834:	b2a9      	uxth	r1, r5
 8007836:	000e      	movs	r6, r1
 8007838:	469c      	mov	ip, r3
 800783a:	cc08      	ldmia	r4!, {r3}
 800783c:	0c2d      	lsrs	r5, r5, #16
 800783e:	b299      	uxth	r1, r3
 8007840:	1a71      	subs	r1, r6, r1
 8007842:	1809      	adds	r1, r1, r0
 8007844:	0c1b      	lsrs	r3, r3, #16
 8007846:	1408      	asrs	r0, r1, #16
 8007848:	1aeb      	subs	r3, r5, r3
 800784a:	181b      	adds	r3, r3, r0
 800784c:	1418      	asrs	r0, r3, #16
 800784e:	b289      	uxth	r1, r1
 8007850:	041b      	lsls	r3, r3, #16
 8007852:	4319      	orrs	r1, r3
 8007854:	9b05      	ldr	r3, [sp, #20]
 8007856:	c302      	stmia	r3!, {r1}
 8007858:	9305      	str	r3, [sp, #20]
 800785a:	9b03      	ldr	r3, [sp, #12]
 800785c:	42a3      	cmp	r3, r4
 800785e:	d8e7      	bhi.n	8007830 <__mdiff+0x84>
 8007860:	0039      	movs	r1, r7
 8007862:	9c03      	ldr	r4, [sp, #12]
 8007864:	3115      	adds	r1, #21
 8007866:	2304      	movs	r3, #4
 8007868:	428c      	cmp	r4, r1
 800786a:	d304      	bcc.n	8007876 <__mdiff+0xca>
 800786c:	1be3      	subs	r3, r4, r7
 800786e:	3b15      	subs	r3, #21
 8007870:	089b      	lsrs	r3, r3, #2
 8007872:	3301      	adds	r3, #1
 8007874:	009b      	lsls	r3, r3, #2
 8007876:	9901      	ldr	r1, [sp, #4]
 8007878:	18cd      	adds	r5, r1, r3
 800787a:	9904      	ldr	r1, [sp, #16]
 800787c:	002e      	movs	r6, r5
 800787e:	18cb      	adds	r3, r1, r3
 8007880:	001f      	movs	r7, r3
 8007882:	9902      	ldr	r1, [sp, #8]
 8007884:	428e      	cmp	r6, r1
 8007886:	d311      	bcc.n	80078ac <__mdiff+0x100>
 8007888:	9c02      	ldr	r4, [sp, #8]
 800788a:	1ee9      	subs	r1, r5, #3
 800788c:	2000      	movs	r0, #0
 800788e:	428c      	cmp	r4, r1
 8007890:	d304      	bcc.n	800789c <__mdiff+0xf0>
 8007892:	0021      	movs	r1, r4
 8007894:	3103      	adds	r1, #3
 8007896:	1b49      	subs	r1, r1, r5
 8007898:	0889      	lsrs	r1, r1, #2
 800789a:	0088      	lsls	r0, r1, #2
 800789c:	181b      	adds	r3, r3, r0
 800789e:	3b04      	subs	r3, #4
 80078a0:	6819      	ldr	r1, [r3, #0]
 80078a2:	2900      	cmp	r1, #0
 80078a4:	d010      	beq.n	80078c8 <__mdiff+0x11c>
 80078a6:	9b00      	ldr	r3, [sp, #0]
 80078a8:	6113      	str	r3, [r2, #16]
 80078aa:	e798      	b.n	80077de <__mdiff+0x32>
 80078ac:	4684      	mov	ip, r0
 80078ae:	ce02      	ldmia	r6!, {r1}
 80078b0:	b288      	uxth	r0, r1
 80078b2:	4460      	add	r0, ip
 80078b4:	1400      	asrs	r0, r0, #16
 80078b6:	0c0c      	lsrs	r4, r1, #16
 80078b8:	1904      	adds	r4, r0, r4
 80078ba:	4461      	add	r1, ip
 80078bc:	1420      	asrs	r0, r4, #16
 80078be:	b289      	uxth	r1, r1
 80078c0:	0424      	lsls	r4, r4, #16
 80078c2:	4321      	orrs	r1, r4
 80078c4:	c702      	stmia	r7!, {r1}
 80078c6:	e7dc      	b.n	8007882 <__mdiff+0xd6>
 80078c8:	9900      	ldr	r1, [sp, #0]
 80078ca:	3901      	subs	r1, #1
 80078cc:	9100      	str	r1, [sp, #0]
 80078ce:	e7e6      	b.n	800789e <__mdiff+0xf2>
 80078d0:	080082fd 	.word	0x080082fd
 80078d4:	0800830e 	.word	0x0800830e
 80078d8:	00000237 	.word	0x00000237
 80078dc:	00000245 	.word	0x00000245

080078e0 <__d2b>:
 80078e0:	b5f7      	push	{r0, r1, r2, r4, r5, r6, r7, lr}
 80078e2:	2101      	movs	r1, #1
 80078e4:	0016      	movs	r6, r2
 80078e6:	001f      	movs	r7, r3
 80078e8:	f7ff fcbe 	bl	8007268 <_Balloc>
 80078ec:	1e04      	subs	r4, r0, #0
 80078ee:	d105      	bne.n	80078fc <__d2b+0x1c>
 80078f0:	0022      	movs	r2, r4
 80078f2:	4b25      	ldr	r3, [pc, #148]	@ (8007988 <__d2b+0xa8>)
 80078f4:	4825      	ldr	r0, [pc, #148]	@ (800798c <__d2b+0xac>)
 80078f6:	4926      	ldr	r1, [pc, #152]	@ (8007990 <__d2b+0xb0>)
 80078f8:	f000 faf4 	bl	8007ee4 <__assert_func>
 80078fc:	033b      	lsls	r3, r7, #12
 80078fe:	007d      	lsls	r5, r7, #1
 8007900:	0b1b      	lsrs	r3, r3, #12
 8007902:	0d6d      	lsrs	r5, r5, #21
 8007904:	d002      	beq.n	800790c <__d2b+0x2c>
 8007906:	2280      	movs	r2, #128	@ 0x80
 8007908:	0352      	lsls	r2, r2, #13
 800790a:	4313      	orrs	r3, r2
 800790c:	9301      	str	r3, [sp, #4]
 800790e:	2e00      	cmp	r6, #0
 8007910:	d025      	beq.n	800795e <__d2b+0x7e>
 8007912:	4668      	mov	r0, sp
 8007914:	9600      	str	r6, [sp, #0]
 8007916:	f7ff fd74 	bl	8007402 <__lo0bits>
 800791a:	9b01      	ldr	r3, [sp, #4]
 800791c:	9900      	ldr	r1, [sp, #0]
 800791e:	2800      	cmp	r0, #0
 8007920:	d01b      	beq.n	800795a <__d2b+0x7a>
 8007922:	2220      	movs	r2, #32
 8007924:	001e      	movs	r6, r3
 8007926:	1a12      	subs	r2, r2, r0
 8007928:	4096      	lsls	r6, r2
 800792a:	0032      	movs	r2, r6
 800792c:	40c3      	lsrs	r3, r0
 800792e:	430a      	orrs	r2, r1
 8007930:	6162      	str	r2, [r4, #20]
 8007932:	9301      	str	r3, [sp, #4]
 8007934:	9e01      	ldr	r6, [sp, #4]
 8007936:	61a6      	str	r6, [r4, #24]
 8007938:	1e73      	subs	r3, r6, #1
 800793a:	419e      	sbcs	r6, r3
 800793c:	3601      	adds	r6, #1
 800793e:	6126      	str	r6, [r4, #16]
 8007940:	2d00      	cmp	r5, #0
 8007942:	d014      	beq.n	800796e <__d2b+0x8e>
 8007944:	2635      	movs	r6, #53	@ 0x35
 8007946:	4b13      	ldr	r3, [pc, #76]	@ (8007994 <__d2b+0xb4>)
 8007948:	18ed      	adds	r5, r5, r3
 800794a:	9b08      	ldr	r3, [sp, #32]
 800794c:	182d      	adds	r5, r5, r0
 800794e:	601d      	str	r5, [r3, #0]
 8007950:	9b09      	ldr	r3, [sp, #36]	@ 0x24
 8007952:	1a36      	subs	r6, r6, r0
 8007954:	601e      	str	r6, [r3, #0]
 8007956:	0020      	movs	r0, r4
 8007958:	bdfe      	pop	{r1, r2, r3, r4, r5, r6, r7, pc}
 800795a:	6161      	str	r1, [r4, #20]
 800795c:	e7ea      	b.n	8007934 <__d2b+0x54>
 800795e:	a801      	add	r0, sp, #4
 8007960:	f7ff fd4f 	bl	8007402 <__lo0bits>
 8007964:	9b01      	ldr	r3, [sp, #4]
 8007966:	2601      	movs	r6, #1
 8007968:	6163      	str	r3, [r4, #20]
 800796a:	3020      	adds	r0, #32
 800796c:	e7e7      	b.n	800793e <__d2b+0x5e>
 800796e:	4b0a      	ldr	r3, [pc, #40]	@ (8007998 <__d2b+0xb8>)
 8007970:	18c0      	adds	r0, r0, r3
 8007972:	9b08      	ldr	r3, [sp, #32]
 8007974:	6018      	str	r0, [r3, #0]
 8007976:	4b09      	ldr	r3, [pc, #36]	@ (800799c <__d2b+0xbc>)
 8007978:	18f3      	adds	r3, r6, r3
 800797a:	009b      	lsls	r3, r3, #2
 800797c:	18e3      	adds	r3, r4, r3
 800797e:	6958      	ldr	r0, [r3, #20]
 8007980:	f7ff fd1e 	bl	80073c0 <__hi0bits>
 8007984:	0176      	lsls	r6, r6, #5
 8007986:	e7e3      	b.n	8007950 <__d2b+0x70>
 8007988:	080082fd 	.word	0x080082fd
 800798c:	0800830e 	.word	0x0800830e
 8007990:	0000030f 	.word	0x0000030f
 8007994:	fffffbcd 	.word	0xfffffbcd
 8007998:	fffffbce 	.word	0xfffffbce
 800799c:	3fffffff 	.word	0x3fffffff

080079a0 <__sfputc_r>:
 80079a0:	6893      	ldr	r3, [r2, #8]
 80079a2:	b510      	push	{r4, lr}
 80079a4:	3b01      	subs	r3, #1
 80079a6:	6093      	str	r3, [r2, #8]
 80079a8:	2b00      	cmp	r3, #0
 80079aa:	da04      	bge.n	80079b6 <__sfputc_r+0x16>
 80079ac:	6994      	ldr	r4, [r2, #24]
 80079ae:	42a3      	cmp	r3, r4
 80079b0:	db07      	blt.n	80079c2 <__sfputc_r+0x22>
 80079b2:	290a      	cmp	r1, #10
 80079b4:	d005      	beq.n	80079c2 <__sfputc_r+0x22>
 80079b6:	6813      	ldr	r3, [r2, #0]
 80079b8:	1c58      	adds	r0, r3, #1
 80079ba:	6010      	str	r0, [r2, #0]
 80079bc:	7019      	strb	r1, [r3, #0]
 80079be:	0008      	movs	r0, r1
 80079c0:	bd10      	pop	{r4, pc}
 80079c2:	f7fe fba3 	bl	800610c <__swbuf_r>
 80079c6:	0001      	movs	r1, r0
 80079c8:	e7f9      	b.n	80079be <__sfputc_r+0x1e>

080079ca <__sfputs_r>:
 80079ca:	b5f8      	push	{r3, r4, r5, r6, r7, lr}
 80079cc:	0006      	movs	r6, r0
 80079ce:	000f      	movs	r7, r1
 80079d0:	0014      	movs	r4, r2
 80079d2:	18d5      	adds	r5, r2, r3
 80079d4:	42ac      	cmp	r4, r5
 80079d6:	d101      	bne.n	80079dc <__sfputs_r+0x12>
 80079d8:	2000      	movs	r0, #0
 80079da:	e007      	b.n	80079ec <__sfputs_r+0x22>
 80079dc:	7821      	ldrb	r1, [r4, #0]
 80079de:	003a      	movs	r2, r7
 80079e0:	0030      	movs	r0, r6
 80079e2:	f7ff ffdd 	bl	80079a0 <__sfputc_r>
 80079e6:	3401      	adds	r4, #1
 80079e8:	1c43      	adds	r3, r0, #1
 80079ea:	d1f3      	bne.n	80079d4 <__sfputs_r+0xa>
 80079ec:	bdf8      	pop	{r3, r4, r5, r6, r7, pc}
	...

080079f0 <_vfiprintf_r>:
 80079f0:	b5f0      	push	{r4, r5, r6, r7, lr}
 80079f2:	b0a1      	sub	sp, #132	@ 0x84
 80079f4:	000f      	movs	r7, r1
 80079f6:	0015      	movs	r5, r2
 80079f8:	001e      	movs	r6, r3
 80079fa:	9003      	str	r0, [sp, #12]
 80079fc:	2800      	cmp	r0, #0
 80079fe:	d004      	beq.n	8007a0a <_vfiprintf_r+0x1a>
 8007a00:	6a03      	ldr	r3, [r0, #32]
 8007a02:	2b00      	cmp	r3, #0
 8007a04:	d101      	bne.n	8007a0a <_vfiprintf_r+0x1a>
 8007a06:	f7fe f9db 	bl	8005dc0 <__sinit>
 8007a0a:	6e7b      	ldr	r3, [r7, #100]	@ 0x64
 8007a0c:	07db      	lsls	r3, r3, #31
 8007a0e:	d405      	bmi.n	8007a1c <_vfiprintf_r+0x2c>
 8007a10:	89bb      	ldrh	r3, [r7, #12]
 8007a12:	059b      	lsls	r3, r3, #22
 8007a14:	d402      	bmi.n	8007a1c <_vfiprintf_r+0x2c>
 8007a16:	6db8      	ldr	r0, [r7, #88]	@ 0x58
 8007a18:	f7fe fc9d 	bl	8006356 <__retarget_lock_acquire_recursive>
 8007a1c:	89bb      	ldrh	r3, [r7, #12]
 8007a1e:	071b      	lsls	r3, r3, #28
 8007a20:	d502      	bpl.n	8007a28 <_vfiprintf_r+0x38>
 8007a22:	693b      	ldr	r3, [r7, #16]
 8007a24:	2b00      	cmp	r3, #0
 8007a26:	d113      	bne.n	8007a50 <_vfiprintf_r+0x60>
 8007a28:	0039      	movs	r1, r7
 8007a2a:	9803      	ldr	r0, [sp, #12]
 8007a2c:	f7fe fbb0 	bl	8006190 <__swsetup_r>
 8007a30:	2800      	cmp	r0, #0
 8007a32:	d00d      	beq.n	8007a50 <_vfiprintf_r+0x60>
 8007a34:	6e7b      	ldr	r3, [r7, #100]	@ 0x64
 8007a36:	07db      	lsls	r3, r3, #31
 8007a38:	d503      	bpl.n	8007a42 <_vfiprintf_r+0x52>
 8007a3a:	2001      	movs	r0, #1
 8007a3c:	4240      	negs	r0, r0
 8007a3e:	b021      	add	sp, #132	@ 0x84
 8007a40:	bdf0      	pop	{r4, r5, r6, r7, pc}
 8007a42:	89bb      	ldrh	r3, [r7, #12]
 8007a44:	059b      	lsls	r3, r3, #22
 8007a46:	d4f8      	bmi.n	8007a3a <_vfiprintf_r+0x4a>
 8007a48:	6db8      	ldr	r0, [r7, #88]	@ 0x58
 8007a4a:	f7fe fc85 	bl	8006358 <__retarget_lock_release_recursive>
 8007a4e:	e7f4      	b.n	8007a3a <_vfiprintf_r+0x4a>
 8007a50:	2300      	movs	r3, #0
 8007a52:	ac08      	add	r4, sp, #32
 8007a54:	6163      	str	r3, [r4, #20]
 8007a56:	3320      	adds	r3, #32
 8007a58:	7663      	strb	r3, [r4, #25]
 8007a5a:	3310      	adds	r3, #16
 8007a5c:	76a3      	strb	r3, [r4, #26]
 8007a5e:	9607      	str	r6, [sp, #28]
 8007a60:	002e      	movs	r6, r5
 8007a62:	7833      	ldrb	r3, [r6, #0]
 8007a64:	2b00      	cmp	r3, #0
 8007a66:	d001      	beq.n	8007a6c <_vfiprintf_r+0x7c>
 8007a68:	2b25      	cmp	r3, #37	@ 0x25
 8007a6a:	d148      	bne.n	8007afe <_vfiprintf_r+0x10e>
 8007a6c:	1b73      	subs	r3, r6, r5
 8007a6e:	9305      	str	r3, [sp, #20]
 8007a70:	42ae      	cmp	r6, r5
 8007a72:	d00b      	beq.n	8007a8c <_vfiprintf_r+0x9c>
 8007a74:	002a      	movs	r2, r5
 8007a76:	0039      	movs	r1, r7
 8007a78:	9803      	ldr	r0, [sp, #12]
 8007a7a:	f7ff ffa6 	bl	80079ca <__sfputs_r>
 8007a7e:	3001      	adds	r0, #1
 8007a80:	d100      	bne.n	8007a84 <_vfiprintf_r+0x94>
 8007a82:	e0ae      	b.n	8007be2 <_vfiprintf_r+0x1f2>
 8007a84:	6963      	ldr	r3, [r4, #20]
 8007a86:	9a05      	ldr	r2, [sp, #20]
 8007a88:	189b      	adds	r3, r3, r2
 8007a8a:	6163      	str	r3, [r4, #20]
 8007a8c:	7833      	ldrb	r3, [r6, #0]
 8007a8e:	2b00      	cmp	r3, #0
 8007a90:	d100      	bne.n	8007a94 <_vfiprintf_r+0xa4>
 8007a92:	e0a6      	b.n	8007be2 <_vfiprintf_r+0x1f2>
 8007a94:	2201      	movs	r2, #1
 8007a96:	2300      	movs	r3, #0
 8007a98:	4252      	negs	r2, r2
 8007a9a:	6062      	str	r2, [r4, #4]
 8007a9c:	a904      	add	r1, sp, #16
 8007a9e:	3254      	adds	r2, #84	@ 0x54
 8007aa0:	1852      	adds	r2, r2, r1
 8007aa2:	1c75      	adds	r5, r6, #1
 8007aa4:	6023      	str	r3, [r4, #0]
 8007aa6:	60e3      	str	r3, [r4, #12]
 8007aa8:	60a3      	str	r3, [r4, #8]
 8007aaa:	7013      	strb	r3, [r2, #0]
 8007aac:	65a3      	str	r3, [r4, #88]	@ 0x58
 8007aae:	4b59      	ldr	r3, [pc, #356]	@ (8007c14 <_vfiprintf_r+0x224>)
 8007ab0:	2205      	movs	r2, #5
 8007ab2:	0018      	movs	r0, r3
 8007ab4:	7829      	ldrb	r1, [r5, #0]
 8007ab6:	9305      	str	r3, [sp, #20]
 8007ab8:	f7fe fc4f 	bl	800635a <memchr>
 8007abc:	1c6e      	adds	r6, r5, #1
 8007abe:	2800      	cmp	r0, #0
 8007ac0:	d11f      	bne.n	8007b02 <_vfiprintf_r+0x112>
 8007ac2:	6822      	ldr	r2, [r4, #0]
 8007ac4:	06d3      	lsls	r3, r2, #27
 8007ac6:	d504      	bpl.n	8007ad2 <_vfiprintf_r+0xe2>
 8007ac8:	2353      	movs	r3, #83	@ 0x53
 8007aca:	a904      	add	r1, sp, #16
 8007acc:	185b      	adds	r3, r3, r1
 8007ace:	2120      	movs	r1, #32
 8007ad0:	7019      	strb	r1, [r3, #0]
 8007ad2:	0713      	lsls	r3, r2, #28
 8007ad4:	d504      	bpl.n	8007ae0 <_vfiprintf_r+0xf0>
 8007ad6:	2353      	movs	r3, #83	@ 0x53
 8007ad8:	a904      	add	r1, sp, #16
 8007ada:	185b      	adds	r3, r3, r1
 8007adc:	212b      	movs	r1, #43	@ 0x2b
 8007ade:	7019      	strb	r1, [r3, #0]
 8007ae0:	782b      	ldrb	r3, [r5, #0]
 8007ae2:	2b2a      	cmp	r3, #42	@ 0x2a
 8007ae4:	d016      	beq.n	8007b14 <_vfiprintf_r+0x124>
 8007ae6:	002e      	movs	r6, r5
 8007ae8:	2100      	movs	r1, #0
 8007aea:	200a      	movs	r0, #10
 8007aec:	68e3      	ldr	r3, [r4, #12]
 8007aee:	7832      	ldrb	r2, [r6, #0]
 8007af0:	1c75      	adds	r5, r6, #1
 8007af2:	3a30      	subs	r2, #48	@ 0x30
 8007af4:	2a09      	cmp	r2, #9
 8007af6:	d950      	bls.n	8007b9a <_vfiprintf_r+0x1aa>
 8007af8:	2900      	cmp	r1, #0
 8007afa:	d111      	bne.n	8007b20 <_vfiprintf_r+0x130>
 8007afc:	e017      	b.n	8007b2e <_vfiprintf_r+0x13e>
 8007afe:	3601      	adds	r6, #1
 8007b00:	e7af      	b.n	8007a62 <_vfiprintf_r+0x72>
 8007b02:	9b05      	ldr	r3, [sp, #20]
 8007b04:	6822      	ldr	r2, [r4, #0]
 8007b06:	1ac0      	subs	r0, r0, r3
 8007b08:	2301      	movs	r3, #1
 8007b0a:	4083      	lsls	r3, r0
 8007b0c:	4313      	orrs	r3, r2
 8007b0e:	0035      	movs	r5, r6
 8007b10:	6023      	str	r3, [r4, #0]
 8007b12:	e7cc      	b.n	8007aae <_vfiprintf_r+0xbe>
 8007b14:	9b07      	ldr	r3, [sp, #28]
 8007b16:	1d19      	adds	r1, r3, #4
 8007b18:	681b      	ldr	r3, [r3, #0]
 8007b1a:	9107      	str	r1, [sp, #28]
 8007b1c:	2b00      	cmp	r3, #0
 8007b1e:	db01      	blt.n	8007b24 <_vfiprintf_r+0x134>
 8007b20:	930b      	str	r3, [sp, #44]	@ 0x2c
 8007b22:	e004      	b.n	8007b2e <_vfiprintf_r+0x13e>
 8007b24:	425b      	negs	r3, r3
 8007b26:	60e3      	str	r3, [r4, #12]
 8007b28:	2302      	movs	r3, #2
 8007b2a:	4313      	orrs	r3, r2
 8007b2c:	6023      	str	r3, [r4, #0]
 8007b2e:	7833      	ldrb	r3, [r6, #0]
 8007b30:	2b2e      	cmp	r3, #46	@ 0x2e
 8007b32:	d10c      	bne.n	8007b4e <_vfiprintf_r+0x15e>
 8007b34:	7873      	ldrb	r3, [r6, #1]
 8007b36:	2b2a      	cmp	r3, #42	@ 0x2a
 8007b38:	d134      	bne.n	8007ba4 <_vfiprintf_r+0x1b4>
 8007b3a:	9b07      	ldr	r3, [sp, #28]
 8007b3c:	3602      	adds	r6, #2
 8007b3e:	1d1a      	adds	r2, r3, #4
 8007b40:	681b      	ldr	r3, [r3, #0]
 8007b42:	9207      	str	r2, [sp, #28]
 8007b44:	2b00      	cmp	r3, #0
 8007b46:	da01      	bge.n	8007b4c <_vfiprintf_r+0x15c>
 8007b48:	2301      	movs	r3, #1
 8007b4a:	425b      	negs	r3, r3
 8007b4c:	9309      	str	r3, [sp, #36]	@ 0x24
 8007b4e:	4d32      	ldr	r5, [pc, #200]	@ (8007c18 <_vfiprintf_r+0x228>)
 8007b50:	2203      	movs	r2, #3
 8007b52:	0028      	movs	r0, r5
 8007b54:	7831      	ldrb	r1, [r6, #0]
 8007b56:	f7fe fc00 	bl	800635a <memchr>
 8007b5a:	2800      	cmp	r0, #0
 8007b5c:	d006      	beq.n	8007b6c <_vfiprintf_r+0x17c>
 8007b5e:	2340      	movs	r3, #64	@ 0x40
 8007b60:	1b40      	subs	r0, r0, r5
 8007b62:	4083      	lsls	r3, r0
 8007b64:	6822      	ldr	r2, [r4, #0]
 8007b66:	3601      	adds	r6, #1
 8007b68:	4313      	orrs	r3, r2
 8007b6a:	6023      	str	r3, [r4, #0]
 8007b6c:	7831      	ldrb	r1, [r6, #0]
 8007b6e:	2206      	movs	r2, #6
 8007b70:	482a      	ldr	r0, [pc, #168]	@ (8007c1c <_vfiprintf_r+0x22c>)
 8007b72:	1c75      	adds	r5, r6, #1
 8007b74:	7621      	strb	r1, [r4, #24]
 8007b76:	f7fe fbf0 	bl	800635a <memchr>
 8007b7a:	2800      	cmp	r0, #0
 8007b7c:	d040      	beq.n	8007c00 <_vfiprintf_r+0x210>
 8007b7e:	4b28      	ldr	r3, [pc, #160]	@ (8007c20 <_vfiprintf_r+0x230>)
 8007b80:	2b00      	cmp	r3, #0
 8007b82:	d122      	bne.n	8007bca <_vfiprintf_r+0x1da>
 8007b84:	2207      	movs	r2, #7
 8007b86:	9b07      	ldr	r3, [sp, #28]
 8007b88:	3307      	adds	r3, #7
 8007b8a:	4393      	bics	r3, r2
 8007b8c:	3308      	adds	r3, #8
 8007b8e:	9307      	str	r3, [sp, #28]
 8007b90:	6963      	ldr	r3, [r4, #20]
 8007b92:	9a04      	ldr	r2, [sp, #16]
 8007b94:	189b      	adds	r3, r3, r2
 8007b96:	6163      	str	r3, [r4, #20]
 8007b98:	e762      	b.n	8007a60 <_vfiprintf_r+0x70>
 8007b9a:	4343      	muls	r3, r0
 8007b9c:	002e      	movs	r6, r5
 8007b9e:	2101      	movs	r1, #1
 8007ba0:	189b      	adds	r3, r3, r2
 8007ba2:	e7a4      	b.n	8007aee <_vfiprintf_r+0xfe>
 8007ba4:	2300      	movs	r3, #0
 8007ba6:	200a      	movs	r0, #10
 8007ba8:	0019      	movs	r1, r3
 8007baa:	3601      	adds	r6, #1
 8007bac:	6063      	str	r3, [r4, #4]
 8007bae:	7832      	ldrb	r2, [r6, #0]
 8007bb0:	1c75      	adds	r5, r6, #1
 8007bb2:	3a30      	subs	r2, #48	@ 0x30
 8007bb4:	2a09      	cmp	r2, #9
 8007bb6:	d903      	bls.n	8007bc0 <_vfiprintf_r+0x1d0>
 8007bb8:	2b00      	cmp	r3, #0
 8007bba:	d0c8      	beq.n	8007b4e <_vfiprintf_r+0x15e>
 8007bbc:	9109      	str	r1, [sp, #36]	@ 0x24
 8007bbe:	e7c6      	b.n	8007b4e <_vfiprintf_r+0x15e>
 8007bc0:	4341      	muls	r1, r0
 8007bc2:	002e      	movs	r6, r5
 8007bc4:	2301      	movs	r3, #1
 8007bc6:	1889      	adds	r1, r1, r2
 8007bc8:	e7f1      	b.n	8007bae <_vfiprintf_r+0x1be>
 8007bca:	aa07      	add	r2, sp, #28
 8007bcc:	9200      	str	r2, [sp, #0]
 8007bce:	0021      	movs	r1, r4
 8007bd0:	003a      	movs	r2, r7
 8007bd2:	4b14      	ldr	r3, [pc, #80]	@ (8007c24 <_vfiprintf_r+0x234>)
 8007bd4:	9803      	ldr	r0, [sp, #12]
 8007bd6:	f7fd fca9 	bl	800552c <_printf_float>
 8007bda:	9004      	str	r0, [sp, #16]
 8007bdc:	9b04      	ldr	r3, [sp, #16]
 8007bde:	3301      	adds	r3, #1
 8007be0:	d1d6      	bne.n	8007b90 <_vfiprintf_r+0x1a0>
 8007be2:	6e7b      	ldr	r3, [r7, #100]	@ 0x64
 8007be4:	07db      	lsls	r3, r3, #31
 8007be6:	d405      	bmi.n	8007bf4 <_vfiprintf_r+0x204>
 8007be8:	89bb      	ldrh	r3, [r7, #12]
 8007bea:	059b      	lsls	r3, r3, #22
 8007bec:	d402      	bmi.n	8007bf4 <_vfiprintf_r+0x204>
 8007bee:	6db8      	ldr	r0, [r7, #88]	@ 0x58
 8007bf0:	f7fe fbb2 	bl	8006358 <__retarget_lock_release_recursive>
 8007bf4:	89bb      	ldrh	r3, [r7, #12]
 8007bf6:	065b      	lsls	r3, r3, #25
 8007bf8:	d500      	bpl.n	8007bfc <_vfiprintf_r+0x20c>
 8007bfa:	e71e      	b.n	8007a3a <_vfiprintf_r+0x4a>
 8007bfc:	980d      	ldr	r0, [sp, #52]	@ 0x34
 8007bfe:	e71e      	b.n	8007a3e <_vfiprintf_r+0x4e>
 8007c00:	aa07      	add	r2, sp, #28
 8007c02:	9200      	str	r2, [sp, #0]
 8007c04:	0021      	movs	r1, r4
 8007c06:	003a      	movs	r2, r7
 8007c08:	4b06      	ldr	r3, [pc, #24]	@ (8007c24 <_vfiprintf_r+0x234>)
 8007c0a:	9803      	ldr	r0, [sp, #12]
 8007c0c:	f7fd ff3c 	bl	8005a88 <_printf_i>
 8007c10:	e7e3      	b.n	8007bda <_vfiprintf_r+0x1ea>
 8007c12:	46c0      	nop			@ (mov r8, r8)
 8007c14:	08008367 	.word	0x08008367
 8007c18:	0800836d 	.word	0x0800836d
 8007c1c:	08008371 	.word	0x08008371
 8007c20:	0800552d 	.word	0x0800552d
 8007c24:	080079cb 	.word	0x080079cb

08007c28 <__sflush_r>:
 8007c28:	b5f7      	push	{r0, r1, r2, r4, r5, r6, r7, lr}
 8007c2a:	220c      	movs	r2, #12
 8007c2c:	5e8b      	ldrsh	r3, [r1, r2]
 8007c2e:	0005      	movs	r5, r0
 8007c30:	000c      	movs	r4, r1
 8007c32:	071a      	lsls	r2, r3, #28
 8007c34:	d456      	bmi.n	8007ce4 <__sflush_r+0xbc>
 8007c36:	684a      	ldr	r2, [r1, #4]
 8007c38:	2a00      	cmp	r2, #0
 8007c3a:	dc02      	bgt.n	8007c42 <__sflush_r+0x1a>
 8007c3c:	6c0a      	ldr	r2, [r1, #64]	@ 0x40
 8007c3e:	2a00      	cmp	r2, #0
 8007c40:	dd4e      	ble.n	8007ce0 <__sflush_r+0xb8>
 8007c42:	6ae7      	ldr	r7, [r4, #44]	@ 0x2c
 8007c44:	2f00      	cmp	r7, #0
 8007c46:	d04b      	beq.n	8007ce0 <__sflush_r+0xb8>
 8007c48:	2200      	movs	r2, #0
 8007c4a:	2080      	movs	r0, #128	@ 0x80
 8007c4c:	682e      	ldr	r6, [r5, #0]
 8007c4e:	602a      	str	r2, [r5, #0]
 8007c50:	001a      	movs	r2, r3
 8007c52:	0140      	lsls	r0, r0, #5
 8007c54:	6a21      	ldr	r1, [r4, #32]
 8007c56:	4002      	ands	r2, r0
 8007c58:	4203      	tst	r3, r0
 8007c5a:	d033      	beq.n	8007cc4 <__sflush_r+0x9c>
 8007c5c:	6d62      	ldr	r2, [r4, #84]	@ 0x54
 8007c5e:	89a3      	ldrh	r3, [r4, #12]
 8007c60:	075b      	lsls	r3, r3, #29
 8007c62:	d506      	bpl.n	8007c72 <__sflush_r+0x4a>
 8007c64:	6863      	ldr	r3, [r4, #4]
 8007c66:	1ad2      	subs	r2, r2, r3
 8007c68:	6b63      	ldr	r3, [r4, #52]	@ 0x34
 8007c6a:	2b00      	cmp	r3, #0
 8007c6c:	d001      	beq.n	8007c72 <__sflush_r+0x4a>
 8007c6e:	6c23      	ldr	r3, [r4, #64]	@ 0x40
 8007c70:	1ad2      	subs	r2, r2, r3
 8007c72:	2300      	movs	r3, #0
 8007c74:	0028      	movs	r0, r5
 8007c76:	6ae7      	ldr	r7, [r4, #44]	@ 0x2c
 8007c78:	6a21      	ldr	r1, [r4, #32]
 8007c7a:	47b8      	blx	r7
 8007c7c:	89a2      	ldrh	r2, [r4, #12]
 8007c7e:	1c43      	adds	r3, r0, #1
 8007c80:	d106      	bne.n	8007c90 <__sflush_r+0x68>
 8007c82:	6829      	ldr	r1, [r5, #0]
 8007c84:	291d      	cmp	r1, #29
 8007c86:	d846      	bhi.n	8007d16 <__sflush_r+0xee>
 8007c88:	4b29      	ldr	r3, [pc, #164]	@ (8007d30 <__sflush_r+0x108>)
 8007c8a:	40cb      	lsrs	r3, r1
 8007c8c:	07db      	lsls	r3, r3, #31
 8007c8e:	d542      	bpl.n	8007d16 <__sflush_r+0xee>
 8007c90:	2300      	movs	r3, #0
 8007c92:	6063      	str	r3, [r4, #4]
 8007c94:	6923      	ldr	r3, [r4, #16]
 8007c96:	6023      	str	r3, [r4, #0]
 8007c98:	04d2      	lsls	r2, r2, #19
 8007c9a:	d505      	bpl.n	8007ca8 <__sflush_r+0x80>
 8007c9c:	1c43      	adds	r3, r0, #1
 8007c9e:	d102      	bne.n	8007ca6 <__sflush_r+0x7e>
 8007ca0:	682b      	ldr	r3, [r5, #0]
 8007ca2:	2b00      	cmp	r3, #0
 8007ca4:	d100      	bne.n	8007ca8 <__sflush_r+0x80>
 8007ca6:	6560      	str	r0, [r4, #84]	@ 0x54
 8007ca8:	6b61      	ldr	r1, [r4, #52]	@ 0x34
 8007caa:	602e      	str	r6, [r5, #0]
 8007cac:	2900      	cmp	r1, #0
 8007cae:	d017      	beq.n	8007ce0 <__sflush_r+0xb8>
 8007cb0:	0023      	movs	r3, r4
 8007cb2:	3344      	adds	r3, #68	@ 0x44
 8007cb4:	4299      	cmp	r1, r3
 8007cb6:	d002      	beq.n	8007cbe <__sflush_r+0x96>
 8007cb8:	0028      	movs	r0, r5
 8007cba:	f7ff f9cf 	bl	800705c <_free_r>
 8007cbe:	2300      	movs	r3, #0
 8007cc0:	6363      	str	r3, [r4, #52]	@ 0x34
 8007cc2:	e00d      	b.n	8007ce0 <__sflush_r+0xb8>
 8007cc4:	2301      	movs	r3, #1
 8007cc6:	0028      	movs	r0, r5
 8007cc8:	47b8      	blx	r7
 8007cca:	0002      	movs	r2, r0
 8007ccc:	1c43      	adds	r3, r0, #1
 8007cce:	d1c6      	bne.n	8007c5e <__sflush_r+0x36>
 8007cd0:	682b      	ldr	r3, [r5, #0]
 8007cd2:	2b00      	cmp	r3, #0
 8007cd4:	d0c3      	beq.n	8007c5e <__sflush_r+0x36>
 8007cd6:	2b1d      	cmp	r3, #29
 8007cd8:	d001      	beq.n	8007cde <__sflush_r+0xb6>
 8007cda:	2b16      	cmp	r3, #22
 8007cdc:	d11a      	bne.n	8007d14 <__sflush_r+0xec>
 8007cde:	602e      	str	r6, [r5, #0]
 8007ce0:	2000      	movs	r0, #0
 8007ce2:	e01e      	b.n	8007d22 <__sflush_r+0xfa>
 8007ce4:	690e      	ldr	r6, [r1, #16]
 8007ce6:	2e00      	cmp	r6, #0
 8007ce8:	d0fa      	beq.n	8007ce0 <__sflush_r+0xb8>
 8007cea:	680f      	ldr	r7, [r1, #0]
 8007cec:	600e      	str	r6, [r1, #0]
 8007cee:	1bba      	subs	r2, r7, r6
 8007cf0:	9201      	str	r2, [sp, #4]
 8007cf2:	2200      	movs	r2, #0
 8007cf4:	079b      	lsls	r3, r3, #30
 8007cf6:	d100      	bne.n	8007cfa <__sflush_r+0xd2>
 8007cf8:	694a      	ldr	r2, [r1, #20]
 8007cfa:	60a2      	str	r2, [r4, #8]
 8007cfc:	9b01      	ldr	r3, [sp, #4]
 8007cfe:	2b00      	cmp	r3, #0
 8007d00:	ddee      	ble.n	8007ce0 <__sflush_r+0xb8>
 8007d02:	6aa3      	ldr	r3, [r4, #40]	@ 0x28
 8007d04:	0032      	movs	r2, r6
 8007d06:	001f      	movs	r7, r3
 8007d08:	0028      	movs	r0, r5
 8007d0a:	9b01      	ldr	r3, [sp, #4]
 8007d0c:	6a21      	ldr	r1, [r4, #32]
 8007d0e:	47b8      	blx	r7
 8007d10:	2800      	cmp	r0, #0
 8007d12:	dc07      	bgt.n	8007d24 <__sflush_r+0xfc>
 8007d14:	89a2      	ldrh	r2, [r4, #12]
 8007d16:	2340      	movs	r3, #64	@ 0x40
 8007d18:	2001      	movs	r0, #1
 8007d1a:	4313      	orrs	r3, r2
 8007d1c:	b21b      	sxth	r3, r3
 8007d1e:	81a3      	strh	r3, [r4, #12]
 8007d20:	4240      	negs	r0, r0
 8007d22:	bdfe      	pop	{r1, r2, r3, r4, r5, r6, r7, pc}
 8007d24:	9b01      	ldr	r3, [sp, #4]
 8007d26:	1836      	adds	r6, r6, r0
 8007d28:	1a1b      	subs	r3, r3, r0
 8007d2a:	9301      	str	r3, [sp, #4]
 8007d2c:	e7e6      	b.n	8007cfc <__sflush_r+0xd4>
 8007d2e:	46c0      	nop			@ (mov r8, r8)
 8007d30:	20400001 	.word	0x20400001

08007d34 <_fflush_r>:
 8007d34:	690b      	ldr	r3, [r1, #16]
 8007d36:	b570      	push	{r4, r5, r6, lr}
 8007d38:	0005      	movs	r5, r0
 8007d3a:	000c      	movs	r4, r1
 8007d3c:	2b00      	cmp	r3, #0
 8007d3e:	d102      	bne.n	8007d46 <_fflush_r+0x12>
 8007d40:	2500      	movs	r5, #0
 8007d42:	0028      	movs	r0, r5
 8007d44:	bd70      	pop	{r4, r5, r6, pc}
 8007d46:	2800      	cmp	r0, #0
 8007d48:	d004      	beq.n	8007d54 <_fflush_r+0x20>
 8007d4a:	6a03      	ldr	r3, [r0, #32]
 8007d4c:	2b00      	cmp	r3, #0
 8007d4e:	d101      	bne.n	8007d54 <_fflush_r+0x20>
 8007d50:	f7fe f836 	bl	8005dc0 <__sinit>
 8007d54:	220c      	movs	r2, #12
 8007d56:	5ea3      	ldrsh	r3, [r4, r2]
 8007d58:	2b00      	cmp	r3, #0
 8007d5a:	d0f1      	beq.n	8007d40 <_fflush_r+0xc>
 8007d5c:	6e62      	ldr	r2, [r4, #100]	@ 0x64
 8007d5e:	07d2      	lsls	r2, r2, #31
 8007d60:	d404      	bmi.n	8007d6c <_fflush_r+0x38>
 8007d62:	059b      	lsls	r3, r3, #22
 8007d64:	d402      	bmi.n	8007d6c <_fflush_r+0x38>
 8007d66:	6da0      	ldr	r0, [r4, #88]	@ 0x58
 8007d68:	f7fe faf5 	bl	8006356 <__retarget_lock_acquire_recursive>
 8007d6c:	0028      	movs	r0, r5
 8007d6e:	0021      	movs	r1, r4
 8007d70:	f7ff ff5a 	bl	8007c28 <__sflush_r>
 8007d74:	6e63      	ldr	r3, [r4, #100]	@ 0x64
 8007d76:	0005      	movs	r5, r0
 8007d78:	07db      	lsls	r3, r3, #31
 8007d7a:	d4e2      	bmi.n	8007d42 <_fflush_r+0xe>
 8007d7c:	89a3      	ldrh	r3, [r4, #12]
 8007d7e:	059b      	lsls	r3, r3, #22
 8007d80:	d4df      	bmi.n	8007d42 <_fflush_r+0xe>
 8007d82:	6da0      	ldr	r0, [r4, #88]	@ 0x58
 8007d84:	f7fe fae8 	bl	8006358 <__retarget_lock_release_recursive>
 8007d88:	e7db      	b.n	8007d42 <_fflush_r+0xe>
	...

08007d8c <__swhatbuf_r>:
 8007d8c:	b570      	push	{r4, r5, r6, lr}
 8007d8e:	000e      	movs	r6, r1
 8007d90:	001d      	movs	r5, r3
 8007d92:	230e      	movs	r3, #14
 8007d94:	5ec9      	ldrsh	r1, [r1, r3]
 8007d96:	0014      	movs	r4, r2
 8007d98:	b096      	sub	sp, #88	@ 0x58
 8007d9a:	2900      	cmp	r1, #0
 8007d9c:	da0c      	bge.n	8007db8 <__swhatbuf_r+0x2c>
 8007d9e:	89b2      	ldrh	r2, [r6, #12]
 8007da0:	2380      	movs	r3, #128	@ 0x80
 8007da2:	0011      	movs	r1, r2
 8007da4:	4019      	ands	r1, r3
 8007da6:	421a      	tst	r2, r3
 8007da8:	d114      	bne.n	8007dd4 <__swhatbuf_r+0x48>
 8007daa:	2380      	movs	r3, #128	@ 0x80
 8007dac:	00db      	lsls	r3, r3, #3
 8007dae:	2000      	movs	r0, #0
 8007db0:	6029      	str	r1, [r5, #0]
 8007db2:	6023      	str	r3, [r4, #0]
 8007db4:	b016      	add	sp, #88	@ 0x58
 8007db6:	bd70      	pop	{r4, r5, r6, pc}
 8007db8:	466a      	mov	r2, sp
 8007dba:	f000 f853 	bl	8007e64 <_fstat_r>
 8007dbe:	2800      	cmp	r0, #0
 8007dc0:	dbed      	blt.n	8007d9e <__swhatbuf_r+0x12>
 8007dc2:	23f0      	movs	r3, #240	@ 0xf0
 8007dc4:	9901      	ldr	r1, [sp, #4]
 8007dc6:	021b      	lsls	r3, r3, #8
 8007dc8:	4019      	ands	r1, r3
 8007dca:	4b04      	ldr	r3, [pc, #16]	@ (8007ddc <__swhatbuf_r+0x50>)
 8007dcc:	18c9      	adds	r1, r1, r3
 8007dce:	424b      	negs	r3, r1
 8007dd0:	4159      	adcs	r1, r3
 8007dd2:	e7ea      	b.n	8007daa <__swhatbuf_r+0x1e>
 8007dd4:	2100      	movs	r1, #0
 8007dd6:	2340      	movs	r3, #64	@ 0x40
 8007dd8:	e7e9      	b.n	8007dae <__swhatbuf_r+0x22>
 8007dda:	46c0      	nop			@ (mov r8, r8)
 8007ddc:	ffffe000 	.word	0xffffe000

08007de0 <__smakebuf_r>:
 8007de0:	b5f0      	push	{r4, r5, r6, r7, lr}
 8007de2:	2602      	movs	r6, #2
 8007de4:	898b      	ldrh	r3, [r1, #12]
 8007de6:	0005      	movs	r5, r0
 8007de8:	000c      	movs	r4, r1
 8007dea:	b085      	sub	sp, #20
 8007dec:	4233      	tst	r3, r6
 8007dee:	d007      	beq.n	8007e00 <__smakebuf_r+0x20>
 8007df0:	0023      	movs	r3, r4
 8007df2:	3347      	adds	r3, #71	@ 0x47
 8007df4:	6023      	str	r3, [r4, #0]
 8007df6:	6123      	str	r3, [r4, #16]
 8007df8:	2301      	movs	r3, #1
 8007dfa:	6163      	str	r3, [r4, #20]
 8007dfc:	b005      	add	sp, #20
 8007dfe:	bdf0      	pop	{r4, r5, r6, r7, pc}
 8007e00:	ab03      	add	r3, sp, #12
 8007e02:	aa02      	add	r2, sp, #8
 8007e04:	f7ff ffc2 	bl	8007d8c <__swhatbuf_r>
 8007e08:	9f02      	ldr	r7, [sp, #8]
 8007e0a:	9001      	str	r0, [sp, #4]
 8007e0c:	0039      	movs	r1, r7
 8007e0e:	0028      	movs	r0, r5
 8007e10:	f7ff f99a 	bl	8007148 <_malloc_r>
 8007e14:	2800      	cmp	r0, #0
 8007e16:	d108      	bne.n	8007e2a <__smakebuf_r+0x4a>
 8007e18:	220c      	movs	r2, #12
 8007e1a:	5ea3      	ldrsh	r3, [r4, r2]
 8007e1c:	059a      	lsls	r2, r3, #22
 8007e1e:	d4ed      	bmi.n	8007dfc <__smakebuf_r+0x1c>
 8007e20:	2203      	movs	r2, #3
 8007e22:	4393      	bics	r3, r2
 8007e24:	431e      	orrs	r6, r3
 8007e26:	81a6      	strh	r6, [r4, #12]
 8007e28:	e7e2      	b.n	8007df0 <__smakebuf_r+0x10>
 8007e2a:	2380      	movs	r3, #128	@ 0x80
 8007e2c:	89a2      	ldrh	r2, [r4, #12]
 8007e2e:	6020      	str	r0, [r4, #0]
 8007e30:	4313      	orrs	r3, r2
 8007e32:	81a3      	strh	r3, [r4, #12]
 8007e34:	9b03      	ldr	r3, [sp, #12]
 8007e36:	6120      	str	r0, [r4, #16]
 8007e38:	6167      	str	r7, [r4, #20]
 8007e3a:	2b00      	cmp	r3, #0
 8007e3c:	d00c      	beq.n	8007e58 <__smakebuf_r+0x78>
 8007e3e:	0028      	movs	r0, r5
 8007e40:	230e      	movs	r3, #14
 8007e42:	5ee1      	ldrsh	r1, [r4, r3]
 8007e44:	f000 f820 	bl	8007e88 <_isatty_r>
 8007e48:	2800      	cmp	r0, #0
 8007e4a:	d005      	beq.n	8007e58 <__smakebuf_r+0x78>
 8007e4c:	2303      	movs	r3, #3
 8007e4e:	89a2      	ldrh	r2, [r4, #12]
 8007e50:	439a      	bics	r2, r3
 8007e52:	3b02      	subs	r3, #2
 8007e54:	4313      	orrs	r3, r2
 8007e56:	81a3      	strh	r3, [r4, #12]
 8007e58:	89a3      	ldrh	r3, [r4, #12]
 8007e5a:	9a01      	ldr	r2, [sp, #4]
 8007e5c:	4313      	orrs	r3, r2
 8007e5e:	81a3      	strh	r3, [r4, #12]
 8007e60:	e7cc      	b.n	8007dfc <__smakebuf_r+0x1c>
	...

08007e64 <_fstat_r>:
 8007e64:	2300      	movs	r3, #0
 8007e66:	b570      	push	{r4, r5, r6, lr}
 8007e68:	4d06      	ldr	r5, [pc, #24]	@ (8007e84 <_fstat_r+0x20>)
 8007e6a:	0004      	movs	r4, r0
 8007e6c:	0008      	movs	r0, r1
 8007e6e:	0011      	movs	r1, r2
 8007e70:	602b      	str	r3, [r5, #0]
 8007e72:	f7fb f9a1 	bl	80031b8 <_fstat>
 8007e76:	1c43      	adds	r3, r0, #1
 8007e78:	d103      	bne.n	8007e82 <_fstat_r+0x1e>
 8007e7a:	682b      	ldr	r3, [r5, #0]
 8007e7c:	2b00      	cmp	r3, #0
 8007e7e:	d000      	beq.n	8007e82 <_fstat_r+0x1e>
 8007e80:	6023      	str	r3, [r4, #0]
 8007e82:	bd70      	pop	{r4, r5, r6, pc}
 8007e84:	2000041c 	.word	0x2000041c

08007e88 <_isatty_r>:
 8007e88:	2300      	movs	r3, #0
 8007e8a:	b570      	push	{r4, r5, r6, lr}
 8007e8c:	4d06      	ldr	r5, [pc, #24]	@ (8007ea8 <_isatty_r+0x20>)
 8007e8e:	0004      	movs	r4, r0
 8007e90:	0008      	movs	r0, r1
 8007e92:	602b      	str	r3, [r5, #0]
 8007e94:	f7fb f8f4 	bl	8003080 <_isatty>
 8007e98:	1c43      	adds	r3, r0, #1
 8007e9a:	d103      	bne.n	8007ea4 <_isatty_r+0x1c>
 8007e9c:	682b      	ldr	r3, [r5, #0]
 8007e9e:	2b00      	cmp	r3, #0
 8007ea0:	d000      	beq.n	8007ea4 <_isatty_r+0x1c>
 8007ea2:	6023      	str	r3, [r4, #0]
 8007ea4:	bd70      	pop	{r4, r5, r6, pc}
 8007ea6:	46c0      	nop			@ (mov r8, r8)
 8007ea8:	2000041c 	.word	0x2000041c

08007eac <_sbrk_r>:
 8007eac:	2300      	movs	r3, #0
 8007eae:	b570      	push	{r4, r5, r6, lr}
 8007eb0:	4d06      	ldr	r5, [pc, #24]	@ (8007ecc <_sbrk_r+0x20>)
 8007eb2:	0004      	movs	r4, r0
 8007eb4:	0008      	movs	r0, r1
 8007eb6:	602b      	str	r3, [r5, #0]
 8007eb8:	f7fb fa0c 	bl	80032d4 <_sbrk>
 8007ebc:	1c43      	adds	r3, r0, #1
 8007ebe:	d103      	bne.n	8007ec8 <_sbrk_r+0x1c>
 8007ec0:	682b      	ldr	r3, [r5, #0]
 8007ec2:	2b00      	cmp	r3, #0
 8007ec4:	d000      	beq.n	8007ec8 <_sbrk_r+0x1c>
 8007ec6:	6023      	str	r3, [r4, #0]
 8007ec8:	bd70      	pop	{r4, r5, r6, pc}
 8007eca:	46c0      	nop			@ (mov r8, r8)
 8007ecc:	2000041c 	.word	0x2000041c

08007ed0 <memcpy>:
 8007ed0:	2300      	movs	r3, #0
 8007ed2:	b510      	push	{r4, lr}
 8007ed4:	429a      	cmp	r2, r3
 8007ed6:	d100      	bne.n	8007eda <memcpy+0xa>
 8007ed8:	bd10      	pop	{r4, pc}
 8007eda:	5ccc      	ldrb	r4, [r1, r3]
 8007edc:	54c4      	strb	r4, [r0, r3]
 8007ede:	3301      	adds	r3, #1
 8007ee0:	e7f8      	b.n	8007ed4 <memcpy+0x4>
	...

08007ee4 <__assert_func>:
 8007ee4:	b57f      	push	{r0, r1, r2, r3, r4, r5, r6, lr}
 8007ee6:	0014      	movs	r4, r2
 8007ee8:	001a      	movs	r2, r3
 8007eea:	4b09      	ldr	r3, [pc, #36]	@ (8007f10 <__assert_func+0x2c>)
 8007eec:	0005      	movs	r5, r0
 8007eee:	681b      	ldr	r3, [r3, #0]
 8007ef0:	000e      	movs	r6, r1
 8007ef2:	68d8      	ldr	r0, [r3, #12]
 8007ef4:	4b07      	ldr	r3, [pc, #28]	@ (8007f14 <__assert_func+0x30>)
 8007ef6:	2c00      	cmp	r4, #0
 8007ef8:	d101      	bne.n	8007efe <__assert_func+0x1a>
 8007efa:	4b07      	ldr	r3, [pc, #28]	@ (8007f18 <__assert_func+0x34>)
 8007efc:	001c      	movs	r4, r3
 8007efe:	4907      	ldr	r1, [pc, #28]	@ (8007f1c <__assert_func+0x38>)
 8007f00:	9301      	str	r3, [sp, #4]
 8007f02:	9402      	str	r4, [sp, #8]
 8007f04:	002b      	movs	r3, r5
 8007f06:	9600      	str	r6, [sp, #0]
 8007f08:	f000 f856 	bl	8007fb8 <fiprintf>
 8007f0c:	f000 f864 	bl	8007fd8 <abort>
 8007f10:	20000018 	.word	0x20000018
 8007f14:	08008382 	.word	0x08008382
 8007f18:	080083bd 	.word	0x080083bd
 8007f1c:	0800838f 	.word	0x0800838f

08007f20 <_calloc_r>:
 8007f20:	b570      	push	{r4, r5, r6, lr}
 8007f22:	0c0b      	lsrs	r3, r1, #16
 8007f24:	0c15      	lsrs	r5, r2, #16
 8007f26:	2b00      	cmp	r3, #0
 8007f28:	d11e      	bne.n	8007f68 <_calloc_r+0x48>
 8007f2a:	2d00      	cmp	r5, #0
 8007f2c:	d10c      	bne.n	8007f48 <_calloc_r+0x28>
 8007f2e:	b289      	uxth	r1, r1
 8007f30:	b294      	uxth	r4, r2
 8007f32:	434c      	muls	r4, r1
 8007f34:	0021      	movs	r1, r4
 8007f36:	f7ff f907 	bl	8007148 <_malloc_r>
 8007f3a:	1e05      	subs	r5, r0, #0
 8007f3c:	d01b      	beq.n	8007f76 <_calloc_r+0x56>
 8007f3e:	0022      	movs	r2, r4
 8007f40:	2100      	movs	r1, #0
 8007f42:	f7fe f983 	bl	800624c <memset>
 8007f46:	e016      	b.n	8007f76 <_calloc_r+0x56>
 8007f48:	1c2b      	adds	r3, r5, #0
 8007f4a:	1c0c      	adds	r4, r1, #0
 8007f4c:	b289      	uxth	r1, r1
 8007f4e:	b292      	uxth	r2, r2
 8007f50:	434a      	muls	r2, r1
 8007f52:	b29b      	uxth	r3, r3
 8007f54:	b2a1      	uxth	r1, r4
 8007f56:	4359      	muls	r1, r3
 8007f58:	0c14      	lsrs	r4, r2, #16
 8007f5a:	190c      	adds	r4, r1, r4
 8007f5c:	0c23      	lsrs	r3, r4, #16
 8007f5e:	d107      	bne.n	8007f70 <_calloc_r+0x50>
 8007f60:	0424      	lsls	r4, r4, #16
 8007f62:	b292      	uxth	r2, r2
 8007f64:	4314      	orrs	r4, r2
 8007f66:	e7e5      	b.n	8007f34 <_calloc_r+0x14>
 8007f68:	2d00      	cmp	r5, #0
 8007f6a:	d101      	bne.n	8007f70 <_calloc_r+0x50>
 8007f6c:	1c14      	adds	r4, r2, #0
 8007f6e:	e7ed      	b.n	8007f4c <_calloc_r+0x2c>
 8007f70:	230c      	movs	r3, #12
 8007f72:	2500      	movs	r5, #0
 8007f74:	6003      	str	r3, [r0, #0]
 8007f76:	0028      	movs	r0, r5
 8007f78:	bd70      	pop	{r4, r5, r6, pc}

08007f7a <__ascii_mbtowc>:
 8007f7a:	b082      	sub	sp, #8
 8007f7c:	2900      	cmp	r1, #0
 8007f7e:	d100      	bne.n	8007f82 <__ascii_mbtowc+0x8>
 8007f80:	a901      	add	r1, sp, #4
 8007f82:	1e10      	subs	r0, r2, #0
 8007f84:	d006      	beq.n	8007f94 <__ascii_mbtowc+0x1a>
 8007f86:	2b00      	cmp	r3, #0
 8007f88:	d006      	beq.n	8007f98 <__ascii_mbtowc+0x1e>
 8007f8a:	7813      	ldrb	r3, [r2, #0]
 8007f8c:	600b      	str	r3, [r1, #0]
 8007f8e:	7810      	ldrb	r0, [r2, #0]
 8007f90:	1e43      	subs	r3, r0, #1
 8007f92:	4198      	sbcs	r0, r3
 8007f94:	b002      	add	sp, #8
 8007f96:	4770      	bx	lr
 8007f98:	2002      	movs	r0, #2
 8007f9a:	4240      	negs	r0, r0
 8007f9c:	e7fa      	b.n	8007f94 <__ascii_mbtowc+0x1a>

08007f9e <__ascii_wctomb>:
 8007f9e:	0003      	movs	r3, r0
 8007fa0:	1e08      	subs	r0, r1, #0
 8007fa2:	d005      	beq.n	8007fb0 <__ascii_wctomb+0x12>
 8007fa4:	2aff      	cmp	r2, #255	@ 0xff
 8007fa6:	d904      	bls.n	8007fb2 <__ascii_wctomb+0x14>
 8007fa8:	228a      	movs	r2, #138	@ 0x8a
 8007faa:	2001      	movs	r0, #1
 8007fac:	601a      	str	r2, [r3, #0]
 8007fae:	4240      	negs	r0, r0
 8007fb0:	4770      	bx	lr
 8007fb2:	2001      	movs	r0, #1
 8007fb4:	700a      	strb	r2, [r1, #0]
 8007fb6:	e7fb      	b.n	8007fb0 <__ascii_wctomb+0x12>

08007fb8 <fiprintf>:
 8007fb8:	b40e      	push	{r1, r2, r3}
 8007fba:	b517      	push	{r0, r1, r2, r4, lr}
 8007fbc:	4c05      	ldr	r4, [pc, #20]	@ (8007fd4 <fiprintf+0x1c>)
 8007fbe:	ab05      	add	r3, sp, #20
 8007fc0:	cb04      	ldmia	r3!, {r2}
 8007fc2:	0001      	movs	r1, r0
 8007fc4:	6820      	ldr	r0, [r4, #0]
 8007fc6:	9301      	str	r3, [sp, #4]
 8007fc8:	f7ff fd12 	bl	80079f0 <_vfiprintf_r>
 8007fcc:	bc1e      	pop	{r1, r2, r3, r4}
 8007fce:	bc08      	pop	{r3}
 8007fd0:	b003      	add	sp, #12
 8007fd2:	4718      	bx	r3
 8007fd4:	20000018 	.word	0x20000018

08007fd8 <abort>:
 8007fd8:	2006      	movs	r0, #6
 8007fda:	b510      	push	{r4, lr}
 8007fdc:	f000 f82c 	bl	8008038 <raise>
 8007fe0:	2001      	movs	r0, #1
 8007fe2:	f000 f859 	bl	8008098 <_exit>

08007fe6 <_raise_r>:
 8007fe6:	b570      	push	{r4, r5, r6, lr}
 8007fe8:	0004      	movs	r4, r0
 8007fea:	000d      	movs	r5, r1
 8007fec:	291f      	cmp	r1, #31
 8007fee:	d904      	bls.n	8007ffa <_raise_r+0x14>
 8007ff0:	2316      	movs	r3, #22
 8007ff2:	6003      	str	r3, [r0, #0]
 8007ff4:	2001      	movs	r0, #1
 8007ff6:	4240      	negs	r0, r0
 8007ff8:	bd70      	pop	{r4, r5, r6, pc}
 8007ffa:	6bc3      	ldr	r3, [r0, #60]	@ 0x3c
 8007ffc:	2b00      	cmp	r3, #0
 8007ffe:	d004      	beq.n	800800a <_raise_r+0x24>
 8008000:	008a      	lsls	r2, r1, #2
 8008002:	189b      	adds	r3, r3, r2
 8008004:	681a      	ldr	r2, [r3, #0]
 8008006:	2a00      	cmp	r2, #0
 8008008:	d108      	bne.n	800801c <_raise_r+0x36>
 800800a:	0020      	movs	r0, r4
 800800c:	f000 f830 	bl	8008070 <_getpid_r>
 8008010:	002a      	movs	r2, r5
 8008012:	0001      	movs	r1, r0
 8008014:	0020      	movs	r0, r4
 8008016:	f000 f819 	bl	800804c <_kill_r>
 800801a:	e7ed      	b.n	8007ff8 <_raise_r+0x12>
 800801c:	2a01      	cmp	r2, #1
 800801e:	d009      	beq.n	8008034 <_raise_r+0x4e>
 8008020:	1c51      	adds	r1, r2, #1
 8008022:	d103      	bne.n	800802c <_raise_r+0x46>
 8008024:	2316      	movs	r3, #22
 8008026:	6003      	str	r3, [r0, #0]
 8008028:	2001      	movs	r0, #1
 800802a:	e7e5      	b.n	8007ff8 <_raise_r+0x12>
 800802c:	2100      	movs	r1, #0
 800802e:	0028      	movs	r0, r5
 8008030:	6019      	str	r1, [r3, #0]
 8008032:	4790      	blx	r2
 8008034:	2000      	movs	r0, #0
 8008036:	e7df      	b.n	8007ff8 <_raise_r+0x12>

08008038 <raise>:
 8008038:	b510      	push	{r4, lr}
 800803a:	4b03      	ldr	r3, [pc, #12]	@ (8008048 <raise+0x10>)
 800803c:	0001      	movs	r1, r0
 800803e:	6818      	ldr	r0, [r3, #0]
 8008040:	f7ff ffd1 	bl	8007fe6 <_raise_r>
 8008044:	bd10      	pop	{r4, pc}
 8008046:	46c0      	nop			@ (mov r8, r8)
 8008048:	20000018 	.word	0x20000018

0800804c <_kill_r>:
 800804c:	2300      	movs	r3, #0
 800804e:	b570      	push	{r4, r5, r6, lr}
 8008050:	4d06      	ldr	r5, [pc, #24]	@ (800806c <_kill_r+0x20>)
 8008052:	0004      	movs	r4, r0
 8008054:	0008      	movs	r0, r1
 8008056:	0011      	movs	r1, r2
 8008058:	602b      	str	r3, [r5, #0]
 800805a:	f000 f815 	bl	8008088 <_kill>
 800805e:	1c43      	adds	r3, r0, #1
 8008060:	d103      	bne.n	800806a <_kill_r+0x1e>
 8008062:	682b      	ldr	r3, [r5, #0]
 8008064:	2b00      	cmp	r3, #0
 8008066:	d000      	beq.n	800806a <_kill_r+0x1e>
 8008068:	6023      	str	r3, [r4, #0]
 800806a:	bd70      	pop	{r4, r5, r6, pc}
 800806c:	2000041c 	.word	0x2000041c

08008070 <_getpid_r>:
 8008070:	b510      	push	{r4, lr}
 8008072:	f000 f801 	bl	8008078 <_getpid>
 8008076:	bd10      	pop	{r4, pc}

08008078 <_getpid>:
 8008078:	2258      	movs	r2, #88	@ 0x58
 800807a:	2001      	movs	r0, #1
 800807c:	4b01      	ldr	r3, [pc, #4]	@ (8008084 <_getpid+0xc>)
 800807e:	4240      	negs	r0, r0
 8008080:	601a      	str	r2, [r3, #0]
 8008082:	4770      	bx	lr
 8008084:	2000041c 	.word	0x2000041c

08008088 <_kill>:
 8008088:	2258      	movs	r2, #88	@ 0x58
 800808a:	2001      	movs	r0, #1
 800808c:	4b01      	ldr	r3, [pc, #4]	@ (8008094 <_kill+0xc>)
 800808e:	4240      	negs	r0, r0
 8008090:	601a      	str	r2, [r3, #0]
 8008092:	4770      	bx	lr
 8008094:	2000041c 	.word	0x2000041c

08008098 <_exit>:
 8008098:	e7fe      	b.n	8008098 <_exit>
	...

0800809c <_init>:
 800809c:	b5f8      	push	{r3, r4, r5, r6, r7, lr}
 800809e:	46c0      	nop			@ (mov r8, r8)
 80080a0:	bcf8      	pop	{r3, r4, r5, r6, r7}
 80080a2:	bc08      	pop	{r3}
 80080a4:	469e      	mov	lr, r3
 80080a6:	4770      	bx	lr

080080a8 <_fini>:
 80080a8:	b5f8      	push	{r3, r4, r5, r6, r7, lr}
 80080aa:	46c0      	nop			@ (mov r8, r8)
 80080ac:	bcf8      	pop	{r3, r4, r5, r6, r7}
 80080ae:	bc08      	pop	{r3}
 80080b0:	469e      	mov	lr, r3
 80080b2:	4770      	bx	lr
